 mysqlmanager

 Timestamp is 4cd2d71e (Thu Nov 04 16:54:06 2010)

 Preferred load address is 0000000140000000

 Start         Length     Name                   Class
 0001:00000000 000f1e56H .text                   CODE
 0001:000f1e60 00001026H .text$0                 CODE
 0001:000f2e90 000010a0H .text$00                CODE
 0001:000f3f30 00001020H .text$yd                CODE
 0002:00000000 00000109H .CRT$XCA                DATA
 0002:00000110 00000109H .CRT$XCZ                DATA
 0002:00000220 00000109H .CRT$XIA                DATA
 0002:00000330 0000011cH .CRT$XIC                DATA
 0002:00000450 00000109H .CRT$XIY                DATA
 0002:00000560 00000109H .CRT$XIZ                DATA
 0002:00000670 00000008H .CRT$XLA                DATA
 0002:00000678 00000008H .CRT$XLZ                DATA
 0002:00000680 00000109H .CRT$XPA                DATA
 0002:00000790 00000109H .CRT$XPX                DATA
 0002:000008a0 00000109H .CRT$XPXA               DATA
 0002:000009b0 00000109H .CRT$XPZ                DATA
 0002:00000ac0 00000109H .CRT$XTA                DATA
 0002:00000bd0 00000109H .CRT$XTZ                DATA
 0002:00000ce0 00019b3dH .rdata                  DATA
 0002:0001a820 00000130H .rdata$T                DATA
 0002:0001a950 000001abH .rdata$debug            DATA
 0002:0001ab00 000047e3H .rdata$r                DATA
 0002:0001f2e8 00000109H .rtc$IAA                DATA
 0002:0001f3f8 00000109H .rtc$IZZ                DATA
 0002:0001f508 00000109H .rtc$TAA                DATA
 0002:0001f618 00000109H .rtc$TZZ                DATA
 0002:0001f728 00011dd1H .xdata                  DATA
 0002:00031500 0000019eH .xdata$x                DATA
 0002:0003169e 00000000H .edata                  DATA
 0003:00000000 001594aaH .data                   DATA
 0003:001594c0 000059c4H .bss                    DATA
 0004:00000000 0000bcc4H .pdata                  DATA
 0005:00000000 00000050H .idata$2                DATA
 0005:00000050 00000014H .idata$3                DATA
 0005:00000068 00000828H .idata$4                DATA
 0005:00000890 00000828H .idata$5                DATA
 0005:000010b8 00000ddfH .idata$6                DATA
 0006:00000000 00000101H .tls                    DATA
 0006:00000110 000001e6H .tls$                   DATA
 0006:000002f6 00000101H .tls$ZZZ                DATA

  Address         Publics by Value              Rva+Base               Lib:Object

 0000:00000000       ___safe_se_handler_count   0000000000000000     <absolute>
 0000:00000000       ___safe_se_handler_table   0000000000000000     <absolute>
 0000:00000000       __ImageBase                0000000140000000     <linker-defined>
 0001:000012a0       ?reserve@Buffer@@QEAAH_K0@Z 00000001400022a0 f   buffer.obj
 0001:000013c0       ?get_size@Buffer@@QEAAHXZ  00000001400023c0 f   buffer.obj
 0001:000013d0       ?is_error@Buffer@@QEAAHXZ  00000001400023d0 f   buffer.obj
 0001:000013e0       ?append@Buffer@@QEAAH_KPEBD0@Z 00000001400023e0 f   buffer.obj
 0001:00001460       ?get_instance_map@Manager@@SAPEAVInstance_map@@XZ 0000000140002460 f i command.obj
 0001:00001470       ?get_guardian@Manager@@SAPEAVGuardian@@XZ 0000000140002470 f i command.obj
 0001:00001480       ??0Command@@QEAA@XZ        0000000140002480 f   command.obj
 0001:000014b0       ??1Command@@UEAA@XZ        00000001400024b0 f   command.obj
 0001:000014c0       ??_GCommand@@UEAAPEAXI@Z   00000001400024c0 f i command.obj
 0001:000014c0       ??_ECommand@@UEAAPEAXI@Z   00000001400024c0 f i command.obj
 0001:000014f0       ?alloc_str@Named_value@@SAPEADPEBUst_mysql_lex_string@@@Z 00000001400024f0 f i commands.obj
 0001:00001510       ?free_str@Named_value@@SAXPEAPEAD@Z 0000000140002510 f i commands.obj
 0001:00001540       ??0Named_value@@QEAA@XZ    0000000140002540 f i commands.obj
 0001:00001550       ??0Named_value@@QEAA@PEAD0@Z 0000000140002550 f i commands.obj
 0001:00001560       ?get_name@Named_value@@QEAAPEADXZ 0000000140002560 f i commands.obj
 0001:00001570       ?get_value@Named_value@@QEAAPEADXZ 0000000140002570 f i commands.obj
 0001:00001580       ?free@Named_value@@QEAAXXZ 0000000140002580 f i commands.obj
 0001:000015c0       ?get_size@Named_value_arr@@QEBAHXZ 00000001400025c0 f i commands.obj
 0001:000015d0       ?get_element@Named_value_arr@@QEBA?AVNamed_value@@H@Z 00000001400025d0 f i commands.obj
 0001:00001600       ?add_element@Named_value_arr@@QEAA_NPEAVNamed_value@@@Z 0000000140002600 f i commands.obj
 0001:00001620       ?get_word@@YAXPEAPEBDPEA_KW4enum_seek_method@@@Z 0000000140002620 f i commands.obj
 0001:00001740       ?get_num_options@Instance_options@@QEBAHXZ 0000000140002740 f i commands.obj
 0001:00001750       ?get_option@Instance_options@@QEBA?AVNamed_value@@H@Z 0000000140002750 f i commands.obj
 0001:00001780       ?get_str@Instance_name@@QEBAPEBUst_mysql_lex_string@@XZ 0000000140002780 f i commands.obj
 0001:00001790       ?is_mysqld_compatible@Instance@@QEBA_NXZ 0000000140002790 f i commands.obj
 0001:000017a0       ?is_configured@Instance@@QEBA_NXZ 00000001400027a0 f i commands.obj
 0001:000017b0       ?get_name@Instance@@QEBAPEBUst_mysql_lex_string@@XZ 00000001400027b0 f i commands.obj
 0001:000017c0       ?set_state@Instance@@QEAAXW4enum_instance_state@1@@Z 00000001400027c0 f i commands.obj
 0001:000017d0       ?get_instance_name@Instance_cmd@@IEBAPEBUst_mysql_lex_string@@XZ 00000001400027d0 f i commands.obj
 0001:000017f0       ??0Buffer@@QEAA@_K@Z       00000001400027f0 f i commands.obj
 0001:00001840       ??1Buffer@@QEAA@XZ         0000000140002840 f i commands.obj
 0001:00001850       ??0Iterator@Instance_map@@QEAA@PEAV1@@Z 0000000140002850 f i commands.obj
 0001:00001930       ??0Instance_name@@QEAA@PEBUst_mysql_lex_string@@@Z 0000000140002930 f   commands.obj
 0001:00001980       ?write_header@Show_instances@@AEAAHPEAUst_net@@@Z 0000000140002980 f   commands.obj
 0001:00001a10       ?write_data@Show_instances@@AEAAHPEAUst_net@@@Z 0000000140002a10 f   commands.obj
 0001:00001bc0       ?execute@Flush_instances@@UEAAHPEAUst_net@@K@Z 0000000140002bc0 f   commands.obj
 0001:00001c10       ??0Instance_cmd@@QEAA@PEBUst_mysql_lex_string@@@Z 0000000140002c10 f   commands.obj
 0001:00001c60       ??1Instance_cmd@@UEAA@XZ   0000000140002c60 f i commands.obj
 0001:00001c70       ??0Abstract_instance_cmd@@QEAA@PEBUst_mysql_lex_string@@@Z 0000000140002c70 f   commands.obj
 0001:00001ca0       ??1Abstract_instance_cmd@@UEAA@XZ 0000000140002ca0 f i commands.obj
 0001:00001cb0       ?execute@Abstract_instance_cmd@@UEAAHPEAUst_net@@K@Z 0000000140002cb0 f   commands.obj
 0001:00001d90       ??0Show_instance_status@@QEAA@PEBUst_mysql_lex_string@@@Z 0000000140002d90 f   commands.obj
 0001:00001dc0       ??1Show_instance_status@@UEAA@XZ 0000000140002dc0 f i commands.obj
 0001:00001dd0       ?send_ok_response@Show_instance_status@@MEAAHPEAUst_net@@K@Z 0000000140002dd0 f   commands.obj
 0001:00001e20       ?write_header@Show_instance_status@@AEAAHPEAUst_net@@@Z 0000000140002e20 f   commands.obj
 0001:00001f70       ?write_data@Show_instance_status@@AEAAHPEAUst_net@@PEAVInstance@@@Z 0000000140002f70 f   commands.obj
 0001:00002160       ??0Show_instance_options@@QEAA@PEBUst_mysql_lex_string@@@Z 0000000140003160 f   commands.obj
 0001:00002190       ??1Show_instance_options@@UEAA@XZ 0000000140003190 f i commands.obj
 0001:000021a0       ?send_ok_response@Show_instance_options@@MEAAHPEAUst_net@@K@Z 00000001400031a0 f   commands.obj
 0001:000021f0       ?write_header@Show_instance_options@@AEAAHPEAUst_net@@@Z 00000001400031f0 f   commands.obj
 0001:00002280       ?write_data@Show_instance_options@@AEAAHPEAUst_net@@PEAVInstance@@@Z 0000000140003280 f   commands.obj
 0001:000024b0       ??0Start_instance@@QEAA@PEBUst_mysql_lex_string@@@Z 00000001400034b0 f   commands.obj
 0001:000024e0       ??1Start_instance@@UEAA@XZ 00000001400034e0 f i commands.obj
 0001:000024f0       ?execute_impl@Start_instance@@MEAAHPEAUst_net@@PEAVInstance@@@Z 00000001400034f0 f   commands.obj
 0001:00002570       ?send_ok_response@Start_instance@@MEAAHPEAUst_net@@K@Z 0000000140003570 f   commands.obj
 0001:000025a0       ??0Stop_instance@@QEAA@PEBUst_mysql_lex_string@@@Z 00000001400035a0 f   commands.obj
 0001:000025d0       ??1Stop_instance@@UEAA@XZ  00000001400035d0 f i commands.obj
 0001:000025e0       ?execute_impl@Stop_instance@@MEAAHPEAUst_net@@PEAVInstance@@@Z 00000001400035e0 f   commands.obj
 0001:00002640       ?send_ok_response@Stop_instance@@MEAAHPEAUst_net@@K@Z 0000000140003640 f   commands.obj
 0001:00002670       ??0Create_instance@@QEAA@PEBUst_mysql_lex_string@@@Z 0000000140003670 f   commands.obj
 0001:000026b0       ??1Create_instance@@UEAA@XZ 00000001400036b0 f i commands.obj
 0001:000026e0       ?parse_args@Create_instance@@AEAA_NPEAPEBD@Z 00000001400036e0 f   commands.obj
 0001:00002a50       ?execute@Create_instance@@MEAAHPEAUst_net@@K@Z 0000000140003a50 f   commands.obj
 0001:00002bc0       ??0Drop_instance@@QEAA@PEBUst_mysql_lex_string@@@Z 0000000140003bc0 f   commands.obj
 0001:00002bf0       ??1Drop_instance@@UEAA@XZ  0000000140003bf0 f i commands.obj
 0001:00002c00       ?execute@Drop_instance@@MEAAHPEAUst_net@@K@Z 0000000140003c00 f   commands.obj
 0001:00002d80       ??0Show_instance_log@@QEAA@PEBUst_mysql_lex_string@@W4Log_type@@II@Z 0000000140003d80 f   commands.obj
 0001:00002df0       ??1Show_instance_log@@UEAA@XZ 0000000140003df0 f i commands.obj
 0001:00002e00       ?send_ok_response@Show_instance_log@@MEAAHPEAUst_net@@K@Z 0000000140003e00 f   commands.obj
 0001:00002e50       ?check_params@Show_instance_log@@AEAAHPEAVInstance@@@Z 0000000140003e50 f   commands.obj
 0001:00002ea0       ?write_header@Show_instance_log@@AEAAHPEAUst_net@@@Z 0000000140003ea0 f   commands.obj
 0001:00002f10       ?write_data@Show_instance_log@@AEAAHPEAUst_net@@PEAVInstance@@@Z 0000000140003f10 f   commands.obj
 0001:00003170       ??0Show_instance_log_files@@QEAA@PEBUst_mysql_lex_string@@@Z 0000000140004170 f   commands.obj
 0001:000031a0       ??1Show_instance_log_files@@UEAA@XZ 00000001400041a0 f i commands.obj
 0001:000031b0       ?send_ok_response@Show_instance_log_files@@MEAAHPEAUst_net@@K@Z 00000001400041b0 f   commands.obj
 0001:00003200       ?write_header@Show_instance_log_files@@AEAAHPEAUst_net@@@Z 0000000140004200 f   commands.obj
 0001:000032d0       ?write_data@Show_instance_log_files@@AEAAHPEAUst_net@@PEAVInstance@@@Z 00000001400042d0 f   commands.obj
 0001:00003530       ?get_instance_name@Instance_options_list@@QEBAPEBUst_mysql_lex_string@@XZ 0000000140004530 f i commands.obj
 0001:00003540       ??0Instance_options_list@@QEAA@PEBUst_mysql_lex_string@@@Z 0000000140004540 f   commands.obj
 0001:00003590       ?init@Instance_options_list@@QEAA_NXZ 0000000140004590 f   commands.obj
 0001:000035b0       ??1Instance_options_list@@QEAA@XZ 00000001400045b0 f i commands.obj
 0001:000035c0       ??0Abstract_option_cmd@@IEAA@XZ 00000001400045c0 f   commands.obj
 0001:000035f0       ??1Abstract_option_cmd@@UEAA@XZ 00000001400045f0 f   commands.obj
 0001:00003630       ?correct_file@Abstract_option_cmd@@IEAAHPEAVInstance@@PEAVNamed_value@@_N@Z 0000000140004630 f   commands.obj
 0001:000036b0       ?execute_impl@Abstract_option_cmd@@AEAAHPEAUst_net@@K@Z 00000001400046b0 f   commands.obj
 0001:00003850       ?process_option@Set_option@@MEAAHPEAVInstance@@PEAVNamed_value@@@Z 0000000140004850 f   commands.obj
 0001:00003910       ?process_option@Unset_option@@MEAAHPEAVInstance@@PEAVNamed_value@@@Z 0000000140004910 f   commands.obj
 0001:00003960       ?execute@Syntax_error@@UEAAHPEAUst_net@@K@Z 0000000140004960 f   commands.obj
 0001:00003970       ?execute@Show_instances@@UEAAHPEAUst_net@@K@Z 0000000140004970 f   commands.obj
 0001:000039f0       ??_EInstance_cmd@@UEAAPEAXI@Z 00000001400049f0 f i commands.obj
 0001:000039f0       ??_GInstance_cmd@@UEAAPEAXI@Z 00000001400049f0 f i commands.obj
 0001:00003a30       ??_EAbstract_instance_cmd@@UEAAPEAXI@Z 0000000140004a30 f i commands.obj
 0001:00003a30       ??_GAbstract_instance_cmd@@UEAAPEAXI@Z 0000000140004a30 f i commands.obj
 0001:00003a70       ??_GShow_instance_status@@UEAAPEAXI@Z 0000000140004a70 f i commands.obj
 0001:00003a70       ??_EShow_instance_status@@UEAAPEAXI@Z 0000000140004a70 f i commands.obj
 0001:00003ab0       ?execute_impl@Show_instance_status@@MEAAHPEAUst_net@@PEAVInstance@@@Z 0000000140004ab0 f   commands.obj
 0001:00003b10       ??_GShow_instance_options@@UEAAPEAXI@Z 0000000140004b10 f i commands.obj
 0001:00003b10       ??_EShow_instance_options@@UEAAPEAXI@Z 0000000140004b10 f i commands.obj
 0001:00003b50       ?execute_impl@Show_instance_options@@MEAAHPEAUst_net@@PEAVInstance@@@Z 0000000140004b50 f   commands.obj
 0001:00003bb0       ??_EStart_instance@@UEAAPEAXI@Z 0000000140004bb0 f i commands.obj
 0001:00003bb0       ??_GStart_instance@@UEAAPEAXI@Z 0000000140004bb0 f i commands.obj
 0001:00003bf0       ??_GStop_instance@@UEAAPEAXI@Z 0000000140004bf0 f i commands.obj
 0001:00003bf0       ??_EStop_instance@@UEAAPEAXI@Z 0000000140004bf0 f i commands.obj
 0001:00003c30       ??_GCreate_instance@@UEAAPEAXI@Z 0000000140004c30 f i commands.obj
 0001:00003c30       ??_ECreate_instance@@UEAAPEAXI@Z 0000000140004c30 f i commands.obj
 0001:00003c80       ?init@Create_instance@@QEAA_NPEAPEBD@Z 0000000140004c80 f   commands.obj
 0001:00003ce0       ??_GDrop_instance@@UEAAPEAXI@Z 0000000140004ce0 f i commands.obj
 0001:00003ce0       ??_EDrop_instance@@UEAAPEAXI@Z 0000000140004ce0 f i commands.obj
 0001:00003d20       ??_GShow_instance_log@@UEAAPEAXI@Z 0000000140004d20 f i commands.obj
 0001:00003d20       ??_EShow_instance_log@@UEAAPEAXI@Z 0000000140004d20 f i commands.obj
 0001:00003d60       ?execute_impl@Show_instance_log@@MEAAHPEAUst_net@@PEAVInstance@@@Z 0000000140004d60 f   commands.obj
 0001:00003dd0       ??_GShow_instance_log_files@@UEAAPEAXI@Z 0000000140004dd0 f i commands.obj
 0001:00003dd0       ??_EShow_instance_log_files@@UEAAPEAXI@Z 0000000140004dd0 f i commands.obj
 0001:00003e10       ?execute_impl@Show_instance_log_files@@MEAAHPEAUst_net@@PEAVInstance@@@Z 0000000140004e10 f   commands.obj
 0001:00003e70       ??_GInstance_options_list@@QEAAPEAXI@Z 0000000140004e70 f i commands.obj
 0001:00003eb0       ??_GAbstract_option_cmd@@UEAAPEAXI@Z 0000000140004eb0 f i commands.obj
 0001:00003eb0       ??_EAbstract_option_cmd@@UEAAPEAXI@Z 0000000140004eb0 f i commands.obj
 0001:00003ef0       ?execute@Abstract_option_cmd@@UEAAHPEAUst_net@@K@Z 0000000140004ef0 f   commands.obj
 0001:00003f50       ?get_instance_options_list@Abstract_option_cmd@@AEAAPEAVInstance_options_list@@PEBUst_mysql_lex_string@@@Z 0000000140004f50 f   commands.obj
 0001:00004050       ?add_option@Abstract_option_cmd@@QEAA_NPEBUst_mysql_lex_string@@PEAVNamed_value@@@Z 0000000140005050 f   commands.obj
 0001:00004090       ?init@Abstract_option_cmd@@QEAA_NPEAPEBD@Z 0000000140005090 f   commands.obj
 0001:00004130       ?parse_args@Set_option@@MEAA_NPEAPEBD@Z 0000000140005130 f   commands.obj
 0001:00004550       ?parse_args@Unset_option@@MEAA_NPEAPEBD@Z 0000000140005550 f   commands.obj
 0001:00004840       ??0Thread_info@@QEAA@XZ    0000000140005840 f i guardian.obj
 0001:00004850       ??0Thread@@QEAA@XZ         0000000140005850 f i guardian.obj
 0001:00004870       ??_GThread@@MEAAPEAXI@Z    0000000140005870 f i guardian.obj
 0001:00004870       ??_EThread@@MEAAPEAXI@Z    0000000140005870 f i guardian.obj
 0001:000048b0       ?is_guarded@Instance@@QEBA_NXZ 00000001400058b0 f i guardian.obj
 0001:000048c0       ?get_state@Instance@@QEBA?AW4enum_instance_state@1@XZ 00000001400058c0 f i guardian.obj
 0001:000048d0       ?is_crashed@Instance@@QEAA_NXZ 00000001400058d0 f i guardian.obj
 0001:000048e0       ??0Guardian@@QEAA@PEAVThread_registry@@PEAVInstance_map@@@Z 00000001400058e0 f   guardian.obj
 0001:00004940       ?process_instance@Guardian@@AEAAXPEAVInstance@@@Z 0000000140005940 f   guardian.obj
 0001:00004cb0       ?ping@Guardian@@QEAAXXZ    0000000140005cb0 f   guardian.obj
 0001:00004cc0       ?init@Guardian@@QEAAXXZ    0000000140005cc0 f   guardian.obj
 0001:00004d50       ?stop_instances@Guardian@@AEAAXXZ 0000000140005d50 f   guardian.obj
 0001:00004eb0       ?lock@Guardian@@QEAAXXZ    0000000140005eb0 f   guardian.obj
 0001:00004ec0       ?unlock@Guardian@@QEAAXXZ  0000000140005ec0 f   guardian.obj
 0001:00004ed0       ??1Guardian@@UEAA@XZ       0000000140005ed0 f   guardian.obj
 0001:00004f20       ?request_shutdown@Guardian@@QEAAXXZ 0000000140005f20 f   guardian.obj
 0001:00004f60       ?run@Guardian@@MEAAXXZ     0000000140005f60 f   guardian.obj
 0001:00005190       ?is_stopped@Guardian@@QEAA_NXZ 0000000140006190 f   guardian.obj
 0001:000051d0       ??_GGuardian@@UEAAPEAXI@Z  00000001400061d0 f i guardian.obj
 0001:000051d0       ??_EGuardian@@UEAAPEAXI@Z  00000001400061d0 f i guardian.obj
 0001:00005220       ?get_thread_registry@Manager@@SAPEAVThread_registry@@XZ 0000000140006220 f i instance.obj
 0001:00005490       ?SafeTerminateProcess@@YAHPEAXI@Z 0000000140006490 f   instance.obj
 0001:00005630       ?kill@@YAHHH@Z             0000000140006630 f   instance.obj
 0001:00005680       ??0Instance_monitor@@QEAA@PEAVInstance@@@Z 0000000140006680 f i instance.obj
 0001:000056a0       ??1Instance_monitor@@UEAA@XZ 00000001400066a0 f i instance.obj
 0001:000056b0       ?is_name_valid@Instance@@SA_NPEBUst_mysql_lex_string@@@Z 00000001400066b0 f   instance.obj
 0001:00005720       ?is_mysqld_compatible_name@Instance@@SA_NPEBUst_mysql_lex_string@@@Z 0000000140006720 f   instance.obj
 0001:00005760       ?get_instance_state_name@Instance@@CAPEBDW4enum_instance_state@1@@Z 0000000140006760 f   instance.obj
 0001:00005800       ??0Instance@@QEAA@XZ       0000000140006800 f   instance.obj
 0001:00005870       ??1Instance@@QEAA@XZ       0000000140006870 f   instance.obj
 0001:000058c0       ?init@Instance@@QEAA_NPEBUst_mysql_lex_string@@@Z 00000001400068c0 f   instance.obj
 0001:000058f0       ?complete_initialization@Instance@@QEAA_NXZ 00000001400068f0 f   instance.obj
 0001:00005920       ?is_mysqld_running@Instance@@QEAA_NXZ 0000000140006920 f   instance.obj
 0001:00005a70       ?kill_mysqld@Instance@@QEAA_NH@Z 0000000140006a70 f   instance.obj
 0001:00005b60       ?lock@Instance@@QEAAXXZ    0000000140006b60 f   instance.obj
 0001:00005b80       ?unlock@Instance@@QEAAXXZ  0000000140006b80 f   instance.obj
 0001:00005ba0       ?reset_stat@Instance@@QEAAXXZ 0000000140006ba0 f   instance.obj
 0001:00005bc0       ?remove_pid@Instance@@AEAAXXZ 0000000140006bc0 f   instance.obj
 0001:00005c10       ?wait_for_stop@Instance@@AEAA_NXZ 0000000140006c10 f   instance.obj
 0001:00005ce0       ??_GInstance_monitor@@UEAAPEAXI@Z 0000000140006ce0 f i instance.obj
 0001:00005ce0       ??_EInstance_monitor@@UEAAPEAXI@Z 0000000140006ce0 f i instance.obj
 0001:00005d20       ?start_and_monitor_instance@Instance_monitor@@IEAAXXZ 0000000140006d20 f   instance.obj
 0001:00005ed0       ?is_active@Instance@@QEAA_NXZ 0000000140006ed0 f   instance.obj
 0001:00005f00       ?start_mysqld@Instance@@QEAA_NXZ 0000000140006f00 f   instance.obj
 0001:00005fd0       ?stop_mysqld@Instance@@QEAA_NXZ 0000000140006fd0 f   instance.obj
 0001:000060f0       ?get_state_name@Instance@@QEAAPEBDXZ 00000001400070f0 f   instance.obj
 0001:00006160       ?run@Instance_monitor@@MEAAXXZ 0000000140007160 f   instance.obj
 0001:000061b0       ??_GInstance@@QEAAPEAXI@Z  00000001400071b0 f i instance_map.obj
 0001:000062a0       ??0Instance_map@@QEAA@XZ   00000001400072a0 f   instance_map.obj
 0001:000062c0       ?lock@Instance_map@@QEAAXXZ 00000001400072c0 f   instance_map.obj
 0001:000062d0       ?unlock@Instance_map@@QEAAXXZ 00000001400072d0 f   instance_map.obj
 0001:000062e0       ?add_instance@Instance_map@@QEAAHPEAVInstance@@@Z 00000001400072e0 f   instance_map.obj
 0001:00006300       ?remove_instance@Instance_map@@QEAAHPEAVInstance@@@Z 0000000140007300 f   instance_map.obj
 0001:00006320       ?create_instance@Instance_map@@QEAAHPEBUst_mysql_lex_string@@PEBVNamed_value_arr@@@Z 0000000140007320 f   instance_map.obj
 0001:00006560       ?find@Instance_map@@QEAAPEAVInstance@@PEBUst_mysql_lex_string@@@Z 0000000140007560 f   instance_map.obj
 0001:00006580       ?go_to_first@Iterator@Instance_map@@QEAAXXZ 0000000140007580 f   instance_map.obj
 0001:00006590       ?next@Iterator@Instance_map@@QEAAPEAVInstance@@XZ 0000000140007590 f   instance_map.obj
 0001:000065c0       ?create_instance_in_file@@YAHPEBUst_mysql_lex_string@@PEBVNamed_value_arr@@@Z 00000001400075c0 f   instance_map.obj
 0001:00006920       ?process_one_option@Instance_map@@QEAAHPEBUst_mysql_lex_string@@PEBD@Z 0000000140007920 f   instance_map.obj
 0001:00006b00       ?init@Instance_map@@QEAA_NXZ 0000000140007b00 f   instance_map.obj
 0001:00006b60       ?reset@Instance_map@@QEAA_NXZ 0000000140007b60 f   instance_map.obj
 0001:00006b90       ??1Instance_map@@QEAA@XZ   0000000140007b90 f   instance_map.obj
 0001:00006c50       ?is_there_active_instance@Instance_map@@QEAA_NXZ 0000000140007c50 f   instance_map.obj
 0001:00006cf0       ?complete_initialization@Instance_map@@AEAA_NXZ 0000000140007cf0 f   instance_map.obj
 0001:00006e80       ?load@Instance_map@@QEAAHXZ 0000000140007e80 f   instance_map.obj
 0001:00006fc0       ?strstr@@YAPEADPEADPEBD@Z  0000000140007fc0 f i instance_options.obj
 0001:00006fd0       ?alloc_str@Named_value@@SAPEADPEBD@Z 0000000140007fd0 f i instance_options.obj
 0001:00006fe0       ?remove_element@Named_value_arr@@QEAAXH@Z 0000000140007fe0 f i instance_options.obj
 0001:00007060       ?replace_element@Named_value_arr@@QEAA_NHPEAVNamed_value@@@Z 0000000140008060 f i instance_options.obj
 0001:00007240       ?is_option_im_specific@Instance_options@@SA_NPEBD@Z 0000000140008240 f   instance_options.obj
 0001:000072c0       ??0Instance_options@@QEAA@XZ 00000001400082c0 f   instance_options.obj
 0001:00007370       ?get_default_option@Instance_options@@AEAAHPEAD_KPEBD@Z 0000000140008370 f   instance_options.obj
 0001:00007510       ?fill_instance_version@Instance_options@@AEAA_NXZ 0000000140008510 f   instance_options.obj
 0001:00007760       ?fill_mysqld_real_path@Instance_options@@AEAA_NXZ 0000000140008760 f   instance_options.obj
 0001:000079b0       ?fill_log_options@Instance_options@@AEAA_NXZ 00000001400089b0 f   instance_options.obj
 0001:00007e10       ?get_pid_filename@Instance_options@@QEAAHPEAD@Z 0000000140008e10 f   instance_options.obj
 0001:00007ef0       ?unlink_pidfile@Instance_options@@QEAAHXZ 0000000140008ef0 f   instance_options.obj
 0001:00007f00       ?load_pid@Instance_options@@QEAAHXZ 0000000140008f00 f   instance_options.obj
 0001:00007f80       ?update_var@Instance_options@@AEAAXPEBD0@Z 0000000140008f80 f   instance_options.obj
 0001:00008130       ?find_option@Instance_options@@AEAAHPEBD@Z 0000000140009130 f   instance_options.obj
 0001:00008200       ?add_to_argv@Instance_options@@AEAAHPEBD@Z 0000000140009200 f   instance_options.obj
 0001:00008230       ?print_argv@Instance_options@@QEAAXXZ 0000000140009230 f   instance_options.obj
 0001:000082b0       ?init@Instance_options@@QEAA_NPEBUst_mysql_lex_string@@@Z 00000001400092b0 f   instance_options.obj
 0001:00008360       ??1Instance_options@@QEAA@XZ 0000000140009360 f   instance_options.obj
 0001:000083a0       ?get_shutdown_delay@Instance_options@@QEBAIXZ 00000001400093a0 f   instance_options.obj
 0001:000083c0       ?get_mysqld_port@Instance_options@@QEBAHXZ 00000001400093c0 f   instance_options.obj
 0001:000083e0       ?set_option@Instance_options@@QEAA_NPEAVNamed_value@@@Z 00000001400093e0 f   instance_options.obj
 0001:00008540       ?unset_option@Instance_options@@QEAAXPEBD@Z 0000000140009540 f   instance_options.obj
 0001:00008600       ?complete_initialization@Instance_options@@QEAA_NXZ 0000000140009600 f   instance_options.obj
 0001:00008b00       ?is_shutdown@Thread_registry@@QEAA_NXZ 0000000140009b00 f i listener.obj
 0001:00008b90       ??0Listener@@QEAA@PEAVThread_registry@@PEAVUser_map@@@Z 0000000140009b90 f   listener.obj
 0001:00008bc0       ??1Listener@@UEAA@XZ       0000000140009bc0 f i listener.obj
 0001:00008bd0       ?create_tcp_socket@Listener@@AEAAHXZ 0000000140009bd0 f   listener.obj
 0001:00008e10       ?handle_new_mysql_connection@Listener@@AEAAXPEAUst_vio@@@Z 0000000140009e10 f   listener.obj
 0001:00008ec0       ??_GListener@@UEAAPEAXI@Z  0000000140009ec0 f i listener.obj
 0001:00008ec0       ??_EListener@@UEAAPEAXI@Z  0000000140009ec0 f i listener.obj
 0001:00008f00       ?run@Listener@@MEAAXXZ     0000000140009f00 f   listener.obj
 0001:000094b0       ?log_init@@YAXXZ           000000014000a4b0 f   log.obj
 0001:000094d0       ?log_error@@YAXPEBDZZ      000000014000a4d0 f   log.obj
 0001:00009570       ?log_info@@YAXPEBDZZ       000000014000a570 f   log.obj
 0001:000095d0       ?die@@YAXPEBDZZ            000000014000a5d0 f   log.obj
 0001:00009660       ?onsignal@@YAXH@Z          000000014000a660 f   manager.obj
 0001:00009670       ?set_signals@@YAXPEAH@Z    000000014000a670 f   manager.obj
 0001:000096b0       ?my_sigwait@@YAHPEBHPEAH@Z 000000014000a6b0 f   manager.obj
 0001:000096f0       ??0ThreadModelChecker@?A0xfeba5fb5@@QEAA@XZ 000000014000a6f0 f i manager.obj
 0001:00009720       ?is_linux_threads@ThreadModelChecker@?A0xfeba5fb5@@QEBA_NXZ 000000014000a720 f i manager.obj
 0001:00009730       ?run@ThreadModelChecker@?A0xfeba5fb5@@MEAAXXZ 000000014000a730 f i manager.obj
 0001:00009760       ??1ThreadModelChecker@?A0xfeba5fb5@@UEAA@XZ 000000014000a760 f i manager.obj
 0001:00009770       ?check_if_linux_threads@?A0xfeba5fb5@@YA_NPEA_N@Z 000000014000a770 f   manager.obj
 0001:00009800       ?stop_all_threads@Manager@@CAXXZ 000000014000a800 f   manager.obj
 0001:00009840       ?init_user_map@Manager@@CA_NPEAVUser_map@@@Z 000000014000a840 f   manager.obj
 0001:000098e0       ?flush_instances@Manager@@SAHXZ 000000014000a8e0 f   manager.obj
 0001:000099a0       ??_GThreadModelChecker@?A0xfeba5fb5@@UEAAPEAXI@Z 000000014000a9a0 f i manager.obj
 0001:000099a0       ??_EThreadModelChecker@?A0xfeba5fb5@@UEAAPEAXI@Z 000000014000a9a0 f i manager.obj
 0001:000099e0       ?main@Manager@@SAHXZ       000000014000a9e0 f   manager.obj
 0001:0000a040       ?message@@YAPEBDI@Z        000000014000b040 f   messages.obj
 0001:0000a050       ?errno_to_sqlstate@@YAPEBDI@Z 000000014000b050 f   messages.obj
 0001:0000a070       ??0Mysql_connection@@QEAA@PEAVThread_registry@@PEAVUser_map@@PEAUst_vio@@K@Z 000000014000b070 f   mysql_connection.obj
 0001:0000a0a0       my_net_local_init          000000014000b0a0 f   mysql_connection.obj
 0001:0000a100       slave_io_thread_detach_vio 000000014000b100 f   mysql_connection.obj
 0001:0000a110       ?init@Mysql_connection@@AEAA_NXZ 000000014000b110 f   mysql_connection.obj
 0001:0000a1f0       ?cleanup@Mysql_connection@@AEAAXXZ 000000014000b1f0 f   mysql_connection.obj
 0001:0000a220       ??1Mysql_connection@@UEAA@XZ 000000014000b220 f   mysql_connection.obj
 0001:0000a260       ?check_connection@Mysql_connection@@AEAAHXZ 000000014000b260 f   mysql_connection.obj
 0001:0000a510       ?dispatch_command@Mysql_connection@@AEAAHW4enum_server_command@@PEBD@Z 000000014000b510 f   mysql_connection.obj
 0001:0000a700       ??_EMysql_connection@@UEAAPEAXI@Z 000000014000b700 f i mysql_connection.obj
 0001:0000a700       ??_GMysql_connection@@UEAAPEAXI@Z 000000014000b700 f i mysql_connection.obj
 0001:0000a740       ?do_command@Mysql_connection@@AEAAHXZ 000000014000b740 f   mysql_connection.obj
 0001:0000a870       ?main@Mysql_connection@@AEAAXXZ 000000014000b870 f   mysql_connection.obj
 0001:0000a960       ?run@Mysql_connection@@MEAAXXZ 000000014000b960 f   mysql_connection.obj
 0001:0000aa20       main                       000000014000ba20 f   mysqlmanager.obj
 0001:0000aad0       ?strchr@@YAPEADPEADH@Z     000000014000bad0 f i options.obj
 0001:0000aae0       ?strrchr@@YAPEADPEADH@Z    000000014000bae0 f i options.obj
 0001:0000aaf0       ??0User_management_cmd@@QEAA@XZ 000000014000baf0 f i options.obj
 0001:0000ab10       ??1User_management_cmd@@UEAA@XZ 000000014000bb10 f i options.obj
 0001:0000ab20       ??_EUser_management_cmd@@UEAAPEAXI@Z 000000014000bb20 f i options.obj
 0001:0000ab20       ??_GUser_management_cmd@@UEAAPEAXI@Z 000000014000bb20 f i options.obj
 0001:0000ab50       ??0Print_password_line_cmd@@QEAA@XZ 000000014000bb50 f i options.obj
 0001:0000ab70       ??1Print_password_line_cmd@@UEAA@XZ 000000014000bb70 f i options.obj
 0001:0000ab80       ??0Add_user_cmd@@QEAA@XZ   000000014000bb80 f i options.obj
 0001:0000aba0       ??1Add_user_cmd@@UEAA@XZ   000000014000bba0 f i options.obj
 0001:0000abb0       ??0Drop_user_cmd@@QEAA@XZ  000000014000bbb0 f i options.obj
 0001:0000abd0       ??1Drop_user_cmd@@UEAA@XZ  000000014000bbd0 f i options.obj
 0001:0000abe0       ??0Edit_user_cmd@@QEAA@XZ  000000014000bbe0 f i options.obj
 0001:0000ac00       ??1Edit_user_cmd@@UEAA@XZ  000000014000bc00 f i options.obj
 0001:0000ac10       ??0Clean_db_cmd@@QEAA@XZ   000000014000bc10 f i options.obj
 0001:0000ac30       ??1Clean_db_cmd@@UEAA@XZ   000000014000bc30 f i options.obj
 0001:0000ac40       ??0Check_db_cmd@@QEAA@XZ   000000014000bc40 f i options.obj
 0001:0000ac60       ??1Check_db_cmd@@UEAA@XZ   000000014000bc60 f i options.obj
 0001:0000ac70       ??0List_users_cmd@@QEAA@XZ 000000014000bc70 f i options.obj
 0001:0000ac90       ??1List_users_cmd@@UEAA@XZ 000000014000bc90 f i options.obj
 0001:0000afd0       ?cleanup@Options@@SAXXZ    000000014000bfd0 f   options.obj
 0001:0000b1f0       ??_EPrint_password_line_cmd@@UEAAPEAXI@Z 000000014000c1f0 f i options.obj
 0001:0000b1f0       ??_GPrint_password_line_cmd@@UEAAPEAXI@Z 000000014000c1f0 f i options.obj
 0001:0000b220       ??_GAdd_user_cmd@@UEAAPEAXI@Z 000000014000c220 f i options.obj
 0001:0000b220       ??_EAdd_user_cmd@@UEAAPEAXI@Z 000000014000c220 f i options.obj
 0001:0000b250       ??_GDrop_user_cmd@@UEAAPEAXI@Z 000000014000c250 f i options.obj
 0001:0000b250       ??_EDrop_user_cmd@@UEAAPEAXI@Z 000000014000c250 f i options.obj
 0001:0000b280       ??_GEdit_user_cmd@@UEAAPEAXI@Z 000000014000c280 f i options.obj
 0001:0000b280       ??_EEdit_user_cmd@@UEAAPEAXI@Z 000000014000c280 f i options.obj
 0001:0000b2b0       ??_EClean_db_cmd@@UEAAPEAXI@Z 000000014000c2b0 f i options.obj
 0001:0000b2b0       ??_GClean_db_cmd@@UEAAPEAXI@Z 000000014000c2b0 f i options.obj
 0001:0000b2e0       ??_GCheck_db_cmd@@UEAAPEAXI@Z 000000014000c2e0 f i options.obj
 0001:0000b2e0       ??_ECheck_db_cmd@@UEAAPEAXI@Z 000000014000c2e0 f i options.obj
 0001:0000b310       ??_GList_users_cmd@@UEAAPEAXI@Z 000000014000c310 f i options.obj
 0001:0000b310       ??_EList_users_cmd@@UEAAPEAXI@Z 000000014000c310 f i options.obj
 0001:0000b340       ?load@Options@@SAHHPEAPEAD@Z 000000014000c340 f   options.obj
 0001:0000b510       ??0Show_instances@@QEAA@XZ 000000014000c510 f i parse.obj
 0001:0000b540       ??1Show_instances@@UEAA@XZ 000000014000c540 f i parse.obj
 0001:0000b550       ??0Flush_instances@@QEAA@XZ 000000014000c550 f i parse.obj
 0001:0000b580       ??1Flush_instances@@UEAA@XZ 000000014000c580 f i parse.obj
 0001:0000b590       ??0Set_option@@QEAA@XZ     000000014000c590 f i parse.obj
 0001:0000b5c0       ??1Set_option@@UEAA@XZ     000000014000c5c0 f i parse.obj
 0001:0000b5d0       ??0Unset_option@@QEAA@XZ   000000014000c5d0 f i parse.obj
 0001:0000b600       ??1Unset_option@@UEAA@XZ   000000014000c600 f i parse.obj
 0001:0000b610       ??0Syntax_error@@QEAA@XZ   000000014000c610 f i parse.obj
 0001:0000b640       ??1Syntax_error@@UEAA@XZ   000000014000c640 f i parse.obj
 0001:0000b650       ??0Named_value_arr@@QEAA@XZ 000000014000c650 f   parse.obj
 0001:0000b660       ?init@Named_value_arr@@QEAA_NXZ 000000014000c660 f   parse.obj
 0001:0000b6b0       ??1Named_value_arr@@QEAA@XZ 000000014000c6b0 f   parse.obj
 0001:0000b760       ?find_token@@YA?AW4Token@@PEBD_K@Z 000000014000c760 f i parse.obj
 0001:0000b810       ?get_token@@YA?AW4Token@@PEAPEBDPEA_K@Z 000000014000c810 f   parse.obj
 0001:0000b950       ?shift_token@@YA?AW4Token@@PEAPEBDPEA_K@Z 000000014000c950 f   parse.obj
 0001:0000b980       ?get_text_id@@YAHPEAPEBDPEAUst_mysql_lex_string@@@Z 000000014000c980 f   parse.obj
 0001:0000ba70       ?parse_option_value@@YA_NPEBDPEA_KPEAPEAD@Z 000000014000ca70 f   parse.obj
 0001:0000bc60       ?skip_spaces@@YAXPEAPEBD@Z 000000014000cc60 f   parse.obj
 0001:0000bcb0       ?parse_command@@YAPEAVCommand@@PEBD@Z 000000014000ccb0 f   parse.obj
 0001:0000c800       ??_EShow_instances@@UEAAPEAXI@Z 000000014000d800 f i parse.obj
 0001:0000c800       ??_GShow_instances@@UEAAPEAXI@Z 000000014000d800 f i parse.obj
 0001:0000c840       ??_GFlush_instances@@UEAAPEAXI@Z 000000014000d840 f i parse.obj
 0001:0000c840       ??_EFlush_instances@@UEAAPEAXI@Z 000000014000d840 f i parse.obj
 0001:0000c880       ??_ESet_option@@UEAAPEAXI@Z 000000014000d880 f i parse.obj
 0001:0000c880       ??_GSet_option@@UEAAPEAXI@Z 000000014000d880 f i parse.obj
 0001:0000c8c0       ??_EUnset_option@@UEAAPEAXI@Z 000000014000d8c0 f i parse.obj
 0001:0000c8c0       ??_GUnset_option@@UEAAPEAXI@Z 000000014000d8c0 f i parse.obj
 0001:0000c900       ??_GSyntax_error@@UEAAPEAXI@Z 000000014000d900 f i parse.obj
 0001:0000c900       ??_ESyntax_error@@UEAAPEAXI@Z 000000014000d900 f i parse.obj
 0001:0000c940       ?trim_space@?A0x493e448a@@YAXPEAPEBDPEAI@Z 000000014000d940 f   parse_output.obj
 0001:0000c9d0       ??0Mysqld_output_parser@?A0x493e448a@@QEAA@XZ 000000014000d9d0 f i parse_output.obj
 0001:0000c9f0       ??1Mysqld_output_parser@?A0x493e448a@@UEAA@XZ 000000014000d9f0 f i parse_output.obj
 0001:0000ca00       ??_GMysqld_output_parser@?A0x493e448a@@UEAAPEAXI@Z 000000014000da00 f i parse_output.obj
 0001:0000ca00       ??_EMysqld_output_parser@?A0x493e448a@@UEAAPEAXI@Z 000000014000da00 f i parse_output.obj
 0001:0000ca30       ?parse@Mysqld_output_parser@?A0x493e448a@@QEAA_NPEBD0IPEAD_KW4enum_option_type@@@Z 000000014000da30 f   parse_output.obj
 0001:0000cbb0       ??0Mysqld_output_parser_win@?A0x493e448a@@QEAA@XZ 000000014000dbb0 f i parse_output.obj
 0001:0000cbd0       ??1Mysqld_output_parser_win@?A0x493e448a@@UEAA@XZ 000000014000dbd0 f i parse_output.obj
 0001:0000cbe0       ?run_command@Mysqld_output_parser_win@?A0x493e448a@@MEAA_NPEBD@Z 000000014000dbe0 f   parse_output.obj
 0001:0000cd50       ?read_line@Mysqld_output_parser_win@?A0x493e448a@@MEAA_NPEADI@Z 000000014000dd50 f   parse_output.obj
 0001:0000ce30       ?cleanup@Mysqld_output_parser_win@?A0x493e448a@@MEAA_NXZ 000000014000de30 f   parse_output.obj
 0001:0000ce60       ?parse_output_and_get_value@@YA_NPEBD0IPEAD_KW4enum_option_type@@@Z 000000014000de60 f   parse_output.obj
 0001:0000ced0       ??_GMysqld_output_parser_win@?A0x493e448a@@UEAAPEAXI@Z 000000014000ded0 f i parse_output.obj
 0001:0000ced0       ??_EMysqld_output_parser_win@?A0x493e448a@@UEAAPEAXI@Z 000000014000ded0 f i parse_output.obj
 0001:0000cf00       ?create_pid_file@@YA_NPEBDH@Z 000000014000df00 f   priv.obj
 0001:0000d010       ?net_send_error@@YAHPEAUst_net@@I@Z 000000014000e010 f   protocol.obj
 0001:0000d110       ?net_send_error_323@@YAHPEAUst_net@@I@Z 000000014000e110 f   protocol.obj
 0001:0000d1e0       ?net_store_length@@YAPEADPEADI@Z 000000014000e1e0 f   protocol.obj
 0001:0000d210       ?store_to_protocol_packet@@YAHPEAVBuffer@@PEBDPEA_K_K@Z 000000014000e210 f   protocol.obj
 0001:0000d2c0       ?store_to_protocol_packet@@YAHPEAVBuffer@@PEBDPEA_K@Z 000000014000e2c0 f   protocol.obj
 0001:0000d300       ?send_eof@@YAHPEAUst_net@@@Z 000000014000e300 f   protocol.obj
 0001:0000d360       ?send_fields@@YAHPEAUst_net@@PEAUst_list@@@Z 000000014000e360 f   protocol.obj
 0001:0000d5d0       ?net_send_ok@@YAHPEAUst_net@@KPEBD@Z 000000014000e5d0 f   protocol.obj
 0001:0000d740       ?init@Thread_info@@AEAAX_N@Z 000000014000e740 f   thread_registry.obj
 0001:0000d780       ??0Thread_registry@@QEAA@XZ 000000014000e780 f   thread_registry.obj
 0001:0000d7e0       ??1Thread_registry@@QEAA@XZ 000000014000e7e0 f   thread_registry.obj
 0001:0000d880       ?register_thread@Thread_registry@@QEAAXPEAVThread_info@@_N@Z 000000014000e880 f   thread_registry.obj
 0001:0000d900       ?unregister_thread@Thread_registry@@QEAAXPEAVThread_info@@@Z 000000014000e900 f   thread_registry.obj
 0001:0000d980       ?cond_wait@Thread_registry@@QEAAHPEAVThread_info@@PEAUpthread_cond_t@@PEAU_RTL_CRITICAL_SECTION@@@Z 000000014000e980 f   thread_registry.obj
 0001:0000da40       ?cond_timedwait@Thread_registry@@QEAAHPEAVThread_info@@PEAUpthread_cond_t@@PEAU_RTL_CRITICAL_SECTION@@PEAUtimespec@@@Z 000000014000ea40 f   thread_registry.obj
 0001:0000db10       ?request_shutdown@Thread_registry@@QEAAXXZ 000000014000eb10 f   thread_registry.obj
 0001:0000db30       ?interrupt_threads@Thread_registry@@AEAAXXZ 000000014000eb30 f   thread_registry.obj
 0001:0000dbb0       ?wait_for_threads_to_unregister@Thread_registry@@AEAAXXZ 000000014000ebb0 f   thread_registry.obj
 0001:0000dc50       ??1Thread@@MEAA@XZ         000000014000ec50 f   thread_registry.obj
 0001:0000dc60       ?thread_func@Thread@@CAPEAXPEAX@Z 000000014000ec60 f   thread_registry.obj
 0001:0000dc90       ?start@Thread@@QEAA_NW4enum_thread_type@1@@Z 000000014000ec90 f   thread_registry.obj
 0001:0000dd10       ?join@Thread@@QEAA_NXZ     000000014000ed10 f   thread_registry.obj
 0001:0000dd40       ?get_error_status@Thread_registry@@QEAAHXZ 000000014000ed40 f   thread_registry.obj
 0001:0000dd90       ?set_error_status@Thread_registry@@QEAAXXZ 000000014000ed90 f   thread_registry.obj
 0001:0000ddd0       ?deliver_shutdown@Thread_registry@@QEAAXXZ 000000014000edd0 f   thread_registry.obj
 0001:0000de40       ??0User@@QEAA@XZ           000000014000ee40 f i user_map.obj
 0001:0000de50       ?set_password@User@@QEAAXPEBD@Z 000000014000ee50 f i user_map.obj
 0001:0000de60       ??0Iterator@User_map@@QEAA@PEAV1@@Z 000000014000ee60 f i user_map.obj
 0001:0000de80       ??0User@@QEAA@PEBUst_mysql_lex_string@@PEBD@Z 000000014000ee80 f   user_map.obj
 0001:0000ded0       ?init@User@@QEAAHPEBD@Z    000000014000eed0 f   user_map.obj
 0001:0000e0c0       ?reset@Iterator@User_map@@QEAAXXZ 000000014000f0c0 f   user_map.obj
 0001:0000e0d0       ?next@Iterator@User_map@@QEAAPEAUUser@@XZ 000000014000f0d0 f   user_map.obj
 0001:0000e100       ?init@User_map@@QEAAHXZ    000000014000f100 f   user_map.obj
 0001:0000e180       ??0User_map@@QEAA@XZ       000000014000f180 f   user_map.obj
 0001:0000e190       ??1User_map@@QEAA@XZ       000000014000f190 f   user_map.obj
 0001:0000e1b0       ?load@User_map@@QEAAHPEBDPEAPEBD@Z 000000014000f1b0 f   user_map.obj
 0001:0000e4c0       ?save@User_map@@QEAAHPEBDPEAPEBD@Z 000000014000f4c0 f   user_map.obj
 0001:0000e630       ?find_user@User_map@@QEAAPEAUUser@@PEBUst_mysql_lex_string@@@Z 000000014000f630 f   user_map.obj
 0001:0000e640       ?find_user@User_map@@QEBAPEBUUser@@PEBUst_mysql_lex_string@@@Z 000000014000f640 f   user_map.obj
 0001:0000e650       ?add_user@User_map@@QEAA_NPEAUUser@@@Z 000000014000f650 f   user_map.obj
 0001:0000e670       ?remove_user@User_map@@QEAA_NPEAUUser@@@Z 000000014000f670 f   user_map.obj
 0001:0000e690       ?authenticate@User_map@@QEBAHPEBUst_mysql_lex_string@@PEBD1@Z 000000014000f690 f   user_map.obj
 0001:0000e6f0       ??0IMService@@AEAA@XZ      000000014000f6f0 f   IMService.obj
 0001:0000e730       ?Shutdown@WindowsService@@MEAAXXZ 000000014000f730 f i IMService.obj
 0001:0000e740       ?Pause@WindowsService@@MEAAXXZ 000000014000f740 f i IMService.obj
 0001:0000e750       ?Continue@WindowsService@@MEAAXXZ 000000014000f750 f i IMService.obj
 0001:0000e760       ??1IMService@@AEAA@XZ      000000014000f760 f   IMService.obj
 0001:0000e780       ?Stop@IMService@@MEAAXXZ   000000014000f780 f   IMService.obj
 0001:0000e7b0       ?Run@IMService@@MEAAXKPEAPEAD@Z 000000014000f7b0 f   IMService.obj
 0001:0000e830       ?Log@IMService@@MEAAXPEBD@Z 000000014000f830 f   IMService.obj
 0001:0000e840       ?main@IMService@@SAHXZ     000000014000f840 f   IMService.obj
 0001:0000e9e0       ??0WindowsService@@QEAA@PEBD0@Z 000000014000f9e0 f   WindowsService.obj
 0001:0000ea30       ?Stop@WindowsService@@MEAAXXZ 000000014000fa30 f i WindowsService.obj
 0001:0000ea40       ?Log@WindowsService@@MEAAXPEBD@Z 000000014000fa40 f i WindowsService.obj
 0001:0000ea50       ??1WindowsService@@QEAA@XZ 000000014000fa50 f   WindowsService.obj
 0001:0000ea60       ?IsInstalled@WindowsService@@QEAAHXZ 000000014000fa60 f   WindowsService.obj
 0001:0000ead0       ?SetAcceptedControls@WindowsService@@QEAAXK@Z 000000014000fad0 f   WindowsService.obj
 0001:0000eae0       ?ReportStatus@WindowsService@@IEAAHKKK@Z 000000014000fae0 f   WindowsService.obj
 0001:0000ebb0       ?HandleControlCode@WindowsService@@IEAAXK@Z 000000014000fbb0 f   WindowsService.obj
 0001:0000ec40       ?ControlHandler@WindowsService@@SAXK@Z 000000014000fc40 f   WindowsService.obj
 0001:0000ec60       ?Install@WindowsService@@QEAAHPEBD0@Z 000000014000fc60 f   WindowsService.obj
 0001:0000edb0       ?Remove@WindowsService@@QEAAHXZ 000000014000fdb0 f   WindowsService.obj
 0001:0000ee90       ?RegisterAndRun@WindowsService@@IEAAXKPEAPEAD@Z 000000014000fe90 f   WindowsService.obj
 0001:0000ef30       ?ServiceMain@WindowsService@@SAXKPEAPEAD@Z 000000014000ff30 f   WindowsService.obj
 0001:0000ef50       ?Init@WindowsService@@QEAAHXZ 000000014000ff50 f   WindowsService.obj
 0001:0000f2d0       ?execute@Print_password_line_cmd@@UEAAHXZ 00000001400102d0 f   user_management_commands.obj
 0001:0000f3c0       ?execute@Add_user_cmd@@UEAAHXZ 00000001400103c0 f   user_management_commands.obj
 0001:0000f570       ?execute@Drop_user_cmd@@UEAAHXZ 0000000140010570 f   user_management_commands.obj
 0001:0000f680       ?execute@Edit_user_cmd@@UEAAHXZ 0000000140010680 f   user_management_commands.obj
 0001:0000f7c0       ?execute@Clean_db_cmd@@UEAAHXZ 00000001400107c0 f   user_management_commands.obj
 0001:0000f860       ?execute@Check_db_cmd@@UEAAHXZ 0000000140010860 f   user_management_commands.obj
 0001:0000f8b0       ?execute@List_users_cmd@@UEAAHXZ 00000001400108b0 f   user_management_commands.obj
 0001:0000f980       my_net_init                0000000140010980 f   net_serv.obj
 0001:0000fa60       net_end                    0000000140010a60 f   net_serv.obj
 0001:0000fa90       net_realloc                0000000140010a90 f   net_serv.obj
 0001:0000fc00       net_clear                  0000000140010c00 f   net_serv.obj
 0001:0000fc80       net_real_write             0000000140010c80 f   net_serv.obj
 0001:00010190       my_net_read                0000000140011190 f   net_serv.obj
 0001:00010430       my_net_set_read_timeout    0000000140011430 f   net_serv.obj
 0001:00010460       my_net_set_write_timeout   0000000140011460 f   net_serv.obj
 0001:00010490       net_flush                  0000000140011490 f   net_serv.obj
 0001:00010640       my_net_write               0000000140011640 f   net_serv.obj
 0001:000107a0       net_write_command          00000001400117a0 f   net_serv.obj
 0001:00010970       net_field_length           0000000140011970 f   pack.obj
 0001:000109e0       net_field_length_ll        00000001400119e0 f   pack.obj
 0001:00010a60       net_store_length           0000000140011a60 f   pack.obj
 0001:00010ad0       randominit                 0000000140011ad0 f   password.obj
 0001:00010b50       my_rnd                     0000000140011b50 f   password.obj
 0001:00010b90       hash_password              0000000140011b90 f   password.obj
 0001:00010c40       my_make_scrambled_password_323 0000000140011c40 f   password.obj
 0001:00010c80       make_scrambled_password_323 0000000140011c80 f   password.obj
 0001:00010cc0       scramble_323               0000000140011cc0 f   password.obj
 0001:00010e60       check_scramble_323         0000000140011e60 f   password.obj
 0001:00011010       get_salt_from_password_323 0000000140012010 f   password.obj
 0001:000110b0       make_password_from_salt_323 00000001400120b0 f   password.obj
 0001:000110d0       create_random_string       00000001400120d0 f   password.obj
 0001:00011160       octet2hex                  0000000140012160 f   password.obj
 0001:000112b0       my_make_scrambled_password 00000001400122b0 f   password.obj
 0001:00011390       make_scrambled_password    0000000140012390 f   password.obj
 0001:000113d0       scramble                   00000001400123d0 f   password.obj
 0001:00011530       check_scramble             0000000140012530 f   password.obj
 0001:00011660       get_salt_from_password     0000000140012660 f   password.obj
 0001:00011680       make_password_from_salt    0000000140012680 f   password.obj
 0001:000116a0       mysql_errno_to_sqlstate    00000001400126a0 f   sql_state.obj
 0001:00011700       my_connect                 0000000140012700 f   client.obj
 0001:00011710       set_mysql_error            0000000140012710 f   client.obj
 0001:000117a0       net_clear_error            00000001400127a0 f   client.obj
 0001:00011830       create_named_pipe          0000000140012830 f   client.obj
 0001:00011ad0       free_rows                  0000000140012ad0 f   client.obj
 0001:00011b10       free_old_query             0000000140012b10 f   client.obj
 0001:00011be0       mysql_free_result          0000000140012be0 f   client.obj
 0001:00011d70       mysql_read_default_options 0000000140012d70 f   client.obj
 0001:000123d0       unpack_fields              00000001400133d0 f   client.obj
 0001:000128c0       mysql_init                 00000001400138c0 f   client.obj
 0001:000129b0       mysql_ssl_set              00000001400139b0 f   client.obj
 0001:00012ba0       mysql_get_ssl_cipher       0000000140013ba0 f   client.obj
 0001:00012d00       mysql_init_character_set   0000000140013d00 f   client.obj
 0001:00012ff0       mysql_select_db            0000000140013ff0 f   client.obj
 0001:00013370       mysql_detach_stmt_list     0000000140014370 f   client.obj
 0001:00013380       mysql_send_query           0000000140014380 f   client.obj
 0001:000133d0       mysql_real_query           00000001400143d0 f   client.obj
 0001:00013410       mysql_store_result         0000000140014410 f   client.obj
 0001:000137f0       mysql_fetch_lengths        00000001400147f0 f   client.obj
 0001:00013840       mysql_options              0000000140014840 f   client.obj
 0001:00013be0       mysql_num_rows             0000000140014be0 f   client.obj
 0001:00013bf0       mysql_num_fields           0000000140014bf0 f   client.obj
 0001:00013c00       mysql_errno                0000000140014c00 f   client.obj
 0001:00013c20       mysql_error                0000000140014c20 f   client.obj
 0001:00013c40       mysql_get_server_version   0000000140014c40 f   client.obj
 0001:00013cd0       mysql_set_character_set    0000000140014cd0 f   client.obj
 0001:00013e60       end_server                 0000000140014e60 f   client.obj
 0001:00013ed0       mysql_close                0000000140014ed0 f   client.obj
 0001:00013fe0       cli_safe_read              0000000140014fe0 f   client.obj
 0001:000141e0       cli_read_rows              00000001400151e0 f   client.obj
 0001:000146e0       mysql_real_connect         00000001400156e0 f   client.obj
 0001:00015690       mysql_reconnect            0000000140016690 f   client.obj
 0001:00015b70       mysql_fetch_row            0000000140016b70 f   client.obj
 0001:00015c90       cli_advanced_command       0000000140016c90 f   client.obj
 0001:00015f00       get_tty_password           0000000140016f00 f   get_password.obj
 0001:00016050       init_client_errs           0000000140017050 f   errmsg.obj
 0001:00016070       finish_client_errs         0000000140017070 f   errmsg.obj
 0001:00016080       InitializeCriticalSection  0000000140017080 f   kernel32:KERNEL32.dll
 0001:00016086       EnterCriticalSection       0000000140017086 f   kernel32:KERNEL32.dll
 0001:0001608c       LeaveCriticalSection       000000014001708c f   kernel32:KERNEL32.dll
 0001:00016092       DeleteCriticalSection      0000000140017092 f   kernel32:KERNEL32.dll
 0001:00016098       GetSystemTimeAsFileTime    0000000140017098 f   kernel32:KERNEL32.dll
 0001:0001609e       CloseHandle                000000014001709e f   kernel32:KERNEL32.dll
 0001:000160a4       GetExitCodeProcess         00000001400170a4 f   kernel32:KERNEL32.dll
 0001:000160aa       WaitForSingleObject        00000001400170aa f   kernel32:KERNEL32.dll
 0001:000160b0       CreateProcessA             00000001400170b0 f   kernel32:KERNEL32.dll
 0001:000160b6       SetLastError               00000001400170b6 f   kernel32:KERNEL32.dll
 0001:000160bc       GetLastError               00000001400170bc f   kernel32:KERNEL32.dll
 0001:000160c2       CreateRemoteThread         00000001400170c2 f   kernel32:KERNEL32.dll
 0001:000160c8       GetProcAddress             00000001400170c8 f   kernel32:KERNEL32.dll
 0001:000160ce       DuplicateHandle            00000001400170ce f   kernel32:KERNEL32.dll
 0001:000160d4       GetCurrentProcess          00000001400170d4 f   kernel32:KERNEL32.dll
 0001:000160da       GetModuleHandleA           00000001400170da f   kernel32:KERNEL32.dll
 0001:000160e0       TerminateProcess           00000001400170e0 f   kernel32:KERNEL32.dll
 0001:000160e6       OpenProcess                00000001400170e6 f   kernel32:KERNEL32.dll
 0001:000160ec       GetCurrentThreadId         00000001400170ec f   kernel32:KERNEL32.dll
 0001:000160f2       Sleep                      00000001400170f2 f   kernel32:KERNEL32.dll
 0001:000160f8       GetFullPathNameA           00000001400170f8 f   kernel32:KERNEL32.dll
 0001:000160fe       GetModuleFileNameA         00000001400170fe f   kernel32:KERNEL32.dll
 0001:00016104       SetHandleInformation       0000000140017104 f   kernel32:KERNEL32.dll
 0001:0001610a       CreatePipe                 000000014001710a f   kernel32:KERNEL32.dll
 0001:00016110       ReadFile                   0000000140017110 f   kernel32:KERNEL32.dll
 0001:00016116       SetNamedPipeHandleState    0000000140017116 f   kernel32:KERNEL32.dll
 0001:0001611c       WaitNamedPipeA             000000014001711c f   kernel32:KERNEL32.dll
 0001:00016122       CreateFileA                0000000140017122 f   kernel32:KERNEL32.dll
 0001:00016128       CloseServiceHandle         0000000140017128 f   advapi32:ADVAPI32.dll
 0001:0001612e       OpenServiceA               000000014001712e f   advapi32:ADVAPI32.dll
 0001:00016134       OpenSCManagerA             0000000140017134 f   advapi32:ADVAPI32.dll
 0001:0001613a       SetServiceStatus           000000014001713a f   advapi32:ADVAPI32.dll
 0001:00016140       CreateServiceA             0000000140017140 f   advapi32:ADVAPI32.dll
 0001:00016146       DeleteService              0000000140017146 f   advapi32:ADVAPI32.dll
 0001:0001614c       RegisterServiceCtrlHandlerA 000000014001714c f   advapi32:ADVAPI32.dll
 0001:00016152       StartServiceCtrlDispatcherA 0000000140017152 f   advapi32:ADVAPI32.dll
 0001:00016160       my_realloc                 0000000140017160 f   mysys:my_realloc.obj
 0001:00016210       my_malloc                  0000000140017210 f   mysys:my_malloc.obj
 0001:000162d0       my_no_flags_free           00000001400172d0 f   mysys:my_malloc.obj
 0001:000162f0       my_memdup                  00000001400172f0 f   mysys:my_malloc.obj
 0001:00016340       my_strdup                  0000000140017340 f   mysys:my_malloc.obj
 0001:000163a0       my_strndup                 00000001400173a0 f   mysys:my_malloc.obj
 0001:000163f0       init_dynamic_array2        00000001400173f0 f   mysys:array.obj
 0001:00016470       init_dynamic_array         0000000140017470 f   mysys:array.obj
 0001:00016490       alloc_dynamic              0000000140017490 f   mysys:array.obj
 0001:00016540       pop_dynamic                0000000140017540 f   mysys:array.obj
 0001:00016560       allocate_dynamic           0000000140017560 f   mysys:array.obj
 0001:00016610       get_dynamic                0000000140017610 f   mysys:array.obj
 0001:00016650       delete_dynamic             0000000140017650 f   mysys:array.obj
 0001:00016690       delete_dynamic_element     0000000140017690 f   mysys:array.obj
 0001:000166c0       freeze_size                00000001400176c0 f   mysys:array.obj
 0001:00016720       get_index_dynamic          0000000140017720 f   mysys:array.obj
 0001:00016750       insert_dynamic             0000000140017750 f   mysys:array.obj
 0001:000167b0       set_dynamic                00000001400177b0 f   mysys:array.obj
 0001:00016850       my_charset_same            0000000140017850 f   mysys:charset.obj
 0001:00017050       get_charsets_dir           0000000140018050 f   mysys:charset.obj
 0001:00017110       add_compiled_collation     0000000140018110 f   mysys:charset.obj
 0001:00017200       free_charsets              0000000140018200 f   mysys:charset.obj
 0001:00017210       get_collation_number       0000000140018210 f   mysys:charset.obj
 0001:00017240       get_charset_number         0000000140018240 f   mysys:charset.obj
 0001:000172e0       get_charset_name           00000001400182e0 f   mysys:charset.obj
 0001:00017440       get_charset                0000000140018440 f   mysys:charset.obj
 0001:00017530       get_charset_by_name        0000000140018530 f   mysys:charset.obj
 0001:000175f0       get_charset_by_csname      00000001400185f0 f   mysys:charset.obj
 0001:000176a0       resolve_charset            00000001400186a0 f   mysys:charset.obj
 0001:000176f0       resolve_collation          00000001400186f0 f   mysys:charset.obj
 0001:00017730       escape_string_for_mysql    0000000140018730 f   mysys:charset.obj
 0001:00017940       fs_character_set           0000000140018940 f   mysys:charset.obj
 0001:00017a10       escape_quotes_for_mysql    0000000140018a10 f   mysys:charset.obj
 0001:00017b30       list_add                   0000000140018b30 f   mysys:list.obj
 0001:00017b70       list_delete                0000000140018b70 f   mysys:list.obj
 0001:00017ba0       list_free                  0000000140018ba0 f   mysys:list.obj
 0001:00017c00       list_cons                  0000000140018c00 f   mysys:list.obj
 0001:00017c50       list_reverse               0000000140018c50 f   mysys:list.obj
 0001:00017c80       list_length                0000000140018c80 f   mysys:list.obj
 0001:00017ca0       list_walk                  0000000140018ca0 f   mysys:list.obj
 0001:00017d40       modify_defaults_file       0000000140018d40 f   mysys:default_modify.obj
 0001:000181d0       my_read                    00000001400191d0 f   mysys:my_read.obj
 0001:00018330       my_seek                    0000000140019330 f   mysys:my_seek.obj
 0001:000183e0       my_tell                    00000001400193e0 f   mysys:my_seek.obj
 0001:00018440       my_dirend                  0000000140019440 f   mysys:my_lib.obj
 0001:000184b0       my_dir                     00000001400194b0 f   mysys:my_lib.obj
 0001:00018780       my_fstat                   0000000140019780 f   mysys:my_lib.obj
 0001:00018790       my_stat                    0000000140019790 f   mysys:my_lib.obj
 0001:00018850       my_close                   0000000140019850 f   mysys:my_open.obj
 0001:00018940       my_register_filename       0000000140019940 f   mysys:my_open.obj
 0001:00018a90       my_sopen                   0000000140019a90 f   mysys:my_open.obj
 0001:00018d10       my_open                    0000000140019d10 f   mysys:my_open.obj
 0001:00018dd0       _my_hash_init              0000000140019dd0 f   mysys:hash.obj
 0001:00018eb0       my_hash_free               0000000140019eb0 f   mysys:hash.obj
 0001:00018f20       my_hash_reset              0000000140019f20 f   mysys:hash.obj
 0001:00019170       my_hash_delete             000000014001a170 f   mysys:hash.obj
 0001:00019490       my_hash_element            000000014001a490 f   mysys:hash.obj
 0001:000194b0       my_hash_replace            000000014001a4b0 f   mysys:hash.obj
 0001:000194d0       my_hash_first              000000014001a4d0 f   mysys:hash.obj
 0001:000195b0       my_hash_next               000000014001a5b0 f   mysys:hash.obj
 0001:00019660       my_hash_update             000000014001a660 f   mysys:hash.obj
 0001:00019910       my_hash_search             000000014001a910 f   mysys:hash.obj
 0001:00019930       my_hash_insert             000000014001a930 f   mysys:hash.obj
 0001:00019cc0       pthread_cond_init          000000014001acc0 f   mysys:my_wincond.obj
 0001:00019d40       pthread_cond_destroy       000000014001ad40 f   mysys:my_wincond.obj
 0001:00019d90       pthread_cond_timedwait     000000014001ad90 f   mysys:my_wincond.obj
 0001:00019ea0       pthread_cond_signal        000000014001aea0 f   mysys:my_wincond.obj
 0001:00019ee0       pthread_cond_broadcast     000000014001aee0 f   mysys:my_wincond.obj
 0001:00019f30       pthread_attr_init          000000014001af30 f   mysys:my_wincond.obj
 0001:00019f40       pthread_attr_setstacksize  000000014001af40 f   mysys:my_wincond.obj
 0001:00019f50       pthread_attr_setprio       000000014001af50 f   mysys:my_wincond.obj
 0001:00019f60       pthread_attr_destroy       000000014001af60 f   mysys:my_wincond.obj
 0001:00019f70       localtime_r                000000014001af70 f   mysys:my_wincond.obj
 0001:0001a020       pthread_cond_wait          000000014001b020 f   mysys:my_wincond.obj
 0001:0001a030       my_sleep                   000000014001b030 f   mysys:my_sleep.obj
 0001:0001a050       my_write                   000000014001b050 f   mysys:my_write.obj
 0001:0001a1c0       my_access                  000000014001b1c0 f   mysys:my_access.obj
 0001:0001a270       check_if_legal_tablename   000000014001b270 f   mysys:my_access.obj
 0001:0001a2c0       check_if_legal_filename    000000014001b2c0 f   mysys:my_access.obj
 0001:0001a410       get_defaults_options       000000014001b410 f   mysys:default.obj
 0001:0001a510       free_defaults              000000014001b510 f   mysys:default.obj
 0001:0001b150       my_print_default_files     000000014001c150 f   mysys:default.obj
 0001:0001b300       print_defaults             000000014001c300 f   mysys:default.obj
 0001:0001b480       my_search_option_files     000000014001c480 f   mysys:default.obj
 0001:0001b7b0       my_load_defaults           000000014001c7b0 f   mysys:default.obj
 0001:0001bb90       load_defaults              000000014001cb90 f   mysys:default.obj
 0001:0001bbb0       init_alloc_root            000000014001cbb0 f   mysys:my_alloc.obj
 0001:0001bc30       reset_root_defaults        000000014001cc30 f   mysys:my_alloc.obj
 0001:0001bd10       alloc_root                 000000014001cd10 f   mysys:my_alloc.obj
 0001:0001be30       multi_alloc_root           000000014001ce30 f   mysys:my_alloc.obj
 0001:0001bf30       free_root                  000000014001cf30 f   mysys:my_alloc.obj
 0001:0001c030       set_prealloc_root          000000014001d030 f   mysys:my_alloc.obj
 0001:0001c080       strmake_root               000000014001d080 f   mysys:my_alloc.obj
 0001:0001c0d0       memdup_root                000000014001d0d0 f   mysys:my_alloc.obj
 0001:0001c120       strdup_root                000000014001d120 f   mysys:my_alloc.obj
 0001:0001c150       strlength                  000000014001d150 f   mysys:mf_format.obj
 0001:0001c1b0       fn_format                  000000014001d1b0 f   mysys:mf_format.obj
 0001:0001c400       my_load_path               000000014001d400 f   mysys:mf_loadpath.obj
 0001:0001c540       my_fclose                  000000014001d540 f   mysys:my_fopen.obj
 0001:0001c690       my_fopen                   000000014001d690 f   mysys:my_fopen.obj
 0001:0001c810       my_fdopen                  000000014001d810 f   mysys:my_fopen.obj
 0001:0001c910       dirname_length             000000014001d910 f   mysys:mf_dirname.obj
 0001:0001c970       convert_dirname            000000014001d970 f   mysys:mf_dirname.obj
 0001:0001ca80       dirname_part               000000014001da80 f   mysys:mf_dirname.obj
 0001:0001cae0       my_thread_global_end       000000014001dae0 f   mysys:my_thr_init.obj
 0001:0001cc30       my_thread_end              000000014001dc30 f   mysys:my_thr_init.obj
 0001:0001ccb0       _my_thread_var             000000014001dcb0 f   mysys:my_thr_init.obj
 0001:0001ccd0       my_thread_dbug_id          000000014001dcd0 f   mysys:my_thr_init.obj
 0001:0001ccf0       my_thread_name             000000014001dcf0 f   mysys:my_thr_init.obj
 0001:0001cd10       my_thread_init             000000014001dd10 f   mysys:my_thr_init.obj
 0001:0001cdc0       my_thread_global_init      000000014001ddc0 f   mysys:my_thr_init.obj
 0001:0001cee0       my_delete                  000000014001dee0 f   mysys:my_delete.obj
 0001:0001cf80       nt_share_delete            000000014001df80 f   mysys:my_delete.obj
 0001:0001d0e0       my_end                     000000014001e0e0 f   mysys:my_init.obj
 0001:0001d1d0       my_parameter_handler       000000014001e1d0 f   mysys:my_init.obj
 0001:0001d550       my_init                    000000014001e550 f   mysys:my_init.obj
 0001:0001d6c0       my_getopt_register_get_addr 000000014001e6c0 f   mysys:my_getopt.obj
 0001:0001d760       getopt_compare_strings     000000014001e760 f   mysys:my_getopt.obj
 0001:0001d8a0       getopt_ll_limit_value      000000014001e8a0 f   mysys:my_getopt.obj
 0001:0001d9d0       getopt_ull_limit_value     000000014001e9d0 f   mysys:my_getopt.obj
 0001:0001dda0       my_print_help              000000014001eda0 f   mysys:my_getopt.obj
 0001:0001e040       my_print_variables         000000014001f040 f   mysys:my_getopt.obj
 0001:0001e4a0       my_cleanup_options         000000014001f4a0 f   mysys:my_getopt.obj
 0001:0001e6d0       handle_options             000000014001f6d0 f   mysys:my_getopt.obj
 0001:0001f2c0       gmtime_r                   00000001400202c0 f   mysys:my_pthread.obj
 0001:0001f340       pthread_no_free            0000000140020340 f   mysys:my_pthread.obj
 0001:0001f350       pthread_dummy              0000000140020350 f   mysys:my_pthread.obj
 0001:0001f360       win_pthread_init           0000000140020360 f   mysys:my_winthread.obj
 0001:0001f370       win_pthread_mutex_trylock  0000000140020370 f   mysys:my_winthread.obj
 0001:0001f3b0       pthread_exit               00000001400203b0 f   mysys:my_winthread.obj
 0001:0001f3c0       win_pthread_setspecific    00000001400203c0 f   mysys:my_winthread.obj
 0001:0001f3e0       my_pthread_once            00000001400203e0 f   mysys:my_winthread.obj
 0001:0001f440       pthread_start              0000000140020440 f   mysys:my_winthread.obj
 0001:0001f4b0       pthread_create             00000001400204b0 f   mysys:my_winthread.obj
 0001:0001f580       my_error                   0000000140020580 f   mysys:my_error.obj
 0001:0001f650       my_printf_error            0000000140020650 f   mysys:my_error.obj
 0001:0001f6c0       my_message                 00000001400206c0 f   mysys:my_error.obj
 0001:0001f6d0       my_error_register          00000001400206d0 f   mysys:my_error.obj
 0001:0001f780       my_error_unregister        0000000140020780 f   mysys:my_error.obj
 0001:0001f7e0       my_error_unregister_all    00000001400207e0 f   mysys:my_error.obj
 0001:0001f830       my_compress_alloc          0000000140020830 f   mysys:my_compress.obj
 0001:0001f8f0       my_uncompress              00000001400208f0 f   mysys:my_compress.obj
 0001:0001f990       unpackfrm                  0000000140020990 f   mysys:my_compress.obj
 0001:0001fa50       my_compress                0000000140020a50 f   mysys:my_compress.obj
 0001:0001fac0       packfrm                    0000000140020ac0 f   mysys:my_compress.obj
 0001:0001fb80       mysql_sha1_reset           0000000140020b80 f   mysys:sha1.obj
 0001:00020220       mysql_sha1_result          0000000140021220 f   mysys:sha1.obj
 0001:000202c0       mysql_sha1_input           00000001400212c0 f   mysys:sha1.obj
 0001:00020330       find_type                  0000000140021330 f   mysys:typelib.obj
 0001:000204b0       get_type                   00000001400214b0 f   mysys:typelib.obj
 0001:000204d0       find_typeset               00000001400214d0 f   mysys:typelib.obj
 0001:00020590       copy_typelib               0000000140021590 f   mysys:typelib.obj
 0001:000206d0       find_type_or_exit          00000001400216d0 f   mysys:typelib.obj
 0001:000207c0       make_type                  00000001400217c0 f   mysys:typelib.obj
 0001:000207f0       my_multi_malloc            00000001400217f0 f   mysys:mulalloc.obj
 0001:000208a0       my_gethostbyname_r         00000001400218a0 f   mysys:my_gethostbyname.obj
 0001:000208e0       my_gethostbyname_r_free    00000001400218e0 f   mysys:my_gethostbyname.obj
 0001:000208f0       thr_alarm_kill             00000001400218f0 f   mysys:thr_alarm.obj
 0001:00020900       process_alarm              0000000140021900 f   mysys:thr_alarm.obj
 0001:00020910       thr_alarm                  0000000140021910 f   mysys:thr_alarm.obj
 0001:00020960       thr_got_alarm              0000000140021960 f   mysys:thr_alarm.obj
 0001:000209d0       thr_end_alarm              00000001400219d0 f   mysys:thr_alarm.obj
 0001:00020a00       end_thr_alarm              0000000140021a00 f   mysys:thr_alarm.obj
 0001:00020a10       init_thr_alarm             0000000140021a10 f   mysys:thr_alarm.obj
 0001:00020a20       thr_alarm_info             0000000140021a20 f   mysys:thr_alarm.obj
 0001:00020a30       resize_thr_alarm           0000000140021a30 f   mysys:thr_alarm.obj
 0001:00020a40       my_once_alloc              0000000140021a40 f   mysys:my_once.obj
 0001:00020b40       my_once_strdup             0000000140021b40 f   mysys:my_once.obj
 0001:00020ba0       my_once_memdup             0000000140021ba0 f   mysys:my_once.obj
 0001:00020bf0       my_once_free               0000000140021bf0 f   mysys:my_once.obj
 0001:00020c30       my_getwd                   0000000140021c30 f   mysys:my_getwd.obj
 0001:00020cf0       test_if_hard_path          0000000140021cf0 f   mysys:my_getwd.obj
 0001:00020d60       has_path                   0000000140021d60 f   mysys:my_getwd.obj
 0001:00020db0       my_setwd                   0000000140021db0 f   mysys:my_getwd.obj
 0001:00020e80       init_compiled_charsets     0000000140021e80 f   mysys:charset-def.obj
 0001:000211e0       my_fread                   00000001400221e0 f   mysys:my_fstream.obj
 0001:000212e0       my_fseek                   00000001400222e0 f   mysys:my_fstream.obj
 0001:00021310       my_ftell                   0000000140022310 f   mysys:my_fstream.obj
 0001:00021320       my_fwrite                  0000000140022320 f   mysys:my_fstream.obj
 0001:00021440       my_chsize                  0000000140022440 f   mysys:my_chsize.obj
 0001:000215c0       my_filename                00000001400225c0 f   mysys:my_div.obj
 0001:00021600       my_qsort                   0000000140022600 f   mysys:mf_qsort.obj
 0001:00021e60       init_glob_errs             0000000140022e60 f   mysys:errors.obj
 0001:00021e70       wait_for_free_space        0000000140022e70 f   mysys:errors.obj
 0001:00021f00       array_append_string_unique 0000000140022f00 f   mysys:mf_arr_appstr.obj
 0001:00021f90       cleanup_dirname            0000000140022f90 f   mysys:mf_pack.obj
 0001:00022290       symdirget                  0000000140023290 f   mysys:mf_pack.obj
 0001:00022410       system_filename            0000000140023410 f   mysys:mf_pack.obj
 0001:00022430       intern_filename            0000000140023430 f   mysys:mf_pack.obj
 0001:000224b0       pack_dirname               00000001400234b0 f   mysys:mf_pack.obj
 0001:000226c0       normalize_dirname          00000001400236c0 f   mysys:mf_pack.obj
 0001:00022760       unpack_dirname             0000000140023760 f   mysys:mf_pack.obj
 0001:00022880       unpack_filename            0000000140023880 f   mysys:mf_pack.obj
 0001:00022940       fn_ext                     0000000140023940 f   mysys:mf_fn_ext.obj
 0001:000229c0       my_readlink                00000001400239c0 f   mysys:my_symlink.obj
 0001:000229e0       my_symlink                 00000001400239e0 f   mysys:my_symlink.obj
 0001:000229f0       my_is_symlink              00000001400239f0 f   mysys:my_symlink.obj
 0001:00022a20       my_realpath                0000000140023a20 f   mysys:my_symlink.obj
 0001:00022aa0       my_message_no_curses       0000000140023aa0 f   mysys:my_messnc.obj
 0001:00022b50       my_sync                    0000000140023b50 f   mysys:my_sync.obj
 0001:00022c00       my_sync_dir                0000000140023c00 f   mysys:my_sync.obj
 0001:00022c10       my_sync_dir_by_file        0000000140023c10 f   mysys:my_sync.obj
 0001:00022c20       strnmov                    0000000140023c20 f   strings:strnmov.obj
 0001:00022c60       strmake                    0000000140023c60 f   strings:strmake.obj
 0001:00022ca0       int2str                    0000000140023ca0 f   strings:int2str.obj
 0001:00022da0       int10_to_str               0000000140023da0 f   strings:int2str.obj
 0001:00022e80       strxnmov                   0000000140023e80 f   strings:strxnmov.obj
 0001:00022ee0       strmov                     0000000140023ee0 f   strings:strmov.obj
 0001:00022f10       strend                     0000000140023f10 f   strings:strend.obj
 0001:00022f30       strxmov                    0000000140023f30 f   strings:strxmov.obj
 0001:00022f90       is_prefix                  0000000140023f90 f   strings:is_prefix.obj
 0001:00022fd0       my_strtoll10               0000000140023fd0 f   strings:my_strtoll10.obj
 0001:000235b0       my_hash_sort_latin1_de     00000001400245b0 f   strings:ctype-latin1.obj
 0001:00023660       my_vsnprintf               0000000140024660 f   strings:my_vsnprintf.obj
 0001:000239b0       my_snprintf                00000001400249b0 f   strings:my_vsnprintf.obj
 0001:000239d0       strcend                    00000001400249d0 f   strings:strcend.obj
 0001:000239f0       my_strnxfrmlen_simple      00000001400249f0 f   strings:ctype-simple.obj
 0001:00023a10       my_strnxfrm_simple         0000000140024a10 f   strings:ctype-simple.obj
 0001:00023ab0       my_strnncoll_simple        0000000140024ab0 f   strings:ctype-simple.obj
 0001:00023b60       my_strnncollsp_simple      0000000140024b60 f   strings:ctype-simple.obj
 0001:00023c50       my_caseup_str_8bit         0000000140024c50 f   strings:ctype-simple.obj
 0001:00023c90       my_casedn_str_8bit         0000000140024c90 f   strings:ctype-simple.obj
 0001:00023cd0       my_caseup_8bit             0000000140024cd0 f   strings:ctype-simple.obj
 0001:00023d00       my_casedn_8bit             0000000140024d00 f   strings:ctype-simple.obj
 0001:00023d30       my_strcasecmp_8bit         0000000140024d30 f   strings:ctype-simple.obj
 0001:00023d90       my_mb_wc_8bit              0000000140024d90 f   strings:ctype-simple.obj
 0001:00023dd0       my_wc_mb_8bit              0000000140024dd0 f   strings:ctype-simple.obj
 0001:00023e30       my_snprintf_8bit           0000000140024e30 f   strings:ctype-simple.obj
 0001:00023e60       my_hash_sort_simple        0000000140024e60 f   strings:ctype-simple.obj
 0001:00023ee0       my_strntol_8bit            0000000140024ee0 f   strings:ctype-simple.obj
 0001:00024060       my_strntoul_8bit           0000000140025060 f   strings:ctype-simple.obj
 0001:000241c0       my_strntoll_8bit           00000001400251c0 f   strings:ctype-simple.obj
 0001:00024350       my_strntoull_8bit          0000000140025350 f   strings:ctype-simple.obj
 0001:000244c0       my_strntod_8bit            00000001400254c0 f   strings:ctype-simple.obj
 0001:000244f0       my_long10_to_str_8bit      00000001400254f0 f   strings:ctype-simple.obj
 0001:00024600       my_longlong10_to_str_8bit  0000000140025600 f   strings:ctype-simple.obj
 0001:00024740       my_wildcmp_8bit            0000000140025740 f   strings:ctype-simple.obj
 0001:00024960       my_like_range_simple       0000000140025960 f   strings:ctype-simple.obj
 0001:00024ad0       my_scan_8bit               0000000140025ad0 f   strings:ctype-simple.obj
 0001:00024b30       my_fill_8bit               0000000140025b30 f   strings:ctype-simple.obj
 0001:00024b40       my_numchars_8bit           0000000140025b40 f   strings:ctype-simple.obj
 0001:00024b50       my_numcells_8bit           0000000140025b50 f   strings:ctype-simple.obj
 0001:00024b60       my_charpos_8bit            0000000140025b60 f   strings:ctype-simple.obj
 0001:00024b70       my_well_formed_len_8bit    0000000140025b70 f   strings:ctype-simple.obj
 0001:00024b90       my_lengthsp_8bit           0000000140025b90 f   strings:ctype-simple.obj
 0001:00024bc0       my_instr_simple            0000000140025bc0 f   strings:ctype-simple.obj
 0001:00024fd0       my_strtoll10_8bit          0000000140025fd0 f   strings:ctype-simple.obj
 0001:00024ff0       my_mb_ctype_8bit           0000000140025ff0 f   strings:ctype-simple.obj
 0001:00025020       my_strntoull10rnd_8bit     0000000140026020 f   strings:ctype-simple.obj
 0001:00025450       my_propagate_simple        0000000140026450 f   strings:ctype-simple.obj
 0001:00025460       my_propagate_complex       0000000140026460 f   strings:ctype-simple.obj
 0001:000254d0       my_lengthsp_binary         00000001400264d0 f   strings:ctype-bin.obj
 0001:00025630       my_mbcharlen_8bit          0000000140026630 f   strings:ctype-bin.obj
 0001:00025680       my_hash_sort_8bit_bin      0000000140026680 f   strings:ctype-bin.obj
 0001:000256e0       my_hash_sort_bin           00000001400266e0 f   strings:ctype-bin.obj
 0001:00025730       my_wildcmp_bin             0000000140026730 f   strings:ctype-bin.obj
 0001:00026170       my_parse_charset_xml       0000000140027170 f   strings:ctype.obj
 0001:00026230       my_string_repertoire       0000000140027230 f   strings:ctype.obj
 0001:000262e0       my_charset_repertoire      00000001400272e0 f   strings:ctype.obj
 0001:000262f0       my_charset_is_ascii_based  00000001400272f0 f   strings:ctype.obj
 0001:00026330       my_charset_is_8bit_pure_ascii 0000000140027330 f   strings:ctype.obj
 0001:00028170       str2int                    0000000140029170 f   strings:str2int.obj
 0001:00028350       strtoll                    0000000140029350 f   strings:strtoll.obj
 0001:00028560       llstr                      0000000140029560 f   strings:llstr.obj
 0001:00028580       ullstr                     0000000140029580 f   strings:llstr.obj
 0001:000285a0       my_strtod                  00000001400295a0 f   strings:strtod.obj
 0001:00028920       my_atof                    0000000140029920 f   strings:strtod.obj
 0001:00028950       longlong2str               0000000140029950 f   strings:longlong2str.obj
 0001:00028a90       longlong10_to_str          0000000140029a90 f   strings:longlong2str.obj
 0001:00028bb0       my_wildcmp_unicode         0000000140029bb0 f   strings:ctype-utf8.obj
 0001:0002cd30       my_strntol_ucs2            000000014002dd30 f   strings:ctype-ucs2.obj
 0001:0002cf70       my_strntoul_ucs2           000000014002df70 f   strings:ctype-ucs2.obj
 0001:0002d190       my_strntoll_ucs2           000000014002e190 f   strings:ctype-ucs2.obj
 0001:0002d400       my_strntoull_ucs2          000000014002e400 f   strings:ctype-ucs2.obj
 0001:0002d630       my_strntod_ucs2            000000014002e630 f   strings:ctype-ucs2.obj
 0001:0002d720       my_strntoull10rnd_ucs2     000000014002e720 f   strings:ctype-ucs2.obj
 0001:0002d840       my_l10tostr_ucs2           000000014002e840 f   strings:ctype-ucs2.obj
 0001:0002d970       my_ll10tostr_ucs2          000000014002e970 f   strings:ctype-ucs2.obj
 0001:0002dac0       my_strtoll10_ucs2          000000014002eac0 f   strings:ctype-ucs2.obj
 0001:0002e240       my_like_range_ucs2         000000014002f240 f   strings:ctype-ucs2.obj
 0001:0002e560       my_scan_ucs2               000000014002f560 f   strings:ctype-ucs2.obj
 0001:0002f0e0       my_strnncoll_gbk_internal  00000001400300e0 f   strings:ctype-gbk.obj
 0001:0002f220       my_strnncoll_gbk           0000000140030220 f   strings:ctype-gbk.obj
 0001:00033b50       bchange                    0000000140034b50 f   strings:bchange.obj
 0001:00033bc0       bmove_upp                  0000000140034bc0 f   strings:bmove_upp.obj
 0001:00034310       my_xml_parse               0000000140035310 f   strings:xml.obj
 0001:00034770       my_xml_parser_create       0000000140035770 f   strings:xml.obj
 0001:00034780       my_xml_parser_free         0000000140035780 f   strings:xml.obj
 0001:00034790       my_xml_set_value_handler   0000000140035790 f   strings:xml.obj
 0001:000347a0       my_xml_set_enter_handler   00000001400357a0 f   strings:xml.obj
 0001:000347b0       my_xml_set_leave_handler   00000001400357b0 f   strings:xml.obj
 0001:000347c0       my_xml_set_user_data       00000001400357c0 f   strings:xml.obj
 0001:000347d0       my_xml_error_string        00000001400357d0 f   strings:xml.obj
 0001:000347e0       my_xml_error_pos           00000001400357e0 f   strings:xml.obj
 0001:00034820       my_xml_error_lineno        0000000140035820 f   strings:xml.obj
 0001:00034850       my_caseup_str_mb           0000000140035850 f   strings:ctype-mb.obj
 0001:000348e0       my_casedn_str_mb           00000001400358e0 f   strings:ctype-mb.obj
 0001:00034970       my_caseup_mb               0000000140035970 f   strings:ctype-mb.obj
 0001:000349f0       my_casedn_mb               00000001400359f0 f   strings:ctype-mb.obj
 0001:00034a70       my_strcasecmp_mb           0000000140035a70 f   strings:ctype-mb.obj
 0001:00034b40       my_wildcmp_mb              0000000140035b40 f   strings:ctype-mb.obj
 0001:00034f60       my_numchars_mb             0000000140035f60 f   strings:ctype-mb.obj
 0001:00034fe0       my_charpos_mb              0000000140035fe0 f   strings:ctype-mb.obj
 0001:00035070       my_well_formed_len_mb      0000000140036070 f   strings:ctype-mb.obj
 0001:00035110       my_instr_mb                0000000140036110 f   strings:ctype-mb.obj
 0001:000354e0       my_like_range_mb           00000001400364e0 f   strings:ctype-mb.obj
 0001:00035b80       my_numcells_mb             0000000140036b80 f   strings:ctype-mb.obj
 0001:00035c20       my_mb_ctype_mb             0000000140036c20 f   strings:ctype-mb.obj
 0001:00035cc0       vio_delete                 0000000140036cc0 f   vio:vio.obj
 0001:00035d00       vio_end                    0000000140036d00 f   vio:vio.obj
 0001:000360e0       vio_reset                  00000001400370e0 f   vio:vio.obj
 0001:00036140       vio_new                    0000000140037140 f   vio:vio.obj
 0001:000361e0       vio_new_win32pipe          00000001400371e0 f   vio:vio.obj
 0001:00036240       vio_new_win32shared_memory 0000000140037240 f   vio:vio.obj
 0001:00036320       vio_errno                  0000000140037320 f   vio:viosocket.obj
 0001:00036330       vio_read                   0000000140037330 f   vio:viosocket.obj
 0001:00036350       vio_read_buff              0000000140037350 f   vio:viosocket.obj
 0001:00036430       vio_write                  0000000140037430 f   vio:viosocket.obj
 0001:00036450       vio_blocking               0000000140037450 f   vio:viosocket.obj
 0001:000364d0       vio_is_blocking            00000001400374d0 f   vio:viosocket.obj
 0001:000364e0       vio_fastsend               00000001400374e0 f   vio:viosocket.obj
 0001:00036520       vio_keepalive              0000000140037520 f   vio:viosocket.obj
 0001:00036570       vio_should_retry           0000000140037570 f   vio:viosocket.obj
 0001:000365a0       vio_was_interrupted        00000001400375a0 f   vio:viosocket.obj
 0001:000365e0       vio_close                  00000001400375e0 f   vio:viosocket.obj
 0001:00036640       vio_description            0000000140037640 f   vio:viosocket.obj
 0001:00036650       vio_type                   0000000140037650 f   vio:viosocket.obj
 0001:00036660       vio_fd                     0000000140037660 f   vio:viosocket.obj
 0001:00036670       vio_peer_addr              0000000140037670 f   vio:viosocket.obj
 0001:00036710       vio_in_addr                0000000140037710 f   vio:viosocket.obj
 0001:00036730       vio_poll_read              0000000140037730 f   vio:viosocket.obj
 0001:00036740       vio_timeout                0000000140037740 f   vio:viosocket.obj
 0001:000367e0       vio_read_pipe              00000001400377e0 f   vio:viosocket.obj
 0001:00036880       vio_write_pipe             0000000140037880 f   vio:viosocket.obj
 0001:00036920       vio_close_pipe             0000000140037920 f   vio:viosocket.obj
 0001:00036960       vio_win32_timeout          0000000140037960 f   vio:viosocket.obj
 0001:00036990       vio_read_shared_memory     0000000140037990 f   vio:viosocket.obj
 0001:00036ab0       vio_write_shared_memory    0000000140037ab0 f   vio:viosocket.obj
 0001:00036b90       vio_close_shared_memory    0000000140037b90 f   vio:viosocket.obj
 0001:00036ca0       vio_ssl_read               0000000140037ca0 f   vio:viossl.obj
 0001:00036cc0       vio_ssl_write              0000000140037cc0 f   vio:viossl.obj
 0001:00036ce0       vio_ssl_close              0000000140037ce0 f   vio:viossl.obj
 0001:00036d20       vio_ssl_delete             0000000140037d20 f   vio:viossl.obj
 0001:00036e70       sslaccept                  0000000140037e70 f   vio:viossl.obj
 0001:00036e80       sslconnect                 0000000140037e80 f   vio:viossl.obj
 0001:00036e90       vio_ssl_blocking           0000000140037e90 f   vio:viossl.obj
 0001:00036f50       sslGetErrString            0000000140037f50 f   vio:viosslfactories.obj
 0001:000371e0       new_VioSSLConnectorFd      00000001400381e0 f   vio:viosslfactories.obj
 0001:00037270       new_VioSSLAcceptorFd       0000000140038270 f   vio:viosslfactories.obj
 0001:00037310       free_vio_ssl_acceptor_fd   0000000140038310 f   vio:viosslfactories.obj
 0001:00037330       ??2@YAPEAX_KPEAUDummy@@@Z  0000000140038330 f i yassl:ssl.obj
 0001:00037340       ??1Message@yaSSL@@UEAA@XZ  0000000140038340 f i yassl:ssl.obj
 0001:00037350       ??_GMessage@yaSSL@@UEAAPEAXI@Z 0000000140038350 f i yassl:ssl.obj
 0001:00037350       ??_EMessage@yaSSL@@UEAAPEAXI@Z 0000000140038350 f i yassl:ssl.obj
 0001:00037380       ??1Alert@yaSSL@@UEAA@XZ    0000000140038380 f i yassl:ssl.obj
 0001:00037390       ??1HandShakeBase@yaSSL@@UEAA@XZ 0000000140038390 f i yassl:ssl.obj
 0001:000373a0       ??_GHandShakeBase@yaSSL@@UEAAPEAXI@Z 00000001400383a0 f i yassl:ssl.obj
 0001:000373a0       ??_EHandShakeBase@yaSSL@@UEAAPEAXI@Z 00000001400383a0 f i yassl:ssl.obj
 0001:000373d0       ??0EncryptedInfo@yaSSL@@QEAA@XZ 00000001400383d0 f i yassl:ssl.obj
 0001:000373e0       ?min@TaoCrypt@@YAIII@Z     00000001400383e0 f i yassl:ssl.obj
 0001:000373f0       ??0Error@TaoCrypt@@QEAA@W4ErrorNumber@1@@Z 00000001400383f0 f i yassl:ssl.obj
 0001:00037400       ?assign@BIGNUM@yaSSL@@QEAAXPEBEI@Z 0000000140038400 f i yassl:ssl.obj
 0001:00037410       ??1Finished@yaSSL@@UEAA@XZ 0000000140038410 f i yassl:ssl.obj
 0001:00037420       ??1HASH@TaoCrypt@@UEAA@XZ  0000000140038420 f i yassl:ssl.obj
 0001:00037430       ??_EHASH@TaoCrypt@@UEAAPEAXI@Z 0000000140038430 f i yassl:ssl.obj
 0001:00037430       ??_GHASH@TaoCrypt@@UEAAPEAXI@Z 0000000140038430 f i yassl:ssl.obj
 0001:00037460       ??1HASHwithTransform@TaoCrypt@@UEAA@XZ 0000000140038460 f i yassl:ssl.obj
 0001:00037470       ??0MD5@TaoCrypt@@QEAA@XZ   0000000140038470 f i yassl:ssl.obj
 0001:000374b0       ?getByteOrder@MD5@TaoCrypt@@UEBA?AW4ByteOrder@2@XZ 00000001400384b0 f i yassl:ssl.obj
 0001:000374c0       ?getBlockSize@MD5@TaoCrypt@@UEBAIXZ 00000001400384c0 f i yassl:ssl.obj
 0001:000374d0       ?getDigestSize@MD5@TaoCrypt@@UEBAIXZ 00000001400384d0 f i yassl:ssl.obj
 0001:000374e0       ?getPadSize@MD5@TaoCrypt@@UEBAIXZ 00000001400384e0 f i yassl:ssl.obj
 0001:000374f0       ??1MD5@TaoCrypt@@UEAA@XZ   00000001400384f0 f i yassl:ssl.obj
 0001:00037500       ??0MD4@TaoCrypt@@QEAA@XZ   0000000140038500 f i yassl:ssl.obj
 0001:00037540       ?getByteOrder@MD4@TaoCrypt@@UEBA?AW4ByteOrder@2@XZ 0000000140038540 f i yassl:ssl.obj
 0001:00037550       ?getBlockSize@MD4@TaoCrypt@@UEBAIXZ 0000000140038550 f i yassl:ssl.obj
 0001:00037560       ?getDigestSize@MD4@TaoCrypt@@UEBAIXZ 0000000140038560 f i yassl:ssl.obj
 0001:00037570       ?getPadSize@MD4@TaoCrypt@@UEBAIXZ 0000000140038570 f i yassl:ssl.obj
 0001:00037580       ??1MD4@TaoCrypt@@UEAA@XZ   0000000140038580 f i yassl:ssl.obj
 0001:00037590       yaSSLv3_server_method      0000000140038590 f   yassl:ssl.obj
 0001:000375e0       yaSSLv3_client_method      00000001400385e0 f   yassl:ssl.obj
 0001:00037630       yaTLSv1_server_method      0000000140038630 f   yassl:ssl.obj
 0001:00037680       yaTLSv1_client_method      0000000140038680 f   yassl:ssl.obj
 0001:000376d0       yaTLSv1_1_server_method    00000001400386d0 f   yassl:ssl.obj
 0001:00037720       yaTLSv1_1_client_method    0000000140038720 f   yassl:ssl.obj
 0001:00037770       yaSSLv23_server_method     0000000140038770 f   yassl:ssl.obj
 0001:000377c0       yaSSLv23_client_method     00000001400387c0 f   yassl:ssl.obj
 0001:00037810       yaSSL_CTX_new              0000000140038810 f   yassl:ssl.obj
 0001:00037840       yaSSL_new                  0000000140038840 f   yassl:ssl.obj
 0001:00037870       yaSSL_set_fd               0000000140038870 f   yassl:ssl.obj
 0001:000378a0       yaSSL_get_fd               00000001400388a0 f   yassl:ssl.obj
 0001:000378c0       yaSSL_connect              00000001400388c0 f   yassl:ssl.obj
 0001:00037b70       yaSSL_write                0000000140038b70 f   yassl:ssl.obj
 0001:00037b80       ??1Data@yaSSL@@UEAA@XZ     0000000140038b80 f i yassl:ssl.obj
 0001:00037b90       yaSSL_accept               0000000140038b90 f   yassl:ssl.obj
 0001:00037e70       yaSSL_do_handshake         0000000140038e70 f   yassl:ssl.obj
 0001:00037eb0       yaSSL_clear                0000000140038eb0 f   yassl:ssl.obj
 0001:00037ed0       yaSSL_shutdown             0000000140038ed0 f   yassl:ssl.obj
 0001:00037f50       yaSSL_set_quiet_shutdown   0000000140038f50 f   yassl:ssl.obj
 0001:00037f60       yaSSL_get_quiet_shutdown   0000000140038f60 f   yassl:ssl.obj
 0001:00037f80       yaSSL_CTX_set_session_cache_mode 0000000140038f80 f   yassl:ssl.obj
 0001:00037fb0       yaSSL_get_session          0000000140038fb0 f   yassl:ssl.obj
 0001:00038010       yaSSL_set_session          0000000140039010 f   yassl:ssl.obj
 0001:00038070       yaSSL_session_reused       0000000140039070 f   yassl:ssl.obj
 0001:00038090       yaSSL_SESSION_set_timeout  0000000140039090 f   yassl:ssl.obj
 0001:000380b0       yaSSL_get_default_timeout  00000001400390b0 f   yassl:ssl.obj
 0001:000380c0       yaSSL_flush_sessions       00000001400390c0 f   yassl:ssl.obj
 0001:000380e0       yaSSL_get_cipher           00000001400390e0 f   yassl:ssl.obj
 0001:00038100       yaSSL_get_shared_ciphers   0000000140039100 f   yassl:ssl.obj
 0001:00038120       yaSSL_get_cipher_list      0000000140039120 f   yassl:ssl.obj
 0001:00038190       yaSSL_CTX_set_cipher_list  0000000140039190 f   yassl:ssl.obj
 0001:000381b0       yaSSL_get_version          00000001400391b0 f   yassl:ssl.obj
 0001:000381e0       yaSSLeay_version           00000001400391e0 f   yassl:ssl.obj
 0001:000381f0       yaSSL_get_error            00000001400391f0 f   yassl:ssl.obj
 0001:00038210       yaSSL_set_compression      0000000140039210 f   yassl:ssl.obj
 0001:00038220       yaSSL_get_peer_certificate 0000000140039220 f   yassl:ssl.obj
 0001:00038240       yaX509_free                0000000140039240 f   yassl:ssl.obj
 0001:00038250       yaX509_STORE_CTX_get_current_cert 0000000140039250 f   yassl:ssl.obj
 0001:00038260       yaX509_STORE_CTX_get_error 0000000140039260 f   yassl:ssl.obj
 0001:00038270       yaX509_STORE_CTX_get_error_depth 0000000140039270 f   yassl:ssl.obj
 0001:00038280       yaX509_NAME_oneline        0000000140039280 f   yassl:ssl.obj
 0001:00038330       yaX509_get_issuer_name     0000000140039330 f   yassl:ssl.obj
 0001:00038340       yaX509_get_subject_name    0000000140039340 f   yassl:ssl.obj
 0001:00038350       yaSSL_load_error_strings   0000000140039350 f   yassl:ssl.obj
 0001:00038360       yaSSL_set_connect_state    0000000140039360 f   yassl:ssl.obj
 0001:00038370       yaSSL_set_accept_state     0000000140039370 f   yassl:ssl.obj
 0001:00038390       yaSSL_get_verify_result    0000000140039390 f   yassl:ssl.obj
 0001:000383a0       yaSSL_CTX_sess_set_cache_size 00000001400393a0 f   yassl:ssl.obj
 0001:000383b0       yaSSL_CTX_get_session_cache_mode 00000001400393b0 f   yassl:ssl.obj
 0001:000383c0       yaSSL_CTX_set_tmp_dh       00000001400393c0 f   yassl:ssl.obj
 0001:000383e0       yaSSL_CTX_set_verify       00000001400393e0 f   yassl:ssl.obj
 0001:00038440       yaSSL_CTX_set_default_verify_paths 0000000140039440 f   yassl:ssl.obj
 0001:00038450       yaSSL_CTX_set_session_id_context 0000000140039450 f   yassl:ssl.obj
 0001:00038460       yaSSL_CTX_check_private_key 0000000140039460 f   yassl:ssl.obj
 0001:00038470       yaSSL_CTX_sess_accept      0000000140039470 f   yassl:ssl.obj
 0001:00038480       yaSSL_CTX_sess_connect     0000000140039480 f   yassl:ssl.obj
 0001:000384a0       yaSSL_CTX_sess_accept_good 00000001400394a0 f   yassl:ssl.obj
 0001:000384c0       yaSSL_CTX_sess_connect_good 00000001400394c0 f   yassl:ssl.obj
 0001:000384e0       yaSSL_CTX_sess_accept_renegotiate 00000001400394e0 f   yassl:ssl.obj
 0001:00038500       yaSSL_CTX_sess_connect_renegotiate 0000000140039500 f   yassl:ssl.obj
 0001:00038520       yaSSL_CTX_sess_hits        0000000140039520 f   yassl:ssl.obj
 0001:00038540       yaSSL_CTX_sess_cb_hits     0000000140039540 f   yassl:ssl.obj
 0001:00038560       yaSSL_CTX_sess_cache_full  0000000140039560 f   yassl:ssl.obj
 0001:00038580       yaSSL_CTX_sess_misses      0000000140039580 f   yassl:ssl.obj
 0001:000385a0       yaSSL_CTX_sess_timeouts    00000001400395a0 f   yassl:ssl.obj
 0001:000385c0       yaSSL_CTX_sess_number      00000001400395c0 f   yassl:ssl.obj
 0001:000385e0       yaSSL_CTX_sess_get_cache_size 00000001400395e0 f   yassl:ssl.obj
 0001:00038600       yaSSL_CTX_get_verify_mode  0000000140039600 f   yassl:ssl.obj
 0001:00038620       yaSSL_get_verify_mode      0000000140039620 f   yassl:ssl.obj
 0001:00038650       yaSSL_CTX_get_verify_depth 0000000140039650 f   yassl:ssl.obj
 0001:00038670       yaSSL_get_verify_depth     0000000140039670 f   yassl:ssl.obj
 0001:000386a0       yaSSL_CTX_set_options      00000001400396a0 f   yassl:ssl.obj
 0001:000386b0       yaSSL_CTX_set_info_callback 00000001400396b0 f   yassl:ssl.obj
 0001:000386c0       yaOpenSSL_add_all_algorithms 00000001400396c0 f   yassl:ssl.obj
 0001:000386d0       yaSSL_library_init         00000001400396d0 f   yassl:ssl.obj
 0001:000386e0       yaDH_new                   00000001400396e0 f   yassl:ssl.obj
 0001:00038710       ??0BIGNUM@yaSSL@@QEAA@XZ   0000000140039710 f i yassl:ssl.obj
 0001:00038730       yaERR_get_error_line_data  0000000140039730 f   yassl:ssl.obj
 0001:00038740       yaERR_print_errors_fp      0000000140039740 f   yassl:ssl.obj
 0001:00038750       yaERR_error_string         0000000140039750 f   yassl:ssl.obj
 0001:00038780       yaX509_verify_cert_error_string 0000000140039780 f   yassl:ssl.obj
 0001:00038790       yaEVP_md5                  0000000140039790 f   yassl:ssl.obj
 0001:000387a0       yaEVP_des_ede3_cbc         00000001400397a0 f   yassl:ssl.obj
 0001:000387b0       yaEVP_BytesToKey           00000001400397b0 f   yassl:ssl.obj
 0001:00038ab0       yaDES_set_key_unchecked    0000000140039ab0 f   yassl:ssl.obj
 0001:00038ac0       yaDES_ede3_cbc_encrypt     0000000140039ac0 f   yassl:ssl.obj
 0001:00038ba0       yaRAND_status              0000000140039ba0 f   yassl:ssl.obj
 0001:00038bb0       yaDES_set_key              0000000140039bb0 f   yassl:ssl.obj
 0001:00038bc0       yaDES_set_odd_parity       0000000140039bc0 f   yassl:ssl.obj
 0001:00038bd0       yaDES_ecb_encrypt          0000000140039bd0 f   yassl:ssl.obj
 0001:00038c60       yaSSL_CTX_set_default_passwd_cb_userdata 0000000140039c60 f   yassl:ssl.obj
 0001:00038c70       yaSSL_get_certificate      0000000140039c70 f   yassl:ssl.obj
 0001:00038c80       yaSSL_get_privatekey       0000000140039c80 f   yassl:ssl.obj
 0001:00038c90       yaSSL_SESSION_free         0000000140039c90 f   yassl:ssl.obj
 0001:00038ca0       yaX509_get_pubkey          0000000140039ca0 f   yassl:ssl.obj
 0001:00038cb0       yaEVP_PKEY_copy_parameters 0000000140039cb0 f   yassl:ssl.obj
 0001:00038cc0       yaEVP_PKEY_free            0000000140039cc0 f   yassl:ssl.obj
 0001:00038cd0       yaERR_error_string_n       0000000140039cd0 f   yassl:ssl.obj
 0001:00038cf0       yaERR_free_strings         0000000140039cf0 f   yassl:ssl.obj
 0001:00038d00       yaEVP_cleanup              0000000140039d00 f   yassl:ssl.obj
 0001:00038d10       yaX509_get_notBefore       0000000140039d10 f   yassl:ssl.obj
 0001:00038d20       yaX509_get_notAfter        0000000140039d20 f   yassl:ssl.obj
 0001:00038d30       yaSSLv2_client_method      0000000140039d30 f   yassl:ssl.obj
 0001:00038d40       yaSSL_get1_session         0000000140039d40 f   yassl:ssl.obj
 0001:00038d50       yaGENERAL_NAMES_free       0000000140039d50 f   yassl:ssl.obj
 0001:00038d60       yask_GENERAL_NAME_num      0000000140039d60 f   yassl:ssl.obj
 0001:00038d70       yask_GENERAL_NAME_value    0000000140039d70 f   yassl:ssl.obj
 0001:00038d80       yaASN1_STRING_data         0000000140039d80 f   yassl:ssl.obj
 0001:00038d90       yaASN1_STRING_length       0000000140039d90 f   yassl:ssl.obj
 0001:00038da0       yaASN1_STRING_type         0000000140039da0 f   yassl:ssl.obj
 0001:00038db0       yaX509_NAME_get_index_by_NID 0000000140039db0 f   yassl:ssl.obj
 0001:00038e20       yaX509_NAME_ENTRY_get_data 0000000140039e20 f   yassl:ssl.obj
 0001:00038e30       yaX509_NAME_get_entry      0000000140039e30 f   yassl:ssl.obj
 0001:00038e40       yaASN1_STRING_to_UTF8      0000000140039e40 f   yassl:ssl.obj
 0001:00038eb0       yaX509_get_ext_d2i         0000000140039eb0 f   yassl:ssl.obj
 0001:00038ec0       yaMD4_Init                 0000000140039ec0 f   yassl:ssl.obj
 0001:00038f00       yaMD4_Update               0000000140039f00 f   yassl:ssl.obj
 0001:00038f10       yaMD4_Final                0000000140039f10 f   yassl:ssl.obj
 0001:00038f20       yaMD5_Init                 0000000140039f20 f   yassl:ssl.obj
 0001:00038f60       yaMD5_Update               0000000140039f60 f   yassl:ssl.obj
 0001:00038f70       yaMD5_Final                0000000140039f70 f   yassl:ssl.obj
 0001:00038f80       yaRAND_bytes               0000000140039f80 f   yassl:ssl.obj
 0001:00038ff0       yaSSL_peek                 0000000140039ff0 f   yassl:ssl.obj
 0001:00039030       yaSSL_pending              000000014003a030 f   yassl:ssl.obj
 0001:00039060       yaSSL_CTX_set_default_passwd_cb 000000014003a060 f   yassl:ssl.obj
 0001:00039070       yaSSLeay_add_ssl_algorithms 000000014003a070 f   yassl:ssl.obj
 0001:00039080       yaERR_remove_state         000000014003a080 f   yassl:ssl.obj
 0001:000390a0       yaERR_GET_REASON           000000014003a0a0 f   yassl:ssl.obj
 0001:000390b0       err_helper                 000000014003a0b0 f   yassl:ssl.obj
 0001:000390e0       yaERR_peek_error           000000014003a0e0 f   yassl:ssl.obj
 0001:000390f0       yaERR_get_error            000000014003a0f0 f   yassl:ssl.obj
 0001:00039100       yaRAND_screen              000000014003a100 f   yassl:ssl.obj
 0001:00039110       yaRAND_file_name           000000014003a110 f   yassl:ssl.obj
 0001:00039120       yaRAND_write_file          000000014003a120 f   yassl:ssl.obj
 0001:00039130       yaRAND_load_file           000000014003a130 f   yassl:ssl.obj
 0001:00039140       yaRSA_free                 000000014003a140 f   yassl:ssl.obj
 0001:00039150       yaRSA_generate_key         000000014003a150 f   yassl:ssl.obj
 0001:00039160       yaX509_LOOKUP_add_dir      000000014003a160 f   yassl:ssl.obj
 0001:00039170       yaX509_LOOKUP_load_file    000000014003a170 f   yassl:ssl.obj
 0001:00039180       yaX509_LOOKUP_hash_dir     000000014003a180 f   yassl:ssl.obj
 0001:00039190       yaX509_LOOKUP_file         000000014003a190 f   yassl:ssl.obj
 0001:000391a0       yaX509_STORE_add_lookup    000000014003a1a0 f   yassl:ssl.obj
 0001:000391b0       yaX509_STORE_get_by_subject 000000014003a1b0 f   yassl:ssl.obj
 0001:000391c0       yaX509_STORE_new           000000014003a1c0 f   yassl:ssl.obj
 0001:000391d0       yaSSL_alert_type_string_long 000000014003a1d0 f   yassl:ssl.obj
 0001:000391e0       yaSSL_alert_desc_string_long 000000014003a1e0 f   yassl:ssl.obj
 0001:000391f0       yaSSL_state_string_long    000000014003a1f0 f   yassl:ssl.obj
 0001:00039200       yaSSL_CTX_set_tmp_rsa_callback 000000014003a200 f   yassl:ssl.obj
 0001:00039210       yaSSL_CTX_set_timeout      000000014003a210 f   yassl:ssl.obj
 0001:00039220       yaSSL_CTX_use_certificate_chain_file 000000014003a220 f   yassl:ssl.obj
 0001:00039230       yaSSL_CTX_use_RSAPrivateKey_file 000000014003a230 f   yassl:ssl.obj
 0001:00039240       yaSSL_set_rfd              000000014003a240 f   yassl:ssl.obj
 0001:00039250       yaSSL_set_wfd              000000014003a250 f   yassl:ssl.obj
 0001:00039260       yaSSL_want_read            000000014003a260 f   yassl:ssl.obj
 0001:00039270       yaSSL_want_write           000000014003a270 f   yassl:ssl.obj
 0001:00039280       yaSSL_set_shutdown         000000014003a280 f   yassl:ssl.obj
 0001:00039290       yaSSL_get_current_cipher   000000014003a290 f   yassl:ssl.obj
 0001:000392a0       yaSSL_CIPHER_description   000000014003a2a0 f   yassl:ssl.obj
 0001:000392b0       ?size@?$Block@EV?$AllocatorWithCleanup@E@TaoCrypt@@@TaoCrypt@@QEBAIXZ 000000014003a2b0 f i yassl:ssl.obj
 0001:000392c0       ?get_buffer@?$Block@EV?$AllocatorWithCleanup@E@TaoCrypt@@@TaoCrypt@@QEBAPEAEXZ 000000014003a2c0 f i yassl:ssl.obj
 0001:000392d0       ??0?$auto_ptr@UBulkCipher@yaSSL@@@mySTL@@QEAA@PEAUBulkCipher@yaSSL@@@Z 000000014003a2d0 f i yassl:ssl.obj
 0001:000392e0       ??C?$auto_ptr@UBulkCipher@yaSSL@@@mySTL@@QEBAPEAUBulkCipher@yaSSL@@XZ 000000014003a2e0 f i yassl:ssl.obj
 0001:000392f0       ??0?$auto_ptr@Vx509@yaSSL@@@mySTL@@QEAA@PEAVx509@yaSSL@@@Z 000000014003a2f0 f i yassl:ssl.obj
 0001:00039300       ??C?$auto_ptr@Vx509@yaSSL@@@mySTL@@QEBAPEAVx509@yaSSL@@XZ 000000014003a300 f i yassl:ssl.obj
 0001:00039310       ?release@?$auto_ptr@Vx509@yaSSL@@@mySTL@@QEAAPEAVx509@yaSSL@@XZ 000000014003a310 f i yassl:ssl.obj
 0001:00039320       ??0?$auto_ptr@UBIGNUM@yaSSL@@@mySTL@@QEAA@PEAUBIGNUM@yaSSL@@@Z 000000014003a320 f i yassl:ssl.obj
 0001:00039330       ?get@?$auto_ptr@UBIGNUM@yaSSL@@@mySTL@@QEBAPEAUBIGNUM@yaSSL@@XZ 000000014003a330 f i yassl:ssl.obj
 0001:00039340       ?release@?$auto_ptr@UBIGNUM@yaSSL@@@mySTL@@QEAAPEAUBIGNUM@yaSSL@@XZ 000000014003a340 f i yassl:ssl.obj
 0001:00039350       ?CheckSize@?$AllocatorBase@E@TaoCrypt@@KAX_K@Z 000000014003a350 f i yassl:ssl.obj
 0001:00039360       ??$tcArrayDelete@E@TaoCrypt@@YAXPEAE@Z 000000014003a360 f i yassl:ssl.obj
 0001:00039370       ??$ysDelete@UDH@yaSSL@@@yaSSL@@YAXPEAUDH@0@@Z 000000014003a370 f i yassl:ssl.obj
 0001:00039380       ??$swap@V?$AllocatorWithCleanup@E@TaoCrypt@@@mySTL@@YAXAEAV?$AllocatorWithCleanup@E@TaoCrypt@@0@Z 000000014003a380 f i yassl:ssl.obj
 0001:00039390       ??$ysDelete@UBulkCipher@yaSSL@@@yaSSL@@YAXPEAUBulkCipher@0@@Z 000000014003a390 f i yassl:ssl.obj
 0001:000393b0       ??_Gx509@yaSSL@@QEAAPEAXI@Z 000000014003a3b0 f i yassl:ssl.obj
 0001:000393e0       ??_GSSL_CTX@yaSSL@@QEAAPEAXI@Z 000000014003a3e0 f i yassl:ssl.obj
 0001:00039410       ??1BIGNUM@yaSSL@@QEAA@XZ   000000014003a410 f i yassl:ssl.obj
 0001:00039420       ??1Security@yaSSL@@QEAA@XZ 000000014003a420 f i yassl:ssl.obj
 0001:00039450       ??1sslHashes@yaSSL@@QEAA@XZ 000000014003a450 f i yassl:ssl.obj
 0001:00039480       ??_GMD5@TaoCrypt@@UEAAPEAXI@Z 000000014003a480 f i yassl:ssl.obj
 0001:00039480       ??_EMD5@TaoCrypt@@UEAAPEAXI@Z 000000014003a480 f i yassl:ssl.obj
 0001:000394b0       ??_GMD4@TaoCrypt@@UEAAPEAXI@Z 000000014003a4b0 f i yassl:ssl.obj
 0001:000394b0       ??_EMD4@TaoCrypt@@UEAAPEAXI@Z 000000014003a4b0 f i yassl:ssl.obj
 0001:000394e0       ?size@Source@TaoCrypt@@QEBAIXZ 000000014003a4e0 f i yassl:ssl.obj
 0001:000394f0       ?get_buffer@Source@TaoCrypt@@QEBAPEBEXZ 000000014003a4f0 f i yassl:ssl.obj
 0001:00039500       yaSSLv3_method             000000014003a500 f   yassl:ssl.obj
 0001:00039510       yaSSL_read                 000000014003a510 f   yassl:ssl.obj
 0001:00039550       yaSSL_get_cipher_name      000000014003a550 f   yassl:ssl.obj
 0001:00039560       ?allocate@?$AllocatorWithCleanup@E@TaoCrypt@@QEAAPEAE_KPEBX@Z 000000014003a560 f i yassl:ssl.obj
 0001:00039570       ?deallocate@?$AllocatorWithCleanup@E@TaoCrypt@@QEAAXPEAX_K@Z 000000014003a570 f i yassl:ssl.obj
 0001:00039590       ?Destroy@?$auto_ptr@UBulkCipher@yaSSL@@@mySTL@@AEAAXXZ 000000014003a590 f i yassl:ssl.obj
 0001:000395a0       ??$ysDelete@Vx509@yaSSL@@@yaSSL@@YAXPEAVx509@0@@Z 000000014003a5a0 f i yassl:ssl.obj
 0001:000395d0       ??$ysDelete@VSSL_CTX@yaSSL@@@yaSSL@@YAXPEAVSSL_CTX@0@@Z 000000014003a5d0 f i yassl:ssl.obj
 0001:00039600       ??$StdReallocate@EV?$AllocatorWithCleanup@E@TaoCrypt@@@TaoCrypt@@YAPEAEAEAV?$AllocatorWithCleanup@E@0@PEAE_K2_N@Z 000000014003a600 f i yassl:ssl.obj
 0001:000396c0       ??_GBIGNUM@yaSSL@@QEAAPEAXI@Z 000000014003a6c0 f i yassl:ssl.obj
 0001:000396f0       ??1SSL@yaSSL@@QEAA@XZ      000000014003a6f0 f i yassl:ssl.obj
 0001:00039780       yaSSL_CTX_free             000000014003a780 f   yassl:ssl.obj
 0001:00039790       ??0?$Block@EV?$AllocatorWithCleanup@E@TaoCrypt@@@TaoCrypt@@QEAA@PEBEI@Z 000000014003a790 f i yassl:ssl.obj
 0001:000397e0       ??1?$Block@EV?$AllocatorWithCleanup@E@TaoCrypt@@@TaoCrypt@@QEAA@XZ 000000014003a7e0 f i yassl:ssl.obj
 0001:00039810       ??1?$auto_ptr@UBulkCipher@yaSSL@@@mySTL@@QEAA@XZ 000000014003a810 f i yassl:ssl.obj
 0001:00039820       ?reset@?$auto_ptr@UBulkCipher@yaSSL@@@mySTL@@QEAAXPEAUBulkCipher@yaSSL@@@Z 000000014003a820 f i yassl:ssl.obj
 0001:00039850       ?reallocate@?$AllocatorWithCleanup@E@TaoCrypt@@QEAAPEAEPEAE_K1_N@Z 000000014003a850 f i yassl:ssl.obj
 0001:00039870       ?Destroy@?$auto_ptr@Vx509@yaSSL@@@mySTL@@AEAAXXZ 000000014003a870 f i yassl:ssl.obj
 0001:00039880       ?New@?$Block@EV?$AllocatorWithCleanup@E@TaoCrypt@@@TaoCrypt@@QEAAXI@Z 000000014003a880 f i yassl:ssl.obj
 0001:000398c0       ??$ysDelete@UBIGNUM@yaSSL@@@yaSSL@@YAXPEAUBIGNUM@0@@Z 000000014003a8c0 f i yassl:ssl.obj
 0001:000398f0       ??_GSSL@yaSSL@@QEAAPEAXI@Z 000000014003a8f0 f i yassl:ssl.obj
 0001:00039990       ??0Source@TaoCrypt@@QEAA@PEBEI@Z 000000014003a990 f i yassl:ssl.obj
 0001:000399f0       ??1Source@TaoCrypt@@QEAA@XZ 000000014003a9f0 f i yassl:ssl.obj
 0001:00039a20       ??1HexDecoder@TaoCrypt@@QEAA@XZ 000000014003aa20 f i yassl:ssl.obj
 0001:00039a50       yaDH_free                  000000014003aa50 f   yassl:ssl.obj
 0001:00039a80       ??1?$auto_ptr@Vx509@yaSSL@@@mySTL@@QEAA@XZ 000000014003aa80 f i yassl:ssl.obj
 0001:00039a90       ?CleanNew@?$Block@EV?$AllocatorWithCleanup@E@TaoCrypt@@@TaoCrypt@@QEAAXI@Z 000000014003aa90 f i yassl:ssl.obj
 0001:00039ae0       ?Destroy@?$auto_ptr@UBIGNUM@yaSSL@@@mySTL@@AEAAXXZ 000000014003aae0 f i yassl:ssl.obj
 0001:00039af0       ??$ysDelete@VSSL@yaSSL@@@yaSSL@@YAXPEAVSSL@0@@Z 000000014003aaf0 f i yassl:ssl.obj
 0001:00039b90       yaSSL_free                 000000014003ab90 f   yassl:ssl.obj
 0001:00039ba0       ??0?$Block@EV?$AllocatorWithCleanup@E@TaoCrypt@@@TaoCrypt@@QEAA@I@Z 000000014003aba0 f i yassl:ssl.obj
 0001:00039c10       ??1?$auto_ptr@UBIGNUM@yaSSL@@@mySTL@@QEAA@XZ 000000014003ac10 f i yassl:ssl.obj
 0001:00039c20       ?reset@?$auto_ptr@UBIGNUM@yaSSL@@@mySTL@@QEAAXPEAUBIGNUM@yaSSL@@@Z 000000014003ac20 f i yassl:ssl.obj
 0001:00039c50       ??0HexDecoder@TaoCrypt@@QEAA@AEAVSource@1@@Z 000000014003ac50 f i yassl:ssl.obj
 0001:00039cb0       ?read_file@yaSSL@@YAHPEAVSSL_CTX@1@PEBDHW4CertType@1@@Z 000000014003acb0 f   yassl:ssl.obj
 0001:0003a280       yaSSL_CTX_use_certificate_file 000000014003b280 f   yassl:ssl.obj
 0001:0003a290       yaSSL_CTX_use_PrivateKey_file 000000014003b290 f   yassl:ssl.obj
 0001:0003a2a0       yaSSL_CTX_load_verify_locations 000000014003b2a0 f   yassl:ssl.obj
 0001:0003a400       yaBN_bin2bn                000000014003b400 f   yassl:ssl.obj
 0001:0003a4a0       ??0Ciphers@yaSSL@@QEAA@XZ  000000014003b4a0 f i yassl:yassl_int.obj
 0001:0003a4c0       ??0DH_Parms@yaSSL@@QEAA@XZ 000000014003b4c0 f i yassl:yassl_int.obj
 0001:0003a4f0       ??0Stats@yaSSL@@QEAA@XZ    000000014003b4f0 f i yassl:yassl_int.obj
 0001:0003a530       ?c32to24@yaSSL@@YAXIAEAY02E@Z 000000014003b530 f   yassl:yassl_int.obj
 0001:0003a550       ?c24to32@yaSSL@@YAXQEBEAEAI@Z 000000014003b550 f   yassl:yassl_int.obj
 0001:0003a580       ?c24to32@yaSSL@@YAIQEBE@Z  000000014003b580 f   yassl:yassl_int.obj
 0001:0003a5a0       ?ato16@yaSSL@@YAXPEBEAEAG@Z 000000014003b5a0 f   yassl:yassl_int.obj
 0001:0003a5c0       ?ato24@yaSSL@@YAXPEBEAEAY02E@Z 000000014003b5c0 f   yassl:yassl_int.obj
 0001:0003a5e0       ?c16toa@yaSSL@@YAXGPEAE@Z  000000014003b5e0 f   yassl:yassl_int.obj
 0001:0003a5f0       ?c24toa@yaSSL@@YAXQEBEPEAE@Z 000000014003b5f0 f   yassl:yassl_int.obj
 0001:0003a610       ?c32toa@yaSSL@@YAXIPEAE@Z  000000014003b610 f   yassl:yassl_int.obj
 0001:0003a630       ??0States@yaSSL@@QEAA@XZ   000000014003b630 f   yassl:yassl_int.obj
 0001:0003a660       ?getRecord@States@yaSSL@@QEBAAEBW4RecordLayerState@2@XZ 000000014003b660 f   yassl:yassl_int.obj
 0001:0003a670       ?getHandShake@States@yaSSL@@QEBAAEBW4HandShakeState@2@XZ 000000014003b670 f   yassl:yassl_int.obj
 0001:0003a680       ?getClient@States@yaSSL@@QEBAAEBW4ClientState@2@XZ 000000014003b680 f   yassl:yassl_int.obj
 0001:0003a690       ?getServer@States@yaSSL@@QEBAAEBW4ServerState@2@XZ 000000014003b690 f   yassl:yassl_int.obj
 0001:0003a6a0       ?GetConnect@States@yaSSL@@QEBAAEBW4ConnectState@2@XZ 000000014003b6a0 f   yassl:yassl_int.obj
 0001:0003a6b0       ?GetAccept@States@yaSSL@@QEBAAEBW4AcceptState@2@XZ 000000014003b6b0 f   yassl:yassl_int.obj
 0001:0003a6c0       ?getString@States@yaSSL@@QEBAPEBDXZ 000000014003b6c0 f   yassl:yassl_int.obj
 0001:0003a6d0       ?What@States@yaSSL@@QEBA?AW4YasslError@2@XZ 000000014003b6d0 f   yassl:yassl_int.obj
 0001:0003a6e0       ?useRecord@States@yaSSL@@QEAAAEAW4RecordLayerState@2@XZ 000000014003b6e0 f   yassl:yassl_int.obj
 0001:0003a6f0       ?useHandShake@States@yaSSL@@QEAAAEAW4HandShakeState@2@XZ 000000014003b6f0 f   yassl:yassl_int.obj
 0001:0003a700       ?useClient@States@yaSSL@@QEAAAEAW4ClientState@2@XZ 000000014003b700 f   yassl:yassl_int.obj
 0001:0003a710       ?useServer@States@yaSSL@@QEAAAEAW4ServerState@2@XZ 000000014003b710 f   yassl:yassl_int.obj
 0001:0003a720       ?UseConnect@States@yaSSL@@QEAAAEAW4ConnectState@2@XZ 000000014003b720 f   yassl:yassl_int.obj
 0001:0003a730       ?UseAccept@States@yaSSL@@QEAAAEAW4AcceptState@2@XZ 000000014003b730 f   yassl:yassl_int.obj
 0001:0003a740       ?useString@States@yaSSL@@QEAAPEADXZ 000000014003b740 f   yassl:yassl_int.obj
 0001:0003a750       ?SetError@States@yaSSL@@QEAAXW4YasslError@2@@Z 000000014003b750 f   yassl:yassl_int.obj
 0001:0003a760       ?getMessage@sslFactory@yaSSL@@QEBAAEBV?$Factory@UMessage@yaSSL@@HP6APEAU12@XZ@2@XZ 000000014003b760 f   yassl:yassl_int.obj
 0001:0003a770       ?getHandShake@sslFactory@yaSSL@@QEBAAEBV?$Factory@VHandShakeBase@yaSSL@@HP6APEAV12@XZ@2@XZ 000000014003b770 f   yassl:yassl_int.obj
 0001:0003a780       ?getServerKey@sslFactory@yaSSL@@QEBAAEBV?$Factory@UServerKeyBase@yaSSL@@HP6APEAU12@XZ@2@XZ 000000014003b780 f   yassl:yassl_int.obj
 0001:0003a790       ?getClientKey@sslFactory@yaSSL@@QEBAAEBV?$Factory@UClientKeyBase@yaSSL@@HP6APEAU12@XZ@2@XZ 000000014003b790 f   yassl:yassl_int.obj
 0001:0003a7a0       ?SetCompression@SSL@yaSSL@@QEAAHXZ 000000014003b7a0 f   yassl:yassl_int.obj
 0001:0003a7b0       ?SetError@SSL@yaSSL@@QEAAXW4YasslError@2@@Z 000000014003b7b0 f   yassl:yassl_int.obj
 0001:0003a7c0       ?SetQuietShutdown@SSL@yaSSL@@QEAAX_N@Z 000000014003b7c0 f   yassl:yassl_int.obj
 0001:0003a7d0       ?useBuffers@SSL@yaSSL@@QEAAAEAVBuffers@2@XZ 000000014003b7d0 f   yassl:yassl_int.obj
 0001:0003a8a0       ?order_error@SSL@yaSSL@@QEAAXXZ 000000014003b8a0 f   yassl:yassl_int.obj
 0001:0003a8b0       ??0SumData@yassl_int_cpp_local1@yaSSL@@QEAA@XZ 000000014003b8b0 f i yassl:yassl_int.obj
 0001:0003a8c0       ??RSumData@yassl_int_cpp_local1@yaSSL@@QEAAXPEAVinput_buffer@2@@Z 000000014003b8c0 f i yassl:yassl_int.obj
 0001:0003a8e0       ??0SumBuffer@yassl_int_cpp_local1@yaSSL@@QEAA@XZ 000000014003b8e0 f i yassl:yassl_int.obj
 0001:0003a8f0       ??RSumBuffer@yassl_int_cpp_local1@yaSSL@@QEAAXPEAVoutput_buffer@2@@Z 000000014003b8f0 f i yassl:yassl_int.obj
 0001:0003a910       ?Send@SSL@yaSSL@@QEAAXPEBEI@Z 000000014003b910 f   yassl:yassl_int.obj
 0001:0003a950       ?getCrypto@SSL@yaSSL@@QEBAAEBVCrypto@2@XZ 000000014003b950 f   yassl:yassl_int.obj
 0001:0003a960       ?getSecurity@SSL@yaSSL@@QEBAAEBVSecurity@2@XZ 000000014003b960 f   yassl:yassl_int.obj
 0001:0003a970       ?getStates@SSL@yaSSL@@QEBAAEBVStates@2@XZ 000000014003b970 f   yassl:yassl_int.obj
 0001:0003a980       ?getHashes@SSL@yaSSL@@QEBAAEBVsslHashes@2@XZ 000000014003b980 f   yassl:yassl_int.obj
 0001:0003a990       ?getSocket@SSL@yaSSL@@QEBAAEBVSocket@2@XZ 000000014003b990 f   yassl:yassl_int.obj
 0001:0003a9a0       ?GetError@SSL@yaSSL@@QEBA?AW4YasslError@2@XZ 000000014003b9a0 f   yassl:yassl_int.obj
 0001:0003a9b0       ?GetQuietShutdown@SSL@yaSSL@@QEBA_NXZ 000000014003b9b0 f   yassl:yassl_int.obj
 0001:0003a9c0       ?useCrypto@SSL@yaSSL@@QEAAAEAVCrypto@2@XZ 000000014003b9c0 f   yassl:yassl_int.obj
 0001:0003a9d0       ?useSecurity@SSL@yaSSL@@QEAAAEAVSecurity@2@XZ 000000014003b9d0 f   yassl:yassl_int.obj
 0001:0003a9e0       ?useStates@SSL@yaSSL@@QEAAAEAVStates@2@XZ 000000014003b9e0 f   yassl:yassl_int.obj
 0001:0003a9f0       ?useHashes@SSL@yaSSL@@QEAAAEAVsslHashes@2@XZ 000000014003b9f0 f   yassl:yassl_int.obj
 0001:0003aa00       ?useSocket@SSL@yaSSL@@QEAAAEAVSocket@2@XZ 000000014003ba00 f   yassl:yassl_int.obj
 0001:0003aa10       ?useLog@SSL@yaSSL@@QEAAAEAVLog@2@XZ 000000014003ba10 f   yassl:yassl_int.obj
 0001:0003aa20       ?HasData@SSL@yaSSL@@QEBA_NXZ 000000014003ba20 f   yassl:yassl_int.obj
 0001:0003aa30       ??0SSL_SESSION@yaSSL@@QEAA@AEAVRandomPool@1@@Z 000000014003ba30 f   yassl:yassl_int.obj
 0001:0003aa70       ?GetID@SSL_SESSION@yaSSL@@QEBAPEBEXZ 000000014003ba70 f   yassl:yassl_int.obj
 0001:0003aa80       ?GetSecret@SSL_SESSION@yaSSL@@QEBAPEBEXZ 000000014003ba80 f   yassl:yassl_int.obj
 0001:0003aa90       ?GetSuite@SSL_SESSION@yaSSL@@QEBAPEBEXZ 000000014003ba90 f   yassl:yassl_int.obj
 0001:0003aaa0       ?GetPeerX509@SSL_SESSION@yaSSL@@QEBAPEAVX509@2@XZ 000000014003baa0 f   yassl:yassl_int.obj
 0001:0003aab0       ?GetBornOn@SSL_SESSION@yaSSL@@QEBAIXZ 000000014003bab0 f   yassl:yassl_int.obj
 0001:0003aac0       ?GetTimeOut@SSL_SESSION@yaSSL@@QEBAIXZ 000000014003bac0 f   yassl:yassl_int.obj
 0001:0003aad0       ?SetTimeOut@SSL_SESSION@yaSSL@@QEAAXI@Z 000000014003bad0 f   yassl:yassl_int.obj
 0001:0003aae0       ??0sess_match@yassl_int_cpp_local2@yaSSL@@QEAA@PEBE@Z 000000014003bae0 f i yassl:yassl_int.obj
 0001:0003aaf0       ??Rsess_match@yassl_int_cpp_local2@yaSSL@@QEAA_NPEAVSSL_SESSION@2@@Z 000000014003baf0 f i yassl:yassl_int.obj
 0001:0003ab20       ?GetSelf@yassl_int_cpp_local2@yaSSL@@YAKXZ 000000014003bb20 f   yassl:yassl_int.obj
 0001:0003ab30       ??0thr_match@yassl_int_cpp_local2@yaSSL@@QEAA@XZ 000000014003bb30 f i yassl:yassl_int.obj
 0001:0003ab50       ??Rthr_match@yassl_int_cpp_local2@yaSSL@@QEAA_NUThreadError@2@@Z 000000014003bb50 f i yassl:yassl_int.obj
 0001:0003ab60       ??0SSL_METHOD@yaSSL@@QEAA@W4ConnectionEnd@1@UProtocolVersion@1@_N@Z 000000014003bb60 f   yassl:yassl_int.obj
 0001:0003ab80       ?getVersion@SSL_METHOD@yaSSL@@QEBA?AUProtocolVersion@2@XZ 000000014003bb80 f   yassl:yassl_int.obj
 0001:0003ab90       ?getSide@SSL_METHOD@yaSSL@@QEBA?AW4ConnectionEnd@2@XZ 000000014003bb90 f   yassl:yassl_int.obj
 0001:0003aba0       ?setVerifyPeer@SSL_METHOD@yaSSL@@QEAAXXZ 000000014003bba0 f   yassl:yassl_int.obj
 0001:0003abb0       ?setVerifyNone@SSL_METHOD@yaSSL@@QEAAXXZ 000000014003bbb0 f   yassl:yassl_int.obj
 0001:0003abc0       ?setFailNoCert@SSL_METHOD@yaSSL@@QEAAXXZ 000000014003bbc0 f   yassl:yassl_int.obj
 0001:0003abd0       ?verifyPeer@SSL_METHOD@yaSSL@@QEBA_NXZ 000000014003bbd0 f   yassl:yassl_int.obj
 0001:0003abe0       ?verifyNone@SSL_METHOD@yaSSL@@QEBA_NXZ 000000014003bbe0 f   yassl:yassl_int.obj
 0001:0003abf0       ?failNoCert@SSL_METHOD@yaSSL@@QEBA_NXZ 000000014003bbf0 f   yassl:yassl_int.obj
 0001:0003ac00       ?multipleProtocol@SSL_METHOD@yaSSL@@QEBA_NXZ 000000014003bc00 f   yassl:yassl_int.obj
 0001:0003ac10       ??1DH_Parms@yaSSL@@QEAA@XZ 000000014003bc10 f i yassl:yassl_int.obj
 0001:0003ac30       ?GetCA_List@SSL_CTX@yaSSL@@QEBAAEBV?$list@PEAVx509@yaSSL@@@mySTL@@XZ 000000014003bc30 f   yassl:yassl_int.obj
 0001:0003ac40       ?getVerifyCallback@SSL_CTX@yaSSL@@QEBAP6AHHPEAUX509_STORE_CTX@2@@ZXZ 000000014003bc40 f   yassl:yassl_int.obj
 0001:0003ac50       ?getCert@SSL_CTX@yaSSL@@QEBAPEBVx509@2@XZ 000000014003bc50 f   yassl:yassl_int.obj
 0001:0003ac60       ?getKey@SSL_CTX@yaSSL@@QEBAPEBVx509@2@XZ 000000014003bc60 f   yassl:yassl_int.obj
 0001:0003ac70       ?getMethod@SSL_CTX@yaSSL@@QEBAPEBVSSL_METHOD@2@XZ 000000014003bc70 f   yassl:yassl_int.obj
 0001:0003ac80       ?GetCiphers@SSL_CTX@yaSSL@@QEBAAEBUCiphers@2@XZ 000000014003bc80 f   yassl:yassl_int.obj
 0001:0003ac90       ?GetDH_Parms@SSL_CTX@yaSSL@@QEBAAEBUDH_Parms@2@XZ 000000014003bc90 f   yassl:yassl_int.obj
 0001:0003aca0       ?GetStats@SSL_CTX@yaSSL@@QEBAAEBUStats@2@XZ 000000014003bca0 f   yassl:yassl_int.obj
 0001:0003acb0       ?GetPasswordCb@SSL_CTX@yaSSL@@QEBAP6AHPEADHHPEAX@ZXZ 000000014003bcb0 f   yassl:yassl_int.obj
 0001:0003acc0       ?SetPasswordCb@SSL_CTX@yaSSL@@QEAAXP6AHPEADHHPEAX@Z@Z 000000014003bcc0 f   yassl:yassl_int.obj
 0001:0003acd0       ?GetUserData@SSL_CTX@yaSSL@@QEBAPEAXXZ 000000014003bcd0 f   yassl:yassl_int.obj
 0001:0003ace0       ?GetSessionCacheOff@SSL_CTX@yaSSL@@QEBA_NXZ 000000014003bce0 f   yassl:yassl_int.obj
 0001:0003acf0       ?GetSessionCacheFlushOff@SSL_CTX@yaSSL@@QEBA_NXZ 000000014003bcf0 f   yassl:yassl_int.obj
 0001:0003ad00       ?SetUserData@SSL_CTX@yaSSL@@QEAAXPEAX@Z 000000014003bd00 f   yassl:yassl_int.obj
 0001:0003ad10       ?SetSessionCacheOff@SSL_CTX@yaSSL@@QEAAXXZ 000000014003bd10 f   yassl:yassl_int.obj
 0001:0003ad20       ?SetSessionCacheFlushOff@SSL_CTX@yaSSL@@QEAAXXZ 000000014003bd20 f   yassl:yassl_int.obj
 0001:0003ad30       ?setVerifyPeer@SSL_CTX@yaSSL@@QEAAXXZ 000000014003bd30 f   yassl:yassl_int.obj
 0001:0003ad40       ?setVerifyNone@SSL_CTX@yaSSL@@QEAAXXZ 000000014003bd40 f   yassl:yassl_int.obj
 0001:0003ad50       ?setFailNoCert@SSL_CTX@yaSSL@@QEAAXXZ 000000014003bd50 f   yassl:yassl_int.obj
 0001:0003ad60       ?setVerifyCallback@SSL_CTX@yaSSL@@QEAAXP6AHHPEAUX509_STORE_CTX@2@@Z@Z 000000014003bd60 f   yassl:yassl_int.obj
 0001:0003ad70       ?SetDH@SSL_CTX@yaSSL@@QEAA_NAEBUDH@2@@Z 000000014003bd70 f   yassl:yassl_int.obj
 0001:0003adc0       ?SetCipherList@SSL_CTX@yaSSL@@QEAA_NPEBD@Z 000000014003bdc0 f   yassl:yassl_int.obj
 0001:0003af50       ?IncrementStats@SSL_CTX@yaSSL@@QEAAXW4StatsField@2@@Z 000000014003bf50 f   yassl:yassl_int.obj
 0001:0003b070       ??0Crypto@yaSSL@@QEAA@XZ   000000014003c070 f   yassl:yassl_int.obj
 0001:0003b0b0       ?get_digest@Crypto@yaSSL@@QEBAAEBUDigest@2@XZ 000000014003c0b0 f   yassl:yassl_int.obj
 0001:0003b0c0       ?get_cipher@Crypto@yaSSL@@QEBAAEBUBulkCipher@2@XZ 000000014003c0c0 f   yassl:yassl_int.obj
 0001:0003b0d0       ?get_dh@Crypto@yaSSL@@QEBAAEBVDiffieHellman@2@XZ 000000014003c0d0 f   yassl:yassl_int.obj
 0001:0003b0e0       ?get_random@Crypto@yaSSL@@QEBAAEBVRandomPool@2@XZ 000000014003c0e0 f   yassl:yassl_int.obj
 0001:0003b0f0       ?get_certManager@Crypto@yaSSL@@QEBAAEBVCertManager@2@XZ 000000014003c0f0 f   yassl:yassl_int.obj
 0001:0003b100       ?use_digest@Crypto@yaSSL@@QEAAAEAUDigest@2@XZ 000000014003c100 f   yassl:yassl_int.obj
 0001:0003b110       ?use_cipher@Crypto@yaSSL@@QEAAAEAUBulkCipher@2@XZ 000000014003c110 f   yassl:yassl_int.obj
 0001:0003b120       ?use_dh@Crypto@yaSSL@@QEAAAEAVDiffieHellman@2@XZ 000000014003c120 f   yassl:yassl_int.obj
 0001:0003b130       ?use_random@Crypto@yaSSL@@QEAAAEAVRandomPool@2@XZ 000000014003c130 f   yassl:yassl_int.obj
 0001:0003b140       ?use_certManager@Crypto@yaSSL@@QEAAAEAVCertManager@2@XZ 000000014003c140 f   yassl:yassl_int.obj
 0001:0003b150       ?SetDH@Crypto@yaSSL@@QEAAXPEAVDiffieHellman@2@@Z 000000014003c150 f   yassl:yassl_int.obj
 0001:0003b160       ?SetDH@Crypto@yaSSL@@QEAAXAEBUDH_Parms@2@@Z 000000014003c160 f   yassl:yassl_int.obj
 0001:0003b1c0       ?DhSet@Crypto@yaSSL@@QEAA_NXZ 000000014003c1c0 f   yassl:yassl_int.obj
 0001:0003b1d0       ?setDigest@Crypto@yaSSL@@QEAAXPEAUDigest@2@@Z 000000014003c1d0 f   yassl:yassl_int.obj
 0001:0003b1e0       ?setCipher@Crypto@yaSSL@@QEAAXPEAUBulkCipher@2@@Z 000000014003c1e0 f   yassl:yassl_int.obj
 0001:0003b1f0       ?get_MD5@sslHashes@yaSSL@@QEBAAEBVMD5@2@XZ 000000014003c1f0 f   yassl:yassl_int.obj
 0001:0003b200       ?get_SHA@sslHashes@yaSSL@@QEBAAEBVSHA@2@XZ 000000014003c200 f   yassl:yassl_int.obj
 0001:0003b210       ?get_verify@sslHashes@yaSSL@@QEBAAEBVFinished@2@XZ 000000014003c210 f   yassl:yassl_int.obj
 0001:0003b220       ?get_certVerify@sslHashes@yaSSL@@QEBAAEBUHashes@2@XZ 000000014003c220 f   yassl:yassl_int.obj
 0001:0003b230       ?use_MD5@sslHashes@yaSSL@@QEAAAEAVMD5@2@XZ 000000014003c230 f   yassl:yassl_int.obj
 0001:0003b240       ?use_SHA@sslHashes@yaSSL@@QEAAAEAVSHA@2@XZ 000000014003c240 f   yassl:yassl_int.obj
 0001:0003b250       ?use_verify@sslHashes@yaSSL@@QEAAAEAVFinished@2@XZ 000000014003c250 f   yassl:yassl_int.obj
 0001:0003b260       ?use_certVerify@sslHashes@yaSSL@@QEAAAEAUHashes@2@XZ 000000014003c260 f   yassl:yassl_int.obj
 0001:0003b270       ?SetRawInput@Buffers@yaSSL@@QEAAXPEAVinput_buffer@2@@Z 000000014003c270 f   yassl:yassl_int.obj
 0001:0003b280       ?TakeRawInput@Buffers@yaSSL@@QEAAPEAVinput_buffer@2@XZ 000000014003c280 f   yassl:yassl_int.obj
 0001:0003b290       ?getData@Buffers@yaSSL@@QEBAAEBV?$list@PEAVinput_buffer@yaSSL@@@mySTL@@XZ 000000014003c290 f   yassl:yassl_int.obj
 0001:0003b2a0       ?getHandShake@Buffers@yaSSL@@QEBAAEBV?$list@PEAVoutput_buffer@yaSSL@@@mySTL@@XZ 000000014003c2a0 f   yassl:yassl_int.obj
 0001:0003b2b0       ?useData@Buffers@yaSSL@@QEAAAEAV?$list@PEAVinput_buffer@yaSSL@@@mySTL@@XZ 000000014003c2b0 f   yassl:yassl_int.obj
 0001:0003b2c0       ?useHandShake@Buffers@yaSSL@@QEAAAEAV?$list@PEAVoutput_buffer@yaSSL@@@mySTL@@XZ 000000014003c2c0 f   yassl:yassl_int.obj
 0001:0003b2d0       ?get_connection@Security@yaSSL@@QEBAAEBUConnection@2@XZ 000000014003c2d0 f   yassl:yassl_int.obj
 0001:0003b2e0       ?GetContext@Security@yaSSL@@QEBAPEBVSSL_CTX@2@XZ 000000014003c2e0 f   yassl:yassl_int.obj
 0001:0003b2f0       ?get_parms@Security@yaSSL@@QEBAAEBUParameters@2@XZ 000000014003c2f0 f   yassl:yassl_int.obj
 0001:0003b300       ?get_resume@Security@yaSSL@@QEBAAEBVSSL_SESSION@2@XZ 000000014003c300 f   yassl:yassl_int.obj
 0001:0003b310       ?get_resuming@Security@yaSSL@@QEBA_NXZ 000000014003c310 f   yassl:yassl_int.obj
 0001:0003b320       ?use_connection@Security@yaSSL@@QEAAAEAUConnection@2@XZ 000000014003c320 f   yassl:yassl_int.obj
 0001:0003b330       ?use_parms@Security@yaSSL@@QEAAAEAUParameters@2@XZ 000000014003c330 f   yassl:yassl_int.obj
 0001:0003b340       ?use_resume@Security@yaSSL@@QEAAAEAVSSL_SESSION@2@XZ 000000014003c340 f   yassl:yassl_int.obj
 0001:0003b350       ?set_resuming@Security@yaSSL@@QEAAX_N@Z 000000014003c350 f   yassl:yassl_int.obj
 0001:0003b360       ??0X509_NAME@yaSSL@@QEAA@PEBD_K@Z 000000014003c360 f   yassl:yassl_int.obj
 0001:0003b3e0       ?GetName@X509_NAME@yaSSL@@QEBAPEBDXZ 000000014003c3e0 f   yassl:yassl_int.obj
 0001:0003b3f0       ?GetLength@X509_NAME@yaSSL@@QEBA_KXZ 000000014003c3f0 f   yassl:yassl_int.obj
 0001:0003b400       ?GetIssuer@X509@yaSSL@@QEAAPEAVX509_NAME@2@XZ 000000014003c400 f   yassl:yassl_int.obj
 0001:0003b410       ?GetSubject@X509@yaSSL@@QEAAPEAVX509_NAME@2@XZ 000000014003c410 f   yassl:yassl_int.obj
 0001:0003b420       ??0StringHolder@yaSSL@@QEAA@PEBDH@Z 000000014003c420 f   yassl:yassl_int.obj
 0001:0003b480       ?GetString@StringHolder@yaSSL@@QEAAPEAUASN1_STRING@2@XZ 000000014003c480 f   yassl:yassl_int.obj
 0001:0003b490       ?Compress@yaSSL@@YAHPEBEHAEAVinput_buffer@1@@Z 000000014003c490 f   yassl:yassl_int.obj
 0001:0003b4a0       ?DeCompress@yaSSL@@YAHAEAVinput_buffer@1@H0@Z 000000014003c4a0 f   yassl:yassl_int.obj
 0001:0003b4b0       ??0?$list@PEAVx509@yaSSL@@@mySTL@@QEAA@XZ 000000014003c4b0 f i yassl:yassl_int.obj
 0001:0003b4d0       ??0?$list@PEAVSSL_SESSION@yaSSL@@@mySTL@@QEAA@XZ 000000014003c4d0 f i yassl:yassl_int.obj
 0001:0003b4f0       ??0?$list@UThreadError@yaSSL@@@mySTL@@QEAA@XZ 000000014003c4f0 f i yassl:yassl_int.obj
 0001:0003b510       ??0?$list@PEAVinput_buffer@yaSSL@@@mySTL@@QEAA@XZ 000000014003c510 f i yassl:yassl_int.obj
 0001:0003b530       ?size@?$list@PEAVinput_buffer@yaSSL@@@mySTL@@QEBA_KXZ 000000014003c530 f i yassl:yassl_int.obj
 0001:0003b540       ??0?$list@PEAVoutput_buffer@yaSSL@@@mySTL@@QEAA@XZ 000000014003c540 f i yassl:yassl_int.obj
 0001:0003b560       ?size@?$list@PEAVoutput_buffer@yaSSL@@@mySTL@@QEBA_KXZ 000000014003c560 f i yassl:yassl_int.obj
 0001:0003b570       ??Diterator@?$list@PEAVx509@yaSSL@@@mySTL@@QEBAAEAPEAVx509@yaSSL@@XZ 000000014003c570 f i yassl:yassl_int.obj
 0001:0003b580       ??Eiterator@?$list@PEAVx509@yaSSL@@@mySTL@@QEAAAEAV012@XZ 000000014003c580 f i yassl:yassl_int.obj
 0001:0003b590       ??9iterator@?$list@PEAVx509@yaSSL@@@mySTL@@QEBA_NAEBV012@@Z 000000014003c590 f i yassl:yassl_int.obj
 0001:0003b5a0       ??Diterator@?$list@PEAVinput_buffer@yaSSL@@@mySTL@@QEBAAEAPEAVinput_buffer@yaSSL@@XZ 000000014003c5a0 f i yassl:yassl_int.obj
 0001:0003b5b0       ??Eiterator@?$list@PEAVinput_buffer@yaSSL@@@mySTL@@QEAA?AV012@H@Z 000000014003c5b0 f i yassl:yassl_int.obj
 0001:0003b5d0       ??Diterator@?$list@PEAVSSL_SESSION@yaSSL@@@mySTL@@QEBAAEAPEAVSSL_SESSION@yaSSL@@XZ 000000014003c5d0 f i yassl:yassl_int.obj
 0001:0003b5e0       ??Eiterator@?$list@PEAVSSL_SESSION@yaSSL@@@mySTL@@QEAAAEAV012@XZ 000000014003c5e0 f i yassl:yassl_int.obj
 0001:0003b5f0       ??9iterator@?$list@PEAVSSL_SESSION@yaSSL@@@mySTL@@QEBA_NAEBV012@@Z 000000014003c5f0 f i yassl:yassl_int.obj
 0001:0003b600       ??9iterator@?$list@UThreadError@yaSSL@@@mySTL@@QEBA_NAEBV012@@Z 000000014003c600 f i yassl:yassl_int.obj
 0001:0003b610       ??0iterator@?$list@PEAVx509@yaSSL@@@mySTL@@QEAA@PEAUnode@12@@Z 000000014003c610 f i yassl:yassl_int.obj
 0001:0003b620       ??0iterator@?$list@PEAVinput_buffer@yaSSL@@@mySTL@@QEAA@PEAUnode@12@@Z 000000014003c620 f i yassl:yassl_int.obj
 0001:0003b630       ??0iterator@?$list@PEAVoutput_buffer@yaSSL@@@mySTL@@QEAA@PEAUnode@12@@Z 000000014003c630 f i yassl:yassl_int.obj
 0001:0003b640       ??0iterator@?$list@PEAVSSL_SESSION@yaSSL@@@mySTL@@QEAA@PEAUnode@12@@Z 000000014003c640 f i yassl:yassl_int.obj
 0001:0003b650       ??0iterator@?$list@UThreadError@yaSSL@@@mySTL@@QEAA@PEAUnode@12@@Z 000000014003c650 f i yassl:yassl_int.obj
 0001:0003b660       ??Diterator@?$list@UThreadError@yaSSL@@@mySTL@@QEBAAEAUThreadError@yaSSL@@XZ 000000014003c660 f i yassl:yassl_int.obj
 0001:0003b670       ??0?$vector_base@U?$pair@HP6APEAUMessage@yaSSL@@XZ@mySTL@@@mySTL@@QEAA@XZ 000000014003c670 f i yassl:yassl_int.obj
 0001:0003b690       ??0?$vector_base@U?$pair@HP6APEAVHandShakeBase@yaSSL@@XZ@mySTL@@@mySTL@@QEAA@XZ 000000014003c690 f i yassl:yassl_int.obj
 0001:0003b6b0       ??0?$vector_base@U?$pair@HP6APEAUServerKeyBase@yaSSL@@XZ@mySTL@@@mySTL@@QEAA@XZ 000000014003c6b0 f i yassl:yassl_int.obj
 0001:0003b6d0       ??0?$vector_base@U?$pair@HP6APEAUClientKeyBase@yaSSL@@XZ@mySTL@@@mySTL@@QEAA@XZ 000000014003c6d0 f i yassl:yassl_int.obj
 0001:0003b6f0       ??$GetArrayMemory@E@mySTL@@YAPEAE_K@Z 000000014003c6f0 f i yassl:yassl_int.obj
 0001:0003b700       ?front@?$list@PEAVinput_buffer@yaSSL@@@mySTL@@QEBAPEAVinput_buffer@yaSSL@@XZ 000000014003c700 f i yassl:yassl_int.obj
 0001:0003b710       ?front@?$list@PEAVoutput_buffer@yaSSL@@@mySTL@@QEBAPEAVoutput_buffer@yaSSL@@XZ 000000014003c710 f i yassl:yassl_int.obj
 0001:0003b720       ??$find_if@Viterator@?$list@PEAVSSL_SESSION@yaSSL@@@mySTL@@Usess_match@yassl_int_cpp_local2@yaSSL@@@mySTL@@YA?AViterator@?$list@PEAVSSL_SESSION@yaSSL@@@0@V120@0Usess_match@yassl_int_cpp_local2@yaSSL@@@Z 000000014003c720 f i yassl:yassl_int.obj
 0001:0003b790       ??$ysDelete@VSSL_METHOD@yaSSL@@@yaSSL@@YAXPEAVSSL_METHOD@0@@Z 000000014003c790 f i yassl:yassl_int.obj
 0001:0003b7a0       ??$ysDelete@UDigest@yaSSL@@@yaSSL@@YAXPEAUDigest@0@@Z 000000014003c7a0 f i yassl:yassl_int.obj
 0001:0003b7c0       ??$ysArrayDelete@D@yaSSL@@YAXPEAD@Z 000000014003c7c0 f i yassl:yassl_int.obj
 0001:0003b7d0       ??$ysArrayDelete@E@yaSSL@@YAXPEAE@Z 000000014003c7d0 f i yassl:yassl_int.obj
 0001:0003b7e0       ??$FreeArrayMemory@U?$pair@HP6APEAUMessage@yaSSL@@XZ@mySTL@@@mySTL@@YAXPEAU?$pair@HP6APEAUMessage@yaSSL@@XZ@0@@Z 000000014003c7e0 f i yassl:yassl_int.obj
 0001:0003b7f0       ??$FreeArrayMemory@U?$pair@HP6APEAVHandShakeBase@yaSSL@@XZ@mySTL@@@mySTL@@YAXPEAU?$pair@HP6APEAVHandShakeBase@yaSSL@@XZ@0@@Z 000000014003c7f0 f i yassl:yassl_int.obj
 0001:0003b800       ??$FreeArrayMemory@U?$pair@HP6APEAUServerKeyBase@yaSSL@@XZ@mySTL@@@mySTL@@YAXPEAU?$pair@HP6APEAUServerKeyBase@yaSSL@@XZ@0@@Z 000000014003c800 f i yassl:yassl_int.obj
 0001:0003b810       ??$FreeArrayMemory@U?$pair@HP6APEAUClientKeyBase@yaSSL@@XZ@mySTL@@@mySTL@@YAXPEAU?$pair@HP6APEAUClientKeyBase@yaSSL@@XZ@0@@Z 000000014003c810 f i yassl:yassl_int.obj
 0001:0003b820       ??_Ginput_buffer@yaSSL@@QEAAPEAXI@Z 000000014003c820 f i yassl:yassl_int.obj
 0001:0003b850       ??_Goutput_buffer@yaSSL@@QEAAPEAXI@Z 000000014003c850 f i yassl:yassl_int.obj
 0001:0003b880       ??_GDiffieHellman@yaSSL@@QEAAPEAXI@Z 000000014003c880 f i yassl:yassl_int.obj
 0001:0003b8b0       ??Eiterator@?$list@PEAVinput_buffer@yaSSL@@@mySTL@@QEAAAEAV012@XZ 000000014003c8b0 f i yassl:yassl_int.obj
 0001:0003b8c0       ??9iterator@?$list@PEAVinput_buffer@yaSSL@@@mySTL@@QEBA_NAEBV012@@Z 000000014003c8c0 f i yassl:yassl_int.obj
 0001:0003b8d0       ??Diterator@?$list@PEAVoutput_buffer@yaSSL@@@mySTL@@QEBAAEAPEAVoutput_buffer@yaSSL@@XZ 000000014003c8d0 f i yassl:yassl_int.obj
 0001:0003b8e0       ??Eiterator@?$list@PEAVoutput_buffer@yaSSL@@@mySTL@@QEAAAEAV012@XZ 000000014003c8e0 f i yassl:yassl_int.obj
 0001:0003b8f0       ??9iterator@?$list@PEAVoutput_buffer@yaSSL@@@mySTL@@QEBA_NAEBV012@@Z 000000014003c8f0 f i yassl:yassl_int.obj
 0001:0003b900       ??Eiterator@?$list@UThreadError@yaSSL@@@mySTL@@QEAAAEAV012@XZ 000000014003c900 f i yassl:yassl_int.obj
 0001:0003b910       ??0node@?$list@PEAVx509@yaSSL@@@mySTL@@QEAA@PEAVx509@yaSSL@@@Z 000000014003c910 f i yassl:yassl_int.obj
 0001:0003b930       ??0node@?$list@PEAVinput_buffer@yaSSL@@@mySTL@@QEAA@PEAVinput_buffer@yaSSL@@@Z 000000014003c930 f i yassl:yassl_int.obj
 0001:0003b950       ??0node@?$list@PEAVSSL_SESSION@yaSSL@@@mySTL@@QEAA@PEAVSSL_SESSION@yaSSL@@@Z 000000014003c950 f i yassl:yassl_int.obj
 0001:0003b970       ??0node@?$list@UThreadError@yaSSL@@@mySTL@@QEAA@UThreadError@yaSSL@@@Z 000000014003c970 f i yassl:yassl_int.obj
 0001:0003b990       ??0node@?$list@PEAVoutput_buffer@yaSSL@@@mySTL@@QEAA@PEAVoutput_buffer@yaSSL@@@Z 000000014003c990 f i yassl:yassl_int.obj
 0001:0003b9b0       ??$destroy@Unode@?$list@PEAVx509@yaSSL@@@mySTL@@@mySTL@@YAXPEAUnode@?$list@PEAVx509@yaSSL@@@0@@Z 000000014003c9b0 f i yassl:yassl_int.obj
 0001:0003b9c0       ??$destroy@Unode@?$list@PEAVSSL_SESSION@yaSSL@@@mySTL@@@mySTL@@YAXPEAUnode@?$list@PEAVSSL_SESSION@yaSSL@@@0@@Z 000000014003c9c0 f i yassl:yassl_int.obj
 0001:0003b9d0       ??$destroy@Unode@?$list@UThreadError@yaSSL@@@mySTL@@@mySTL@@YAXPEAUnode@?$list@UThreadError@yaSSL@@@0@@Z 000000014003c9d0 f i yassl:yassl_int.obj
 0001:0003b9e0       ??$destroy@Unode@?$list@PEAVinput_buffer@yaSSL@@@mySTL@@@mySTL@@YAXPEAUnode@?$list@PEAVinput_buffer@yaSSL@@@0@@Z 000000014003c9e0 f i yassl:yassl_int.obj
 0001:0003b9f0       ??$destroy@Unode@?$list@PEAVoutput_buffer@yaSSL@@@mySTL@@@mySTL@@YAXPEAUnode@?$list@PEAVoutput_buffer@yaSSL@@@0@@Z 000000014003c9f0 f i yassl:yassl_int.obj
 0001:0003ba00       ??$swap@PEAVSSL_SESSION@yaSSL@@@mySTL@@YAXAEAPEAVSSL_SESSION@yaSSL@@0@Z 000000014003ca00 f i yassl:yassl_int.obj
 0001:0003ba10       ??$destroy@U?$pair@HP6APEAUMessage@yaSSL@@XZ@mySTL@@@mySTL@@YAXPEAU?$pair@HP6APEAUMessage@yaSSL@@XZ@0@@Z 000000014003ca10 f i yassl:yassl_int.obj
 0001:0003ba20       ??$destroy@U?$pair@HP6APEAVHandShakeBase@yaSSL@@XZ@mySTL@@@mySTL@@YAXPEAU?$pair@HP6APEAVHandShakeBase@yaSSL@@XZ@0@@Z 000000014003ca20 f i yassl:yassl_int.obj
 0001:0003ba30       ??$destroy@U?$pair@HP6APEAUServerKeyBase@yaSSL@@XZ@mySTL@@@mySTL@@YAXPEAU?$pair@HP6APEAUServerKeyBase@yaSSL@@XZ@0@@Z 000000014003ca30 f i yassl:yassl_int.obj
 0001:0003ba40       ??$destroy@U?$pair@HP6APEAUClientKeyBase@yaSSL@@XZ@mySTL@@@mySTL@@YAXPEAU?$pair@HP6APEAUClientKeyBase@yaSSL@@XZ@0@@Z 000000014003ca40 f i yassl:yassl_int.obj
 0001:0003ba50       ??$swap@PEAVx509@yaSSL@@@mySTL@@YAXAEAPEAVx509@yaSSL@@0@Z 000000014003ca50 f i yassl:yassl_int.obj
 0001:0003ba60       ??$swap@PEAVoutput_buffer@yaSSL@@@mySTL@@YAXAEAPEAVoutput_buffer@yaSSL@@0@Z 000000014003ca60 f i yassl:yassl_int.obj
 0001:0003ba70       ??$swap@PEAVinput_buffer@yaSSL@@@mySTL@@YAXAEAPEAVinput_buffer@yaSSL@@0@Z 000000014003ca70 f i yassl:yassl_int.obj
 0001:0003ba80       ?GetMemory@mySTL@@YAPEAX_K@Z 000000014003ca80 f i yassl:yassl_int.obj
 0001:0003ba90       ??0sslHashes@yaSSL@@QEAA@XZ 000000014003ca90 f i yassl:yassl_int.obj
 0001:0003bac0       ?set_pending@SSL@yaSSL@@QEAAXE@Z 000000014003cac0 f   yassl:yassl_int.obj
 0001:0003cb80       ?set_random@SSL@yaSSL@@QEAAXPEBEW4ConnectionEnd@2@@Z 000000014003db80 f   yassl:yassl_int.obj
 0001:0003cbe0       ?set_preMaster@SSL@yaSSL@@QEAAXPEBEI@Z 000000014003dbe0 f   yassl:yassl_int.obj
 0001:0003cc30       ?UnSetCompression@SSL@yaSSL@@QEAAXXZ 000000014003dc30 f   yassl:yassl_int.obj
 0001:0003cc50       ?CompressionOn@SSL@yaSSL@@QEBA_NXZ 000000014003dc50 f   yassl:yassl_int.obj
 0001:0003cc70       ?set_masterSecret@SSL@yaSSL@@QEAAXPEBE@Z 000000014003dc70 f   yassl:yassl_int.obj
 0001:0003ccc0       ?set_sessionID@SSL@yaSSL@@QEAAXPEBE@Z 000000014003dcc0 f   yassl:yassl_int.obj
 0001:0003cd10       ?setKeys@SSL@yaSSL@@AEAAXXZ 000000014003dd10 f   yassl:yassl_int.obj
 0001:0003cdc0       ?get_SEQIncrement@SSL@yaSSL@@QEAAI_N@Z 000000014003ddc0 f   yassl:yassl_int.obj
 0001:0003ce00       ?get_macSecret@SSL@yaSSL@@QEAAPEBE_N@Z 000000014003de00 f   yassl:yassl_int.obj
 0001:0003ce50       ?verifyState@SSL@yaSSL@@QEAAXAEBURecordLayerHeader@2@@Z 000000014003de50 f   yassl:yassl_int.obj
 0001:0003ceb0       ?verifyState@SSL@yaSSL@@QEAAXW4ClientState@2@@Z 000000014003deb0 f   yassl:yassl_int.obj
 0001:0003cee0       ?verifyState@SSL@yaSSL@@QEAAXW4ServerState@2@@Z 000000014003dee0 f   yassl:yassl_int.obj
 0001:0003cf10       ?verfiyHandShakeComplete@SSL@yaSSL@@QEAAXXZ 000000014003df10 f   yassl:yassl_int.obj
 0001:0003cf40       ?verifyClientState@SSL@yaSSL@@AEAAXW4HandShakeType@2@@Z 000000014003df40 f   yassl:yassl_int.obj
 0001:0003d040       ?verifyServerState@SSL@yaSSL@@AEAAXW4HandShakeType@2@@Z 000000014003e040 f   yassl:yassl_int.obj
 0001:0003d0d0       ?matchSuite@SSL@yaSSL@@QEAAXPEBEI@Z 000000014003e0d0 f   yassl:yassl_int.obj
 0001:0003d1b0       ?GetMultiProtocol@SSL@yaSSL@@QEBA_NXZ 000000014003e1b0 f   yassl:yassl_int.obj
 0001:0003d1e0       ?isTLS@SSL@yaSSL@@QEBA_NXZ 000000014003e1e0 f   yassl:yassl_int.obj
 0001:0003d200       ?isTLSv1_1@SSL@yaSSL@@QEBA_NXZ 000000014003e200 f   yassl:yassl_int.obj
 0001:0003d220       ??1X509_NAME@yaSSL@@QEAA@XZ 000000014003e220 f   yassl:yassl_int.obj
 0001:0003d240       ?GetBefore@X509@yaSSL@@QEAAPEAUASN1_STRING@2@XZ 000000014003e240 f   yassl:yassl_int.obj
 0001:0003d250       ?GetAfter@X509@yaSSL@@QEAAPEAUASN1_STRING@2@XZ 000000014003e250 f   yassl:yassl_int.obj
 0001:0003d260       ?GetEntry@X509_NAME@yaSSL@@QEAAPEAUASN1_STRING@2@H@Z 000000014003e260 f   yassl:yassl_int.obj
 0001:0003d320       ??1StringHolder@yaSSL@@QEAA@XZ 000000014003e320 f   yassl:yassl_int.obj
 0001:0003d330       ?begin@?$list@PEAVx509@yaSSL@@@mySTL@@QEBA?AViterator@12@XZ 000000014003e330 f i yassl:yassl_int.obj
 0001:0003d340       ?end@?$list@PEAVx509@yaSSL@@@mySTL@@QEBA?AViterator@12@XZ 000000014003e340 f i yassl:yassl_int.obj
 0001:0003d350       ?begin@?$list@PEAVSSL_SESSION@yaSSL@@@mySTL@@QEBA?AViterator@12@XZ 000000014003e350 f i yassl:yassl_int.obj
 0001:0003d360       ?end@?$list@PEAVSSL_SESSION@yaSSL@@@mySTL@@QEBA?AViterator@12@XZ 000000014003e360 f i yassl:yassl_int.obj
 0001:0003d370       ?begin@?$list@UThreadError@yaSSL@@@mySTL@@QEBA?AViterator@12@XZ 000000014003e370 f i yassl:yassl_int.obj
 0001:0003d380       ?end@?$list@UThreadError@yaSSL@@@mySTL@@QEBA?AViterator@12@XZ 000000014003e380 f i yassl:yassl_int.obj
 0001:0003d390       ?begin@?$list@PEAVinput_buffer@yaSSL@@@mySTL@@QEBA?AViterator@12@XZ 000000014003e390 f i yassl:yassl_int.obj
 0001:0003d3a0       ?end@?$list@PEAVinput_buffer@yaSSL@@@mySTL@@QEBA?AViterator@12@XZ 000000014003e3a0 f i yassl:yassl_int.obj
 0001:0003d3b0       ?begin@?$list@PEAVoutput_buffer@yaSSL@@@mySTL@@QEBA?AViterator@12@XZ 000000014003e3b0 f i yassl:yassl_int.obj
 0001:0003d3c0       ?end@?$list@PEAVoutput_buffer@yaSSL@@@mySTL@@QEBA?AViterator@12@XZ 000000014003e3c0 f i yassl:yassl_int.obj
 0001:0003d3d0       ??Citerator@?$list@UThreadError@yaSSL@@@mySTL@@QEBAPEAUThreadError@yaSSL@@XZ 000000014003e3d0 f i yassl:yassl_int.obj
 0001:0003d3e0       ??1?$vector_base@U?$pair@HP6APEAUMessage@yaSSL@@XZ@mySTL@@@mySTL@@QEAA@XZ 000000014003e3e0 f i yassl:yassl_int.obj
 0001:0003d3f0       ??1?$vector_base@U?$pair@HP6APEAVHandShakeBase@yaSSL@@XZ@mySTL@@@mySTL@@QEAA@XZ 000000014003e3f0 f i yassl:yassl_int.obj
 0001:0003d400       ??1?$vector_base@U?$pair@HP6APEAUServerKeyBase@yaSSL@@XZ@mySTL@@@mySTL@@QEAA@XZ 000000014003e400 f i yassl:yassl_int.obj
 0001:0003d410       ??1?$vector_base@U?$pair@HP6APEAUClientKeyBase@yaSSL@@XZ@mySTL@@@mySTL@@QEAA@XZ 000000014003e410 f i yassl:yassl_int.obj
 0001:0003d420       ??$FreeArrayMemory@X@mySTL@@YAXPEAX@Z 000000014003e420 f i yassl:yassl_int.obj
 0001:0003d430       ?push_back@?$list@PEAVx509@yaSSL@@@mySTL@@QEAAXPEAVx509@yaSSL@@@Z 000000014003e430 f i yassl:yassl_int.obj
 0001:0003d4a0       ?push_back@?$list@PEAVSSL_SESSION@yaSSL@@@mySTL@@QEAAXPEAVSSL_SESSION@yaSSL@@@Z 000000014003e4a0 f i yassl:yassl_int.obj
 0001:0003d510       ?push_back@?$list@UThreadError@yaSSL@@@mySTL@@QEAAXUThreadError@yaSSL@@@Z 000000014003e510 f i yassl:yassl_int.obj
 0001:0003d580       ?push_back@?$list@PEAVinput_buffer@yaSSL@@@mySTL@@QEAAXPEAVinput_buffer@yaSSL@@@Z 000000014003e580 f i yassl:yassl_int.obj
 0001:0003d5f0       ?push_back@?$list@PEAVoutput_buffer@yaSSL@@@mySTL@@QEAAXPEAVoutput_buffer@yaSSL@@@Z 000000014003e5f0 f i yassl:yassl_int.obj
 0001:0003d660       ??$for_each@Viterator@?$list@PEAVinput_buffer@yaSSL@@@mySTL@@USumData@yassl_int_cpp_local1@yaSSL@@@mySTL@@YA?AUSumData@yassl_int_cpp_local1@yaSSL@@Viterator@?$list@PEAVinput_buffer@yaSSL@@@0@0U123@@Z 000000014003e660 f i yassl:yassl_int.obj
 0001:0003d6c0       ??$ysDelete@Vinput_buffer@yaSSL@@@yaSSL@@YAXPEAVinput_buffer@0@@Z 000000014003e6c0 f i yassl:yassl_int.obj
 0001:0003d6f0       ??$for_each@Viterator@?$list@PEAVoutput_buffer@yaSSL@@@mySTL@@USumBuffer@yassl_int_cpp_local1@yaSSL@@@mySTL@@YA?AUSumBuffer@yassl_int_cpp_local1@yaSSL@@Viterator@?$list@PEAVoutput_buffer@yaSSL@@@0@0U123@@Z 000000014003e6f0 f i yassl:yassl_int.obj
 0001:0003d750       ??$ysDelete@Voutput_buffer@yaSSL@@@yaSSL@@YAXPEAVoutput_buffer@0@@Z 000000014003e750 f i yassl:yassl_int.obj
 0001:0003d780       ??$find_if@Viterator@?$list@UThreadError@yaSSL@@@mySTL@@Uthr_match@yassl_int_cpp_local2@yaSSL@@@mySTL@@YA?AViterator@?$list@UThreadError@yaSSL@@@0@V120@0Uthr_match@yassl_int_cpp_local2@yaSSL@@@Z 000000014003e780 f i yassl:yassl_int.obj
 0001:0003d7a0       ??$ysDelete@VDiffieHellman@yaSSL@@@yaSSL@@YAXPEAVDiffieHellman@0@@Z 000000014003e7a0 f i yassl:yassl_int.obj
 0001:0003d7d0       ??$destroy@PEAU?$pair@HP6APEAUMessage@yaSSL@@XZ@mySTL@@@mySTL@@YAXPEAU?$pair@HP6APEAUMessage@yaSSL@@XZ@0@0@Z 000000014003e7d0 f i yassl:yassl_int.obj
 0001:0003d7e0       ??$destroy@PEAU?$pair@HP6APEAVHandShakeBase@yaSSL@@XZ@mySTL@@@mySTL@@YAXPEAU?$pair@HP6APEAVHandShakeBase@yaSSL@@XZ@0@0@Z 000000014003e7e0 f i yassl:yassl_int.obj
 0001:0003d7f0       ??$destroy@PEAU?$pair@HP6APEAUServerKeyBase@yaSSL@@XZ@mySTL@@@mySTL@@YAXPEAU?$pair@HP6APEAUServerKeyBase@yaSSL@@XZ@0@0@Z 000000014003e7f0 f i yassl:yassl_int.obj
 0001:0003d800       ??$destroy@PEAU?$pair@HP6APEAUClientKeyBase@yaSSL@@XZ@mySTL@@@mySTL@@YAXPEAU?$pair@HP6APEAUClientKeyBase@yaSSL@@XZ@0@0@Z 000000014003e800 f i yassl:yassl_int.obj
 0001:0003d810       ??$checked_delete@Vx509@yaSSL@@@yaSSL@@YAXPEAVx509@0@@Z 000000014003e810 f i yassl:yassl_int.obj
 0001:0003d820       ??$checked_delete@Voutput_buffer@yaSSL@@@yaSSL@@YAXPEAVoutput_buffer@0@@Z 000000014003e820 f i yassl:yassl_int.obj
 0001:0003d830       ??$checked_delete@Vinput_buffer@yaSSL@@@yaSSL@@YAXPEAVinput_buffer@0@@Z 000000014003e830 f i yassl:yassl_int.obj
 0001:0003d840       ?FreeMemory@mySTL@@YAXPEAX@Z 000000014003e840 f i yassl:yassl_int.obj
 0001:0003d850       ??1X509@yaSSL@@QEAA@XZ     000000014003e850 f i yassl:yassl_int.obj
 0001:0003d890       ?storeKeys@SSL@yaSSL@@AEAAXPEBE@Z 000000014003e890 f   yassl:yassl_int.obj
 0001:0003d990       ?bufferedData@SSL@yaSSL@@QEAAIXZ 000000014003e990 f   yassl:yassl_int.obj
 0001:0003d9c0       ?PeekData@SSL@yaSSL@@QEAAXAEAVData@2@@Z 000000014003e9c0 f   yassl:yassl_int.obj
 0001:0003db20       ?verifyState@SSL@yaSSL@@QEAAXAEBVHandShakeHeader@2@@Z 000000014003eb20 f   yassl:yassl_int.obj
 0001:0003dba0       ?addData@SSL@yaSSL@@QEAAXPEAVinput_buffer@2@@Z 000000014003eba0 f   yassl:yassl_int.obj
 0001:0003dbe0       ?addBuffer@SSL@yaSSL@@QEAAXPEAVoutput_buffer@2@@Z 000000014003ebe0 f   yassl:yassl_int.obj
 0001:0003dc00       ?AddCA@SSL_CTX@yaSSL@@QEAAXPEAVx509@2@@Z 000000014003ec00 f   yassl:yassl_int.obj
 0001:0003dc10       ??1Crypto@yaSSL@@QEAA@XZ   000000014003ec10 f   yassl:yassl_int.obj
 0001:0003dc50       ??0X509@yaSSL@@QEAA@PEBD_K010H0H@Z 000000014003ec50 f   yassl:yassl_int.obj
 0001:0003dcb0       ??1?$vector@U?$pair@HP6APEAUMessage@yaSSL@@XZ@mySTL@@@mySTL@@QEAA@XZ 000000014003ecb0 f i yassl:yassl_int.obj
 0001:0003dcc0       ??1?$vector@U?$pair@HP6APEAVHandShakeBase@yaSSL@@XZ@mySTL@@@mySTL@@QEAA@XZ 000000014003ecc0 f i yassl:yassl_int.obj
 0001:0003dcd0       ??1?$vector@U?$pair@HP6APEAUServerKeyBase@yaSSL@@XZ@mySTL@@@mySTL@@QEAA@XZ 000000014003ecd0 f i yassl:yassl_int.obj
 0001:0003dce0       ??1?$vector@U?$pair@HP6APEAUClientKeyBase@yaSSL@@XZ@mySTL@@@mySTL@@QEAA@XZ 000000014003ece0 f i yassl:yassl_int.obj
 0001:0003dcf0       ??0?$vector@U?$pair@HP6APEAUMessage@yaSSL@@XZ@mySTL@@@mySTL@@QEAA@XZ 000000014003ecf0 f i yassl:yassl_int.obj
 0001:0003dd10       ??0?$vector@U?$pair@HP6APEAVHandShakeBase@yaSSL@@XZ@mySTL@@@mySTL@@QEAA@XZ 000000014003ed10 f i yassl:yassl_int.obj
 0001:0003dd30       ??0?$vector@U?$pair@HP6APEAUServerKeyBase@yaSSL@@XZ@mySTL@@@mySTL@@QEAA@XZ 000000014003ed30 f i yassl:yassl_int.obj
 0001:0003dd50       ??0?$vector@U?$pair@HP6APEAUClientKeyBase@yaSSL@@XZ@mySTL@@@mySTL@@QEAA@XZ 000000014003ed50 f i yassl:yassl_int.obj
 0001:0003dd70       ??1?$list@PEAVx509@yaSSL@@@mySTL@@QEAA@XZ 000000014003ed70 f i yassl:yassl_int.obj
 0001:0003dda0       ??1?$list@PEAVSSL_SESSION@yaSSL@@@mySTL@@QEAA@XZ 000000014003eda0 f i yassl:yassl_int.obj
 0001:0003ddd0       ??1?$list@UThreadError@yaSSL@@@mySTL@@QEAA@XZ 000000014003edd0 f i yassl:yassl_int.obj
 0001:0003de00       ??1?$list@PEAVinput_buffer@yaSSL@@@mySTL@@QEAA@XZ 000000014003ee00 f i yassl:yassl_int.obj
 0001:0003de30       ?pop_front@?$list@PEAVinput_buffer@yaSSL@@@mySTL@@QEAAXXZ 000000014003ee30 f i yassl:yassl_int.obj
 0001:0003de80       ??1?$list@PEAVoutput_buffer@yaSSL@@@mySTL@@QEAA@XZ 000000014003ee80 f i yassl:yassl_int.obj
 0001:0003deb0       ?pop_front@?$list@PEAVoutput_buffer@yaSSL@@@mySTL@@QEAAXXZ 000000014003eeb0 f i yassl:yassl_int.obj
 0001:0003df00       ??_GX509@yaSSL@@QEAAPEAXI@Z 000000014003ef00 f i yassl:yassl_int.obj
 0001:0003df50       ?pop_front@?$list@PEAVSSL_SESSION@yaSSL@@@mySTL@@QEAAXXZ 000000014003ef50 f i yassl:yassl_int.obj
 0001:0003dfa0       ?pop_back@?$list@PEAVSSL_SESSION@yaSSL@@@mySTL@@QEAAXXZ 000000014003efa0 f i yassl:yassl_int.obj
 0001:0003e000       ?pop_front@?$list@UThreadError@yaSSL@@@mySTL@@QEAAXXZ 000000014003f000 f i yassl:yassl_int.obj
 0001:0003e050       ?pop_back@?$list@UThreadError@yaSSL@@@mySTL@@QEAAXXZ 000000014003f050 f i yassl:yassl_int.obj
 0001:0003e0b0       ??$?RVx509@yaSSL@@@del_ptr_zero@yaSSL@@QEBAXAEAPEAVx509@1@@Z 000000014003f0b0 f i yassl:yassl_int.obj
 0001:0003e0c0       ??$?RVoutput_buffer@yaSSL@@@del_ptr_zero@yaSSL@@QEBAXAEAPEAVoutput_buffer@1@@Z 000000014003f0c0 f i yassl:yassl_int.obj
 0001:0003e0d0       ??$?RVinput_buffer@yaSSL@@@del_ptr_zero@yaSSL@@QEBAXAEAPEAVinput_buffer@1@@Z 000000014003f0d0 f i yassl:yassl_int.obj
 0001:0003e0e0       ??0Sessions@yaSSL@@AEAA@XZ 000000014003f0e0 f i yassl:yassl_int.obj
 0001:0003e120       ??0Errors@yaSSL@@AEAA@XZ   000000014003f120 f i yassl:yassl_int.obj
 0001:0003e150       ??1Errors@yaSSL@@QEAA@XZ   000000014003f150 f i yassl:yassl_int.obj
 0001:0003e170       ??1?$Factory@UMessage@yaSSL@@HP6APEAU12@XZ@yaSSL@@QEAA@XZ 000000014003f170 f i yassl:yassl_int.obj
 0001:0003e180       ??1?$Factory@VHandShakeBase@yaSSL@@HP6APEAV12@XZ@yaSSL@@QEAA@XZ 000000014003f180 f i yassl:yassl_int.obj
 0001:0003e190       ??1?$Factory@UServerKeyBase@yaSSL@@HP6APEAU12@XZ@yaSSL@@QEAA@XZ 000000014003f190 f i yassl:yassl_int.obj
 0001:0003e1a0       ??1?$Factory@UClientKeyBase@yaSSL@@HP6APEAU12@XZ@yaSSL@@QEAA@XZ 000000014003f1a0 f i yassl:yassl_int.obj
 0001:0003e1b0       ?deriveKeys@SSL@yaSSL@@QEAAXXZ 000000014003f1b0 f   yassl:yassl_int.obj
 0001:0003e430       ?deriveTLSKeys@SSL@yaSSL@@QEAAXXZ 000000014003f430 f   yassl:yassl_int.obj
 0001:0003e570       ?fillData@SSL@yaSSL@@QEAAXAEAVData@2@@Z 000000014003f570 f   yassl:yassl_int.obj
 0001:0003e710       ?flushBuffer@SSL@yaSSL@@QEAAXXZ 000000014003f710 f   yassl:yassl_int.obj
 0001:0003e820       ?CopyX509@SSL_SESSION@yaSSL@@AEAAXPEAVX509@2@@Z 000000014003f820 f   yassl:yassl_int.obj
 0001:0003e900       ??0SSL_SESSION@yaSSL@@QEAA@AEBVSSL@1@AEAVRandomPool@1@@Z 000000014003f900 f   yassl:yassl_int.obj
 0001:0003e9e0       ?GetSessions@yaSSL@@YAAEAVSessions@1@XZ 000000014003f9e0 f   yassl:yassl_int.obj
 0001:0003ea60       ?GetErrors@yaSSL@@YAAEAVErrors@1@XZ 000000014003fa60 f   yassl:yassl_int.obj
 0001:0003ead0       ??0SSL_CTX@yaSSL@@QEAA@PEAVSSL_METHOD@1@@Z 000000014003fad0 f   yassl:yassl_int.obj
 0001:0003ebc0       ??0Buffers@yaSSL@@QEAA@XZ  000000014003fbc0 f   yassl:yassl_int.obj
 0001:0003ebf0       ??0?$Factory@UMessage@yaSSL@@HP6APEAU12@XZ@yaSSL@@QEAA@P6AXAEAV01@@Z@Z 000000014003fbf0 f i yassl:yassl_int.obj
 0001:0003ec20       ??0?$Factory@VHandShakeBase@yaSSL@@HP6APEAV12@XZ@yaSSL@@QEAA@P6AXAEAV01@@Z@Z 000000014003fc20 f i yassl:yassl_int.obj
 0001:0003ec50       ??0?$Factory@UServerKeyBase@yaSSL@@HP6APEAU12@XZ@yaSSL@@QEAA@P6AXAEAV01@@Z@Z 000000014003fc50 f i yassl:yassl_int.obj
 0001:0003ec80       ??0?$Factory@UClientKeyBase@yaSSL@@HP6APEAU12@XZ@yaSSL@@QEAA@P6AXAEAV01@@Z@Z 000000014003fc80 f i yassl:yassl_int.obj
 0001:0003ecb0       ?erase@?$list@PEAVSSL_SESSION@yaSSL@@@mySTL@@QEAA_NViterator@12@@Z 000000014003fcb0 f i yassl:yassl_int.obj
 0001:0003ed20       ?erase@?$list@UThreadError@yaSSL@@@mySTL@@QEAA_NViterator@12@@Z 000000014003fd20 f i yassl:yassl_int.obj
 0001:0003ed90       ??$ysDelete@VX509@yaSSL@@@yaSSL@@YAXPEAVX509@0@@Z 000000014003fd90 f i yassl:yassl_int.obj
 0001:0003edd0       ??$for_each@Viterator@?$list@PEAVx509@yaSSL@@@mySTL@@Udel_ptr_zero@yaSSL@@@mySTL@@YA?AUdel_ptr_zero@yaSSL@@Viterator@?$list@PEAVx509@yaSSL@@@0@0U12@@Z 000000014003fdd0 f i yassl:yassl_int.obj
 0001:0003ee30       ??$for_each@Viterator@?$list@PEAVoutput_buffer@yaSSL@@@mySTL@@Udel_ptr_zero@yaSSL@@@mySTL@@YA?AUdel_ptr_zero@yaSSL@@Viterator@?$list@PEAVoutput_buffer@yaSSL@@@0@0U12@@Z 000000014003fe30 f i yassl:yassl_int.obj
 0001:0003ee90       ??$for_each@Viterator@?$list@PEAVinput_buffer@yaSSL@@@mySTL@@Udel_ptr_zero@yaSSL@@@mySTL@@YA?AUdel_ptr_zero@yaSSL@@Viterator@?$list@PEAVinput_buffer@yaSSL@@@0@0U12@@Z 000000014003fe90 f i yassl:yassl_int.obj
 0001:0003eef0       ??_GErrors@yaSSL@@QEAAPEAXI@Z 000000014003fef0 f i yassl:yassl_int.obj
 0001:0003ef30       ??1sslFactory@yaSSL@@QEAA@XZ 000000014003ff30 f i yassl:yassl_int.obj
 0001:0003ef70       ??0sslFactory@yaSSL@@AEAA@XZ 000000014003ff70 f   yassl:yassl_int.obj
 0001:0003efe0       ?makeTLSMasterSecret@SSL@yaSSL@@QEAAXXZ 000000014003ffe0 f   yassl:yassl_int.obj
 0001:0003f0c0       ??4SSL_SESSION@yaSSL@@QEAAAEAV01@AEBV01@@Z 00000001400400c0 f   yassl:yassl_int.obj
 0001:0003f170       ??1SSL_SESSION@yaSSL@@QEAA@XZ 0000000140040170 f   yassl:yassl_int.obj
 0001:0003f1a0       ?GetSSL_Factory@yaSSL@@YAAEAVsslFactory@1@XZ 00000001400401a0 f   yassl:yassl_int.obj
 0001:0003f1f0       ?Remove@Errors@yaSSL@@QEAAXXZ 00000001400401f0 f   yassl:yassl_int.obj
 0001:0003f250       ?Lookup@Errors@yaSSL@@QEAAH_N@Z 0000000140040250 f   yassl:yassl_int.obj
 0001:0003f2e0       ?Add@Errors@yaSSL@@QEAAXH@Z 00000001400402e0 f   yassl:yassl_int.obj
 0001:0003f330       ??1SSL_CTX@yaSSL@@QEAA@XZ  0000000140040330 f   yassl:yassl_int.obj
 0001:0003f3a0       ??1Buffers@yaSSL@@QEAA@XZ  00000001400403a0 f   yassl:yassl_int.obj
 0001:0003f400       ??0Security@yaSSL@@QEAA@UProtocolVersion@1@AEAVRandomPool@1@W4ConnectionEnd@1@AEBUCiphers@1@PEAVSSL_CTX@1@_N@Z 0000000140040400 f   yassl:yassl_int.obj
 0001:0003f480       ??$ysDelete@VErrors@yaSSL@@@yaSSL@@YAXPEAVErrors@0@@Z 0000000140040480 f i yassl:yassl_int.obj
 0001:0003f4b0       ??_GsslFactory@yaSSL@@QEAAPEAXI@Z 00000001400404b0 f i yassl:yassl_int.obj
 0001:0003f500       ??_GSSL_SESSION@yaSSL@@QEAAPEAXI@Z 0000000140040500 f i yassl:yassl_int.obj
 0001:0003f530       ?makeMasterSecret@SSL@yaSSL@@QEAAXXZ 0000000140040530 f   yassl:yassl_int.obj
 0001:0003f7a0       ?getFactory@SSL@yaSSL@@QEBAAEBVsslFactory@2@XZ 00000001400407a0 f   yassl:yassl_int.obj
 0001:0003f7b0       ??$ysDelete@VsslFactory@yaSSL@@@yaSSL@@YAXPEAVsslFactory@0@@Z 00000001400407b0 f i yassl:yassl_int.obj
 0001:0003f7f0       ??$ysDelete@VSSL_SESSION@yaSSL@@@yaSSL@@YAXPEAVSSL_SESSION@0@@Z 00000001400407f0 f i yassl:yassl_int.obj
 0001:0003f820       ??0SSL@yaSSL@@QEAA@PEAVSSL_CTX@1@@Z 0000000140040820 f   yassl:yassl_int.obj
 0001:0003fb00       ??$checked_delete@VSSL_SESSION@yaSSL@@@yaSSL@@YAXPEAVSSL_SESSION@0@@Z 0000000140040b00 f i yassl:yassl_int.obj
 0001:0003fb10       ??$?RVSSL_SESSION@yaSSL@@@del_ptr_zero@yaSSL@@QEBAXAEAPEAVSSL_SESSION@1@@Z 0000000140040b10 f i yassl:yassl_int.obj
 0001:0003fb20       ?lookup@Sessions@yaSSL@@QEAAPEAVSSL_SESSION@2@PEBEPEAV32@@Z 0000000140040b20 f   yassl:yassl_int.obj
 0001:0003fbf0       ?remove@Sessions@yaSSL@@QEAAXPEBE@Z 0000000140040bf0 f   yassl:yassl_int.obj
 0001:0003fc60       ?Flush@Sessions@yaSSL@@QEAAXXZ 0000000140040c60 f   yassl:yassl_int.obj
 0001:0003fd00       ??$for_each@Viterator@?$list@PEAVSSL_SESSION@yaSSL@@@mySTL@@Udel_ptr_zero@yaSSL@@@mySTL@@YA?AUdel_ptr_zero@yaSSL@@Viterator@?$list@PEAVSSL_SESSION@yaSSL@@@0@0U12@@Z 0000000140040d00 f i yassl:yassl_int.obj
 0001:0003fd60       ?set_session@SSL@yaSSL@@QEAAXPEAVSSL_SESSION@2@@Z 0000000140040d60 f   yassl:yassl_int.obj
 0001:0003fe20       ?add@Sessions@yaSSL@@QEAAXAEBVSSL@2@@Z 0000000140040e20 f   yassl:yassl_int.obj
 0001:0003fed0       ??1Sessions@yaSSL@@QEAA@XZ 0000000140040ed0 f   yassl:yassl_int.obj
 0001:0003ff10       ??_GSessions@yaSSL@@QEAAPEAXI@Z 0000000140040f10 f i yassl:yassl_int.obj
 0001:0003ff40       ??$ysDelete@VSessions@yaSSL@@@yaSSL@@YAXPEAVSessions@0@@Z 0000000140040f40 f i yassl:yassl_int.obj
 0001:0003ff70       yayaSSL_CleanUp            0000000140040f70 f   yassl:yassl_int.obj
 0001:0003ffc0       ??1Digest@yaSSL@@UEAA@XZ   0000000140040fc0 f i yassl:crypto_wrapper.obj
 0001:0003ffd0       ??_EDigest@yaSSL@@UEAAPEAXI@Z 0000000140040fd0 f i yassl:crypto_wrapper.obj
 0001:0003ffd0       ??_GDigest@yaSSL@@UEAAPEAXI@Z 0000000140040fd0 f i yassl:crypto_wrapper.obj
 0001:00040000       ??1BulkCipher@yaSSL@@UEAA@XZ 0000000140041000 f i yassl:crypto_wrapper.obj
 0001:00040010       ??_EBulkCipher@yaSSL@@UEAAPEAXI@Z 0000000140041010 f i yassl:crypto_wrapper.obj
 0001:00040010       ??_GBulkCipher@yaSSL@@UEAAPEAXI@Z 0000000140041010 f i yassl:crypto_wrapper.obj
 0001:00040040       ??1Auth@yaSSL@@UEAA@XZ     0000000140041040 f i yassl:crypto_wrapper.obj
 0001:00040050       ??_EAuth@yaSSL@@UEAAPEAXI@Z 0000000140041050 f i yassl:crypto_wrapper.obj
 0001:00040050       ??_GAuth@yaSSL@@UEAAPEAXI@Z 0000000140041050 f i yassl:crypto_wrapper.obj
 0001:00040080       ?BitsToBytes@TaoCrypt@@YAII@Z 0000000140041080 f i yassl:crypto_wrapper.obj
 0001:00040090       ?What@Error@TaoCrypt@@QEBA?AW4ErrorNumber@2@XZ 0000000140041090 f i yassl:crypto_wrapper.obj
 0001:000400a0       ??0SHA@TaoCrypt@@QEAA@XZ   00000001400410a0 f i yassl:crypto_wrapper.obj
 0001:000400e0       ?getByteOrder@SHA@TaoCrypt@@UEBA?AW4ByteOrder@2@XZ 00000001400410e0 f i yassl:crypto_wrapper.obj
 0001:000400f0       ?getBlockSize@SHA@TaoCrypt@@UEBAIXZ 00000001400410f0 f i yassl:crypto_wrapper.obj
 0001:00040100       ?getDigestSize@SHA@TaoCrypt@@UEBAIXZ 0000000140041100 f i yassl:crypto_wrapper.obj
 0001:00040110       ?getPadSize@SHA@TaoCrypt@@UEBAIXZ 0000000140041110 f i yassl:crypto_wrapper.obj
 0001:00040120       ??1SHA@TaoCrypt@@UEAA@XZ   0000000140041120 f i yassl:crypto_wrapper.obj
 0001:00040130       ??0RIPEMD160@TaoCrypt@@QEAA@XZ 0000000140041130 f i yassl:crypto_wrapper.obj
 0001:00040170       ?getByteOrder@RIPEMD160@TaoCrypt@@UEBA?AW4ByteOrder@2@XZ 0000000140041170 f i yassl:crypto_wrapper.obj
 0001:00040180       ?getBlockSize@RIPEMD160@TaoCrypt@@UEBAIXZ 0000000140041180 f i yassl:crypto_wrapper.obj
 0001:00040190       ?getDigestSize@RIPEMD160@TaoCrypt@@UEBAIXZ 0000000140041190 f i yassl:crypto_wrapper.obj
 0001:000401a0       ?getPadSize@RIPEMD160@TaoCrypt@@UEBAIXZ 00000001400411a0 f i yassl:crypto_wrapper.obj
 0001:000401b0       ??1RIPEMD160@TaoCrypt@@UEAA@XZ 00000001400411b0 f i yassl:crypto_wrapper.obj
 0001:000401c0       ??0Mode_BASE@TaoCrypt@@QEAA@HW4CipherDir@1@W4Mode@1@@Z 00000001400411c0 f i yassl:crypto_wrapper.obj
 0001:000401f0       ??1Mode_BASE@TaoCrypt@@UEAA@XZ 00000001400411f0 f i yassl:crypto_wrapper.obj
 0001:00040200       ?SetIV@Mode_BASE@TaoCrypt@@QEAAXPEBE@Z 0000000140041200 f i yassl:crypto_wrapper.obj
 0001:00040210       ??_EMode_BASE@TaoCrypt@@UEAAPEAXI@Z 0000000140041210 f i yassl:crypto_wrapper.obj
 0001:00040210       ??_GMode_BASE@TaoCrypt@@UEAAPEAXI@Z 0000000140041210 f i yassl:crypto_wrapper.obj
 0001:00040240       ?ECB_Process@Mode_BASE@TaoCrypt@@IEAAXPEAEPEBEI@Z 0000000140041240 f i yassl:crypto_wrapper.obj
 0001:000402b0       ?CBC_Encrypt@Mode_BASE@TaoCrypt@@IEAAXPEAEPEBEI@Z 00000001400412b0 f i yassl:crypto_wrapper.obj
 0001:00040340       ?CBC_Decrypt@Mode_BASE@TaoCrypt@@IEAAXPEAEPEBEI@Z 0000000140041340 f i yassl:crypto_wrapper.obj
 0001:00040440       ??0DES@TaoCrypt@@QEAA@W4CipherDir@1@W4Mode@1@@Z 0000000140041440 f i yassl:crypto_wrapper.obj
 0001:00040470       ??1DES@TaoCrypt@@UEAA@XZ   0000000140041470 f i yassl:crypto_wrapper.obj
 0001:00040480       ??0DES_EDE3@TaoCrypt@@QEAA@W4CipherDir@1@W4Mode@1@@Z 0000000140041480 f i yassl:crypto_wrapper.obj
 0001:000404b0       ?SetIV@DES_EDE3@TaoCrypt@@QEAAXPEBE@Z 00000001400414b0 f i yassl:crypto_wrapper.obj
 0001:000404c0       ??1DES_EDE3@TaoCrypt@@UEAA@XZ 00000001400414c0 f i yassl:crypto_wrapper.obj
 0001:000404d0       ??0ARC4@TaoCrypt@@QEAA@XZ  00000001400414d0 f i yassl:crypto_wrapper.obj
 0001:000404e0       ??0AES@TaoCrypt@@QEAA@W4CipherDir@1@W4Mode@1@@Z 00000001400414e0 f i yassl:crypto_wrapper.obj
 0001:00040510       ?SetIV@AES@TaoCrypt@@QEAAXPEBE@Z 0000000140041510 f i yassl:crypto_wrapper.obj
 0001:00040520       ??1AES@TaoCrypt@@UEAA@XZ   0000000140041520 f i yassl:crypto_wrapper.obj
 0001:00040530       ?GetError@OS_Seed@TaoCrypt@@QEBA?AUError@2@XZ 0000000140041530 f i yassl:crypto_wrapper.obj
 0001:00040540       ??1RandomNumberGenerator@TaoCrypt@@QEAA@XZ 0000000140041540 f i yassl:crypto_wrapper.obj
 0001:00040550       ?GetError@RandomNumberGenerator@TaoCrypt@@QEBA?AW4ErrorNumber@2@XZ 0000000140041550 f i yassl:crypto_wrapper.obj
 0001:00040560       ?Ref@Integer@TaoCrypt@@QEAAAEAV12@XZ 0000000140041560 f i yassl:crypto_wrapper.obj
 0001:00040570       ??0PK_Lengths@TaoCrypt@@QEAA@AEBVInteger@1@@Z 0000000140041570 f i yassl:crypto_wrapper.obj
 0001:00040580       ?PaddedBlockBitLength@PK_Lengths@TaoCrypt@@QEBAIXZ 0000000140041580 f i yassl:crypto_wrapper.obj
 0001:000405a0       ?PaddedBlockByteLength@PK_Lengths@TaoCrypt@@QEBAIXZ 00000001400415a0 f i yassl:crypto_wrapper.obj
 0001:000405c0       ?FixedCiphertextLength@PK_Lengths@TaoCrypt@@QEBAIXZ 00000001400415c0 f i yassl:crypto_wrapper.obj
 0001:000405d0       ?Initialize@RSA_PublicKey@TaoCrypt@@QEAAXAEBVInteger@2@0@Z 00000001400415d0 f i yassl:crypto_wrapper.obj
 0001:00040600       ?GetModulus@RSA_PublicKey@TaoCrypt@@QEBAAEBVInteger@2@XZ 0000000140041600 f i yassl:crypto_wrapper.obj
 0001:00040610       ?FixedCiphertextLength@RSA_PublicKey@TaoCrypt@@QEAAIXZ 0000000140041610 f i yassl:crypto_wrapper.obj
 0001:00040620       ?Swap@RSA_PublicKey@TaoCrypt@@QEAAXAEAV12@@Z 0000000140041620 f i yassl:crypto_wrapper.obj
 0001:00040650       ?GetPrivateExponent@RSA_PrivateKey@TaoCrypt@@QEBAAEBVInteger@2@XZ 0000000140041650 f i yassl:crypto_wrapper.obj
 0001:00040660       ?Swap@DH@TaoCrypt@@QEAAXAEAV12@@Z 0000000140041660 f i yassl:crypto_wrapper.obj
 0001:00040690       ?SetP@DH@TaoCrypt@@QEAAXAEBVInteger@2@@Z 0000000140041690 f i yassl:crypto_wrapper.obj
 0001:000406a0       ?SetG@DH@TaoCrypt@@QEAAXAEBVInteger@2@@Z 00000001400416a0 f i yassl:crypto_wrapper.obj
 0001:000406b0       ?GetP@DH@TaoCrypt@@QEAAAEAVInteger@2@XZ 00000001400416b0 f i yassl:crypto_wrapper.obj
 0001:000406c0       ?GetG@DH@TaoCrypt@@QEAAAEAVInteger@2@XZ 00000001400416c0 f i yassl:crypto_wrapper.obj
 0001:000406d0       ?GetByteLength@DH@TaoCrypt@@QEBAIXZ 00000001400416d0 f i yassl:crypto_wrapper.obj
 0001:000406e0       ??0MD5Impl@MD5@yaSSL@@QEAA@XZ 00000001400416e0 f i yassl:crypto_wrapper.obj
 0001:00040720       ??0MD5Impl@MD5@yaSSL@@QEAA@AEBV1TaoCrypt@@@Z 0000000140041720 f i yassl:crypto_wrapper.obj
 0001:00040740       ??0Digest@yaSSL@@QEAA@XZ   0000000140041740 f i yassl:crypto_wrapper.obj
 0001:00040750       ??0MD5@yaSSL@@QEAA@AEBV01@@Z 0000000140041750 f   yassl:crypto_wrapper.obj
 0001:000407c0       ??4MD5@yaSSL@@QEAAAEAV01@AEBV01@@Z 00000001400417c0 f   yassl:crypto_wrapper.obj
 0001:000407e0       ?get_digestSize@MD5@yaSSL@@UEBAIXZ 00000001400417e0 f   yassl:crypto_wrapper.obj
 0001:000407f0       ?get_padSize@MD5@yaSSL@@UEBAIXZ 00000001400417f0 f   yassl:crypto_wrapper.obj
 0001:00040800       ?get_digest@MD5@yaSSL@@UEAAXPEAEPEBEI@Z 0000000140041800 f   yassl:crypto_wrapper.obj
 0001:00040840       ?get_digest@MD5@yaSSL@@UEAAXPEAE@Z 0000000140041840 f   yassl:crypto_wrapper.obj
 0001:00040850       ?update@MD5@yaSSL@@UEAAXPEBEI@Z 0000000140041850 f   yassl:crypto_wrapper.obj
 0001:00040860       ??0SHAImpl@SHA@yaSSL@@QEAA@XZ 0000000140041860 f i yassl:crypto_wrapper.obj
 0001:000408a0       ??0SHAImpl@SHA@yaSSL@@QEAA@AEBV1TaoCrypt@@@Z 00000001400418a0 f i yassl:crypto_wrapper.obj
 0001:000408c0       ??0SHA@yaSSL@@QEAA@XZ      00000001400418c0 f   yassl:crypto_wrapper.obj
 0001:00040940       ??0SHA@yaSSL@@QEAA@AEBV01@@Z 0000000140041940 f   yassl:crypto_wrapper.obj
 0001:000409b0       ??4SHA@yaSSL@@QEAAAEAV01@AEBV01@@Z 00000001400419b0 f   yassl:crypto_wrapper.obj
 0001:000409d0       ?get_digestSize@SHA@yaSSL@@UEBAIXZ 00000001400419d0 f   yassl:crypto_wrapper.obj
 0001:000409e0       ?get_padSize@SHA@yaSSL@@UEBAIXZ 00000001400419e0 f   yassl:crypto_wrapper.obj
 0001:000409f0       ?get_digest@SHA@yaSSL@@UEAAXPEAEPEBEI@Z 00000001400419f0 f   yassl:crypto_wrapper.obj
 0001:00040a30       ?get_digest@SHA@yaSSL@@UEAAXPEAE@Z 0000000140041a30 f   yassl:crypto_wrapper.obj
 0001:00040a40       ?update@SHA@yaSSL@@UEAAXPEBEI@Z 0000000140041a40 f   yassl:crypto_wrapper.obj
 0001:00040a50       ??0RMDImpl@RMD@yaSSL@@QEAA@XZ 0000000140041a50 f i yassl:crypto_wrapper.obj
 0001:00040a90       ??0RMDImpl@RMD@yaSSL@@QEAA@AEBVRIPEMD160@TaoCrypt@@@Z 0000000140041a90 f i yassl:crypto_wrapper.obj
 0001:00040ab0       ??0RMD@yaSSL@@QEAA@XZ      0000000140041ab0 f   yassl:crypto_wrapper.obj
 0001:00040b30       ??0RMD@yaSSL@@QEAA@AEBV01@@Z 0000000140041b30 f   yassl:crypto_wrapper.obj
 0001:00040ba0       ??4RMD@yaSSL@@QEAAAEAV01@AEBV01@@Z 0000000140041ba0 f   yassl:crypto_wrapper.obj
 0001:00040bc0       ?get_digestSize@RMD@yaSSL@@UEBAIXZ 0000000140041bc0 f   yassl:crypto_wrapper.obj
 0001:00040bd0       ?get_padSize@RMD@yaSSL@@UEBAIXZ 0000000140041bd0 f   yassl:crypto_wrapper.obj
 0001:00040be0       ?get_digest@RMD@yaSSL@@UEAAXPEAEPEBEI@Z 0000000140041be0 f   yassl:crypto_wrapper.obj
 0001:00040c20       ?get_digest@RMD@yaSSL@@UEAAXPEAE@Z 0000000140041c20 f   yassl:crypto_wrapper.obj
 0001:00040c30       ?update@RMD@yaSSL@@UEAAXPEBEI@Z 0000000140041c30 f   yassl:crypto_wrapper.obj
 0001:00040c40       ??1?$HMAC@VMD5@TaoCrypt@@@TaoCrypt@@QEAA@XZ 0000000140041c40 f i yassl:crypto_wrapper.obj
 0001:00040c50       ?get_digestSize@HMAC_MD5@yaSSL@@UEBAIXZ 0000000140041c50 f   yassl:crypto_wrapper.obj
 0001:00040c60       ?get_padSize@HMAC_MD5@yaSSL@@UEBAIXZ 0000000140041c60 f   yassl:crypto_wrapper.obj
 0001:00040c70       ??1?$HMAC@VSHA@TaoCrypt@@@TaoCrypt@@QEAA@XZ 0000000140041c70 f i yassl:crypto_wrapper.obj
 0001:00040c80       ?get_digestSize@HMAC_SHA@yaSSL@@UEBAIXZ 0000000140041c80 f   yassl:crypto_wrapper.obj
 0001:00040c90       ?get_padSize@HMAC_SHA@yaSSL@@UEBAIXZ 0000000140041c90 f   yassl:crypto_wrapper.obj
 0001:00040ca0       ??1?$HMAC@VRIPEMD160@TaoCrypt@@@TaoCrypt@@QEAA@XZ 0000000140041ca0 f i yassl:crypto_wrapper.obj
 0001:00040cb0       ?get_digestSize@HMAC_RMD@yaSSL@@UEBAIXZ 0000000140041cb0 f   yassl:crypto_wrapper.obj
 0001:00040cc0       ?get_padSize@HMAC_RMD@yaSSL@@UEBAIXZ 0000000140041cc0 f   yassl:crypto_wrapper.obj
 0001:00040cd0       ??0BulkCipher@yaSSL@@QEAA@XZ 0000000140041cd0 f i yassl:crypto_wrapper.obj
 0001:00040ce0       ??1?$BlockCipher@$0A@VDES@TaoCrypt@@$00@TaoCrypt@@QEAA@XZ 0000000140041ce0 f i yassl:crypto_wrapper.obj
 0001:00040cf0       ??1?$BlockCipher@$00VDES@TaoCrypt@@$00@TaoCrypt@@QEAA@XZ 0000000140041cf0 f i yassl:crypto_wrapper.obj
 0001:00040d00       ??1?$BlockCipher@$0A@VDES_EDE3@TaoCrypt@@$00@TaoCrypt@@QEAA@XZ 0000000140041d00 f i yassl:crypto_wrapper.obj
 0001:00040d10       ??1?$BlockCipher@$00VDES_EDE3@TaoCrypt@@$00@TaoCrypt@@QEAA@XZ 0000000140041d10 f i yassl:crypto_wrapper.obj
 0001:00040d20       ??0RC4Impl@RC4@yaSSL@@QEAA@XZ 0000000140041d20 f i yassl:crypto_wrapper.obj
 0001:00040d30       ?set_encryptKey@RC4@yaSSL@@UEAAXPEBE0@Z 0000000140041d30 f   yassl:crypto_wrapper.obj
 0001:00040d40       ?set_decryptKey@RC4@yaSSL@@UEAAXPEBE0@Z 0000000140041d40 f   yassl:crypto_wrapper.obj
 0001:00040d60       ?encrypt@RC4@yaSSL@@UEAAXPEAEPEBEI@Z 0000000140041d60 f   yassl:crypto_wrapper.obj
 0001:00040d70       ?decrypt@RC4@yaSSL@@UEAAXPEAEPEBEI@Z 0000000140041d70 f   yassl:crypto_wrapper.obj
 0001:00040d80       ??1?$BlockCipher@$0A@VAES@TaoCrypt@@$00@TaoCrypt@@QEAA@XZ 0000000140041d80 f i yassl:crypto_wrapper.obj
 0001:00040d90       ??1?$BlockCipher@$00VAES@TaoCrypt@@$00@TaoCrypt@@QEAA@XZ 0000000140041d90 f i yassl:crypto_wrapper.obj
 0001:00040da0       ?get_keySize@AES@yaSSL@@UEBAHXZ 0000000140041da0 f   yassl:crypto_wrapper.obj
 0001:00040db0       ??0RandomImpl@RandomPool@yaSSL@@QEAA@XZ 0000000140041db0 f i yassl:crypto_wrapper.obj
 0001:00040dd0       ?GetError@RandomPool@yaSSL@@QEBAHXZ 0000000140041dd0 f   yassl:crypto_wrapper.obj
 0001:00040de0       ?Fill@RandomPool@yaSSL@@QEBAXPEAEI@Z 0000000140041de0 f   yassl:crypto_wrapper.obj
 0001:00040df0       ??0Auth@yaSSL@@QEAA@XZ     0000000140041df0 f i yassl:crypto_wrapper.obj
 0001:00040e00       ?get_signatureLength@DSS@yaSSL@@UEBAIXZ 0000000140041e00 f   yassl:crypto_wrapper.obj
 0001:00040e10       ?get_cipherLength@RSA@yaSSL@@QEBAIXZ 0000000140041e10 f   yassl:crypto_wrapper.obj
 0001:00040e20       ?get_signatureLength@RSA@yaSSL@@UEBAIXZ 0000000140041e20 f   yassl:crypto_wrapper.obj
 0001:00040e30       ??4Integer@yaSSL@@QEAAAEAV01@AEBV01@@Z 0000000140041e30 f   yassl:crypto_wrapper.obj
 0001:00040e50       ?AllocKeys@DHImpl@DiffieHellman@yaSSL@@QEAAXIII@Z 0000000140041e50 f i yassl:crypto_wrapper.obj
 0001:00040ea0       ?makeAgreement@DiffieHellman@yaSSL@@QEAAXPEBEI@Z 0000000140041ea0 f   yassl:crypto_wrapper.obj
 0001:00040ed0       ?get_agreedKeyLength@DiffieHellman@yaSSL@@QEBAIXZ 0000000140041ed0 f   yassl:crypto_wrapper.obj
 0001:00040ee0       ?get_agreedKey@DiffieHellman@yaSSL@@QEBAPEBEXZ 0000000140041ee0 f   yassl:crypto_wrapper.obj
 0001:00040ef0       ?get_publicKey@DiffieHellman@yaSSL@@QEBAPEBEXZ 0000000140041ef0 f   yassl:crypto_wrapper.obj
 0001:00040f00       ??0?$BlockCipher@$0A@VDES@TaoCrypt@@$00@TaoCrypt@@QEAA@XZ 0000000140041f00 f i yassl:crypto_wrapper.obj
 0001:00040f40       ?Process@?$BlockCipher@$0A@VDES@TaoCrypt@@$00@TaoCrypt@@QEAAXPEAEPEBEI@Z 0000000140041f40 f i yassl:crypto_wrapper.obj
 0001:00040f50       ?SetKey@?$BlockCipher@$0A@VDES@TaoCrypt@@$00@TaoCrypt@@QEAAXPEBEI0@Z 0000000140041f50 f i yassl:crypto_wrapper.obj
 0001:00040f90       ??0?$BlockCipher@$00VDES@TaoCrypt@@$00@TaoCrypt@@QEAA@XZ 0000000140041f90 f i yassl:crypto_wrapper.obj
 0001:00040fd0       ?Process@?$BlockCipher@$00VDES@TaoCrypt@@$00@TaoCrypt@@QEAAXPEAEPEBEI@Z 0000000140041fd0 f i yassl:crypto_wrapper.obj
 0001:00040fe0       ?SetKey@?$BlockCipher@$00VDES@TaoCrypt@@$00@TaoCrypt@@QEAAXPEBEI0@Z 0000000140041fe0 f i yassl:crypto_wrapper.obj
 0001:00041020       ??0?$BlockCipher@$0A@VDES_EDE3@TaoCrypt@@$00@TaoCrypt@@QEAA@XZ 0000000140042020 f i yassl:crypto_wrapper.obj
 0001:00041060       ?Process@?$BlockCipher@$0A@VDES_EDE3@TaoCrypt@@$00@TaoCrypt@@QEAAXPEAEPEBEI@Z 0000000140042060 f i yassl:crypto_wrapper.obj
 0001:00041070       ?SetKey@?$BlockCipher@$0A@VDES_EDE3@TaoCrypt@@$00@TaoCrypt@@QEAAXPEBEI0@Z 0000000140042070 f i yassl:crypto_wrapper.obj
 0001:000410a0       ??0?$BlockCipher@$00VDES_EDE3@TaoCrypt@@$00@TaoCrypt@@QEAA@XZ 00000001400420a0 f i yassl:crypto_wrapper.obj
 0001:000410e0       ?Process@?$BlockCipher@$00VDES_EDE3@TaoCrypt@@$00@TaoCrypt@@QEAAXPEAEPEBEI@Z 00000001400420e0 f i yassl:crypto_wrapper.obj
 0001:000410f0       ?SetKey@?$BlockCipher@$00VDES_EDE3@TaoCrypt@@$00@TaoCrypt@@QEAAXPEBEI0@Z 00000001400420f0 f i yassl:crypto_wrapper.obj
 0001:00041120       ??0?$BlockCipher@$0A@VAES@TaoCrypt@@$00@TaoCrypt@@QEAA@XZ 0000000140042120 f i yassl:crypto_wrapper.obj
 0001:00041160       ?Process@?$BlockCipher@$0A@VAES@TaoCrypt@@$00@TaoCrypt@@QEAAXPEAEPEBEI@Z 0000000140042160 f i yassl:crypto_wrapper.obj
 0001:00041170       ?SetKey@?$BlockCipher@$0A@VAES@TaoCrypt@@$00@TaoCrypt@@QEAAXPEBEI0@Z 0000000140042170 f i yassl:crypto_wrapper.obj
 0001:000411b0       ??0?$BlockCipher@$00VAES@TaoCrypt@@$00@TaoCrypt@@QEAA@XZ 00000001400421b0 f i yassl:crypto_wrapper.obj
 0001:000411f0       ?Process@?$BlockCipher@$00VAES@TaoCrypt@@$00@TaoCrypt@@QEAAXPEAEPEBEI@Z 00000001400421f0 f i yassl:crypto_wrapper.obj
 0001:00041200       ?SetKey@?$BlockCipher@$00VAES@TaoCrypt@@$00@TaoCrypt@@QEAAXPEBEI0@Z 0000000140042200 f i yassl:crypto_wrapper.obj
 0001:00041240       ??0?$RSA_Decryptor@VRSA_BlockType2@TaoCrypt@@@TaoCrypt@@QEAA@AEBVRSA_PrivateKey@1@@Z 0000000140042240 f i yassl:crypto_wrapper.obj
 0001:00041250       ??0?$RSA_Encryptor@VRSA_BlockType2@TaoCrypt@@@TaoCrypt@@QEAA@AEBVRSA_PublicKey@1@@Z 0000000140042250 f i yassl:crypto_wrapper.obj
 0001:00041260       ??$SaturatingSubtract@II@TaoCrypt@@YAIII@Z 0000000140042260 f i yassl:crypto_wrapper.obj
 0001:00041270       ?Init@?$HMAC@VMD5@TaoCrypt@@@TaoCrypt@@QEAAXXZ 0000000140042270 f i yassl:crypto_wrapper.obj
 0001:00041290       ?SetKey@?$HMAC@VMD5@TaoCrypt@@@TaoCrypt@@QEAAXPEBEI@Z 0000000140042290 f i yassl:crypto_wrapper.obj
 0001:000413b0       ?Init@?$HMAC@VSHA@TaoCrypt@@@TaoCrypt@@QEAAXXZ 00000001400423b0 f i yassl:crypto_wrapper.obj
 0001:000413d0       ?SetKey@?$HMAC@VSHA@TaoCrypt@@@TaoCrypt@@QEAAXPEBEI@Z 00000001400423d0 f i yassl:crypto_wrapper.obj
 0001:000414e0       ?Init@?$HMAC@VRIPEMD160@TaoCrypt@@@TaoCrypt@@QEAAXXZ 00000001400424e0 f i yassl:crypto_wrapper.obj
 0001:00041500       ?SetKey@?$HMAC@VRIPEMD160@TaoCrypt@@@TaoCrypt@@QEAAXPEBEI@Z 0000000140042500 f i yassl:crypto_wrapper.obj
 0001:00041610       ??$ysDelete@URC4Impl@RC4@yaSSL@@@yaSSL@@YAXPEAURC4Impl@RC4@0@@Z 0000000140042610 f i yassl:crypto_wrapper.obj
 0001:00041620       ??$tcArrayDelete@_K@TaoCrypt@@YAXPEA_K@Z 0000000140042620 f i yassl:crypto_wrapper.obj
 0001:00041630       ??1MD5Impl@MD5@yaSSL@@QEAA@XZ 0000000140042630 f i yassl:crypto_wrapper.obj
 0001:00041640       ??1SHAImpl@SHA@yaSSL@@QEAA@XZ 0000000140042640 f i yassl:crypto_wrapper.obj
 0001:00041650       ??1RMDImpl@RMD@yaSSL@@QEAA@XZ 0000000140042650 f i yassl:crypto_wrapper.obj
 0001:00041660       ??1HMAC_MD5Impl@HMAC_MD5@yaSSL@@QEAA@XZ 0000000140042660 f i yassl:crypto_wrapper.obj
 0001:00041670       ??1HMAC_SHAImpl@HMAC_SHA@yaSSL@@QEAA@XZ 0000000140042670 f i yassl:crypto_wrapper.obj
 0001:00041680       ??1HMAC_RMDImpl@HMAC_RMD@yaSSL@@QEAA@XZ 0000000140042680 f i yassl:crypto_wrapper.obj
 0001:00041690       ??1DESImpl@DES@yaSSL@@QEAA@XZ 0000000140042690 f i yassl:crypto_wrapper.obj
 0001:000416b0       ??1DES_EDEImpl@DES_EDE@yaSSL@@QEAA@XZ 00000001400426b0 f i yassl:crypto_wrapper.obj
 0001:000416d0       ??1AESImpl@AES@yaSSL@@QEAA@XZ 00000001400426d0 f i yassl:crypto_wrapper.obj
 0001:000416f0       ??1RandomImpl@RandomPool@yaSSL@@QEAA@XZ 00000001400426f0 f i yassl:crypto_wrapper.obj
 0001:00041700       ??0?$RSA_Encryptor@VRSA_BlockType1@TaoCrypt@@@TaoCrypt@@QEAA@AEBVRSA_PublicKey@1@@Z 0000000140042700 f i yassl:crypto_wrapper.obj
 0001:00041710       ?KeyInnerHash@?$HMAC@VMD5@TaoCrypt@@@TaoCrypt@@AEAAXXZ 0000000140042710 f i yassl:crypto_wrapper.obj
 0001:00041740       ?KeyInnerHash@?$HMAC@VSHA@TaoCrypt@@@TaoCrypt@@AEAAXXZ 0000000140042740 f i yassl:crypto_wrapper.obj
 0001:00041770       ?KeyInnerHash@?$HMAC@VRIPEMD160@TaoCrypt@@@TaoCrypt@@AEAAXXZ 0000000140042770 f i yassl:crypto_wrapper.obj
 0001:000417a0       ??_GSHA@TaoCrypt@@UEAAPEAXI@Z 00000001400427a0 f i yassl:crypto_wrapper.obj
 0001:000417a0       ??_ESHA@TaoCrypt@@UEAAPEAXI@Z 00000001400427a0 f i yassl:crypto_wrapper.obj
 0001:000417d0       ??_GRIPEMD160@TaoCrypt@@UEAAPEAXI@Z 00000001400427d0 f i yassl:crypto_wrapper.obj
 0001:000417d0       ??_ERIPEMD160@TaoCrypt@@UEAAPEAXI@Z 00000001400427d0 f i yassl:crypto_wrapper.obj
 0001:00041800       ?Process@Mode_BASE@TaoCrypt@@UEAAXPEAEPEBEI@Z 0000000140042800 f i yassl:crypto_wrapper.obj
 0001:000418e0       ??_EDES@TaoCrypt@@UEAAPEAXI@Z 00000001400428e0 f i yassl:crypto_wrapper.obj
 0001:000418e0       ??_GDES@TaoCrypt@@UEAAPEAXI@Z 00000001400428e0 f i yassl:crypto_wrapper.obj
 0001:00041910       ??_GDES_EDE3@TaoCrypt@@UEAAPEAXI@Z 0000000140042910 f i yassl:crypto_wrapper.obj
 0001:00041910       ??_EDES_EDE3@TaoCrypt@@UEAAPEAXI@Z 0000000140042910 f i yassl:crypto_wrapper.obj
 0001:00041940       ??_GAES@TaoCrypt@@UEAAPEAXI@Z 0000000140042940 f i yassl:crypto_wrapper.obj
 0001:00041940       ??_EAES@TaoCrypt@@UEAAPEAXI@Z 0000000140042940 f i yassl:crypto_wrapper.obj
 0001:00041970       ?FixedMaxPlaintextLength@PK_Lengths@TaoCrypt@@QEBAIXZ 0000000140042970 f i yassl:crypto_wrapper.obj
 0001:000419a0       ?Initialize@DH@TaoCrypt@@QEAAXAEAVInteger@2@0@Z 00000001400429a0 f i yassl:crypto_wrapper.obj
 0001:000419d0       ??0MD5@yaSSL@@QEAA@XZ      00000001400429d0 f   yassl:crypto_wrapper.obj
 0001:00041a50       ??0DESImpl@DES@yaSSL@@QEAA@XZ 0000000140042a50 f i yassl:crypto_wrapper.obj
 0001:00041ad0       ?set_encryptKey@DES@yaSSL@@UEAAXPEBE0@Z 0000000140042ad0 f   yassl:crypto_wrapper.obj
 0001:00041b10       ?set_decryptKey@DES@yaSSL@@UEAAXPEBE0@Z 0000000140042b10 f   yassl:crypto_wrapper.obj
 0001:00041b60       ?encrypt@DES@yaSSL@@UEAAXPEAEPEBEI@Z 0000000140042b60 f   yassl:crypto_wrapper.obj
 0001:00041b70       ?decrypt@DES@yaSSL@@UEAAXPEAEPEBEI@Z 0000000140042b70 f   yassl:crypto_wrapper.obj
 0001:00041b90       ??0DES_EDEImpl@DES_EDE@yaSSL@@QEAA@XZ 0000000140042b90 f i yassl:crypto_wrapper.obj
 0001:00041c10       ?set_encryptKey@DES_EDE@yaSSL@@UEAAXPEBE0@Z 0000000140042c10 f   yassl:crypto_wrapper.obj
 0001:00041c50       ?set_decryptKey@DES_EDE@yaSSL@@UEAAXPEBE0@Z 0000000140042c50 f   yassl:crypto_wrapper.obj
 0001:00041c90       ?encrypt@DES_EDE@yaSSL@@UEAAXPEAEPEBEI@Z 0000000140042c90 f   yassl:crypto_wrapper.obj
 0001:00041ca0       ?decrypt@DES_EDE@yaSSL@@UEAAXPEAEPEBEI@Z 0000000140042ca0 f   yassl:crypto_wrapper.obj
 0001:00041cc0       ??0RC4@yaSSL@@QEAA@XZ      0000000140042cc0 f   yassl:crypto_wrapper.obj
 0001:00041cf0       ?get_blockSize@RC4@yaSSL@@UEBAIXZ 0000000140042cf0 f i yassl:crypto_wrapper.obj
 0001:00041d00       ?get_keySize@RC4@yaSSL@@UEBAHXZ 0000000140042d00 f i yassl:crypto_wrapper.obj
 0001:00041d10       ?get_ivSize@RC4@yaSSL@@UEBAHXZ 0000000140042d10 f i yassl:crypto_wrapper.obj
 0001:00041d20       ??1RC4@yaSSL@@UEAA@XZ      0000000140042d20 f   yassl:crypto_wrapper.obj
 0001:00041d50       ??0AESImpl@AES@yaSSL@@QEAA@I@Z 0000000140042d50 f i yassl:crypto_wrapper.obj
 0001:00041dd0       ??0AES@yaSSL@@QEAA@I@Z     0000000140042dd0 f   yassl:crypto_wrapper.obj
 0001:00041eb0       ?get_blockSize@AES@yaSSL@@UEBAIXZ 0000000140042eb0 f i yassl:crypto_wrapper.obj
 0001:00041ec0       ?get_ivSize@AES@yaSSL@@UEBAHXZ 0000000140042ec0 f i yassl:crypto_wrapper.obj
 0001:00041ed0       ?set_encryptKey@AES@yaSSL@@UEAAXPEBE0@Z 0000000140042ed0 f   yassl:crypto_wrapper.obj
 0001:00041f10       ?set_decryptKey@AES@yaSSL@@UEAAXPEBE0@Z 0000000140042f10 f   yassl:crypto_wrapper.obj
 0001:00041f60       ?encrypt@AES@yaSSL@@UEAAXPEAEPEBEI@Z 0000000140042f60 f   yassl:crypto_wrapper.obj
 0001:00041f70       ?decrypt@AES@yaSSL@@UEAAXPEAEPEBEI@Z 0000000140042f70 f   yassl:crypto_wrapper.obj
 0001:00041f90       ??0RandomPool@yaSSL@@QEAA@XZ 0000000140042f90 f   yassl:crypto_wrapper.obj
 0001:00041fe0       ??0?$HMAC@VMD5@TaoCrypt@@@TaoCrypt@@QEAA@XZ 0000000140042fe0 f i yassl:crypto_wrapper.obj
 0001:00042050       ??0?$HMAC@VSHA@TaoCrypt@@@TaoCrypt@@QEAA@XZ 0000000140043050 f i yassl:crypto_wrapper.obj
 0001:000420c0       ??0?$HMAC@VRIPEMD160@TaoCrypt@@@TaoCrypt@@QEAA@XZ 00000001400430c0 f i yassl:crypto_wrapper.obj
 0001:00042130       ?deallocate@?$AllocatorWithCleanup@_K@TaoCrypt@@QEAAXPEAX_K@Z 0000000140043130 f i yassl:crypto_wrapper.obj
 0001:00042160       ?Update@?$HMAC@VMD5@TaoCrypt@@@TaoCrypt@@QEAAXPEBEI@Z 0000000140043160 f i yassl:crypto_wrapper.obj
 0001:000421b0       ?Final@?$HMAC@VMD5@TaoCrypt@@@TaoCrypt@@QEAAXPEAE@Z 00000001400431b0 f i yassl:crypto_wrapper.obj
 0001:00042230       ?Update@?$HMAC@VSHA@TaoCrypt@@@TaoCrypt@@QEAAXPEBEI@Z 0000000140043230 f i yassl:crypto_wrapper.obj
 0001:00042280       ?Final@?$HMAC@VSHA@TaoCrypt@@@TaoCrypt@@QEAAXPEAE@Z 0000000140043280 f i yassl:crypto_wrapper.obj
 0001:00042300       ?Update@?$HMAC@VRIPEMD160@TaoCrypt@@@TaoCrypt@@QEAAXPEBEI@Z 0000000140043300 f i yassl:crypto_wrapper.obj
 0001:00042350       ?Final@?$HMAC@VRIPEMD160@TaoCrypt@@@TaoCrypt@@QEAAXPEAE@Z 0000000140043350 f i yassl:crypto_wrapper.obj
 0001:000423d0       ??_GMD5Impl@MD5@yaSSL@@QEAAPEAXI@Z 00000001400433d0 f i yassl:crypto_wrapper.obj
 0001:00042400       ??_GSHAImpl@SHA@yaSSL@@QEAAPEAXI@Z 0000000140043400 f i yassl:crypto_wrapper.obj
 0001:00042430       ??_GRMDImpl@RMD@yaSSL@@QEAAPEAXI@Z 0000000140043430 f i yassl:crypto_wrapper.obj
 0001:00042460       ??_GHMAC_MD5Impl@HMAC_MD5@yaSSL@@QEAAPEAXI@Z 0000000140043460 f i yassl:crypto_wrapper.obj
 0001:00042490       ??_GHMAC_SHAImpl@HMAC_SHA@yaSSL@@QEAAPEAXI@Z 0000000140043490 f i yassl:crypto_wrapper.obj
 0001:000424c0       ??_GHMAC_RMDImpl@HMAC_RMD@yaSSL@@QEAAPEAXI@Z 00000001400434c0 f i yassl:crypto_wrapper.obj
 0001:000424f0       ??_GDESImpl@DES@yaSSL@@QEAAPEAXI@Z 00000001400434f0 f i yassl:crypto_wrapper.obj
 0001:00042520       ??_GDES_EDEImpl@DES_EDE@yaSSL@@QEAAPEAXI@Z 0000000140043520 f i yassl:crypto_wrapper.obj
 0001:00042550       ??_GAESImpl@AES@yaSSL@@QEAAPEAXI@Z 0000000140043550 f i yassl:crypto_wrapper.obj
 0001:00042580       ??_GRandomImpl@RandomPool@yaSSL@@QEAAPEAXI@Z 0000000140043580 f i yassl:crypto_wrapper.obj
 0001:000425b0       ??0HMAC_MD5Impl@HMAC_MD5@yaSSL@@QEAA@XZ 00000001400435b0 f i yassl:crypto_wrapper.obj
 0001:00042620       ??0HMAC_MD5@yaSSL@@QEAA@PEBEI@Z 0000000140043620 f   yassl:crypto_wrapper.obj
 0001:000426f0       ?get_digest@HMAC_MD5@yaSSL@@UEAAXPEAEPEBEI@Z 00000001400436f0 f   yassl:crypto_wrapper.obj
 0001:00042730       ?get_digest@HMAC_MD5@yaSSL@@UEAAXPEAE@Z 0000000140043730 f   yassl:crypto_wrapper.obj
 0001:00042740       ?update@HMAC_MD5@yaSSL@@UEAAXPEBEI@Z 0000000140043740 f   yassl:crypto_wrapper.obj
 0001:00042750       ??0HMAC_SHAImpl@HMAC_SHA@yaSSL@@QEAA@XZ 0000000140043750 f i yassl:crypto_wrapper.obj
 0001:000427c0       ??0HMAC_SHA@yaSSL@@QEAA@PEBEI@Z 00000001400437c0 f   yassl:crypto_wrapper.obj
 0001:00042890       ?get_digest@HMAC_SHA@yaSSL@@UEAAXPEAEPEBEI@Z 0000000140043890 f   yassl:crypto_wrapper.obj
 0001:000428d0       ?get_digest@HMAC_SHA@yaSSL@@UEAAXPEAE@Z 00000001400438d0 f   yassl:crypto_wrapper.obj
 0001:000428e0       ?update@HMAC_SHA@yaSSL@@UEAAXPEBEI@Z 00000001400438e0 f   yassl:crypto_wrapper.obj
 0001:000428f0       ??0HMAC_RMDImpl@HMAC_RMD@yaSSL@@QEAA@XZ 00000001400438f0 f i yassl:crypto_wrapper.obj
 0001:00042960       ??0HMAC_RMD@yaSSL@@QEAA@PEBEI@Z 0000000140043960 f   yassl:crypto_wrapper.obj
 0001:00042a30       ?get_digest@HMAC_RMD@yaSSL@@UEAAXPEAEPEBEI@Z 0000000140043a30 f   yassl:crypto_wrapper.obj
 0001:00042a70       ?get_digest@HMAC_RMD@yaSSL@@UEAAXPEAE@Z 0000000140043a70 f   yassl:crypto_wrapper.obj
 0001:00042a80       ?update@HMAC_RMD@yaSSL@@UEAAXPEBEI@Z 0000000140043a80 f   yassl:crypto_wrapper.obj
 0001:00042a90       ??0DES@yaSSL@@QEAA@XZ      0000000140043a90 f   yassl:crypto_wrapper.obj
 0001:00042b50       ?get_blockSize@DES@yaSSL@@UEBAIXZ 0000000140043b50 f i yassl:crypto_wrapper.obj
 0001:00042b60       ?get_keySize@DES@yaSSL@@UEBAHXZ 0000000140043b60 f i yassl:crypto_wrapper.obj
 0001:00042b70       ?get_ivSize@DES@yaSSL@@UEBAHXZ 0000000140043b70 f i yassl:crypto_wrapper.obj
 0001:00042b80       ??0DES_EDE@yaSSL@@QEAA@XZ  0000000140043b80 f   yassl:crypto_wrapper.obj
 0001:00042c40       ?get_blockSize@DES_EDE@yaSSL@@UEBAIXZ 0000000140043c40 f i yassl:crypto_wrapper.obj
 0001:00042c50       ?get_keySize@DES_EDE@yaSSL@@UEBAHXZ 0000000140043c50 f i yassl:crypto_wrapper.obj
 0001:00042c60       ?get_ivSize@DES_EDE@yaSSL@@UEBAHXZ 0000000140043c60 f i yassl:crypto_wrapper.obj
 0001:00042c70       ??_GRC4@yaSSL@@UEAAPEAXI@Z 0000000140043c70 f i yassl:crypto_wrapper.obj
 0001:00042c70       ??_ERC4@yaSSL@@UEAAPEAXI@Z 0000000140043c70 f i yassl:crypto_wrapper.obj
 0001:00042ca0       ??1?$Block@_KV?$AllocatorWithCleanup@_K@TaoCrypt@@@TaoCrypt@@QEAA@XZ 0000000140043ca0 f i yassl:crypto_wrapper.obj
 0001:00042cd0       ??$ysDelete@UMD5Impl@MD5@yaSSL@@@yaSSL@@YAXPEAUMD5Impl@MD5@0@@Z 0000000140043cd0 f i yassl:crypto_wrapper.obj
 0001:00042cf0       ??$ysDelete@USHAImpl@SHA@yaSSL@@@yaSSL@@YAXPEAUSHAImpl@SHA@0@@Z 0000000140043cf0 f i yassl:crypto_wrapper.obj
 0001:00042d10       ??$ysDelete@URMDImpl@RMD@yaSSL@@@yaSSL@@YAXPEAURMDImpl@RMD@0@@Z 0000000140043d10 f i yassl:crypto_wrapper.obj
 0001:00042d30       ??$ysDelete@UHMAC_MD5Impl@HMAC_MD5@yaSSL@@@yaSSL@@YAXPEAUHMAC_MD5Impl@HMAC_MD5@0@@Z 0000000140043d30 f i yassl:crypto_wrapper.obj
 0001:00042d50       ??$ysDelete@UHMAC_SHAImpl@HMAC_SHA@yaSSL@@@yaSSL@@YAXPEAUHMAC_SHAImpl@HMAC_SHA@0@@Z 0000000140043d50 f i yassl:crypto_wrapper.obj
 0001:00042d70       ??$ysDelete@UHMAC_RMDImpl@HMAC_RMD@yaSSL@@@yaSSL@@YAXPEAUHMAC_RMDImpl@HMAC_RMD@0@@Z 0000000140043d70 f i yassl:crypto_wrapper.obj
 0001:00042d90       ??$ysDelete@UDESImpl@DES@yaSSL@@@yaSSL@@YAXPEAUDESImpl@DES@0@@Z 0000000140043d90 f i yassl:crypto_wrapper.obj
 0001:00042dc0       ??$ysDelete@UDES_EDEImpl@DES_EDE@yaSSL@@@yaSSL@@YAXPEAUDES_EDEImpl@DES_EDE@0@@Z 0000000140043dc0 f i yassl:crypto_wrapper.obj
 0001:00042df0       ??$ysDelete@UAESImpl@AES@yaSSL@@@yaSSL@@YAXPEAUAESImpl@AES@0@@Z 0000000140043df0 f i yassl:crypto_wrapper.obj
 0001:00042e20       ??$ysDelete@URandomImpl@RandomPool@yaSSL@@@yaSSL@@YAXPEAURandomImpl@RandomPool@0@@Z 0000000140043e20 f i yassl:crypto_wrapper.obj
 0001:00042e50       ??1Integer@TaoCrypt@@QEAA@XZ 0000000140043e50 f i yassl:crypto_wrapper.obj
 0001:00042e80       ??0RSA_PublicKey@TaoCrypt@@QEAA@XZ 0000000140043e80 f i yassl:crypto_wrapper.obj
 0001:00042ea0       ??0RSA_PublicKey@TaoCrypt@@QEAA@AEBV01@@Z 0000000140043ea0 f i yassl:crypto_wrapper.obj
 0001:00042ed0       ??1RSA_PublicKey@TaoCrypt@@QEAA@XZ 0000000140043ed0 f i yassl:crypto_wrapper.obj
 0001:00042f30       ??0RSA_PrivateKey@TaoCrypt@@QEAA@XZ 0000000140043f30 f i yassl:crypto_wrapper.obj
 0001:00042fa0       ??0DSA_PublicKey@TaoCrypt@@QEAA@XZ 0000000140043fa0 f i yassl:crypto_wrapper.obj
 0001:00042fe0       ??1DSA_PublicKey@TaoCrypt@@QEAA@XZ 0000000140043fe0 f i yassl:crypto_wrapper.obj
 0001:00043070       ??0DH@TaoCrypt@@QEAA@XZ    0000000140044070 f i yassl:crypto_wrapper.obj
 0001:00043090       ??0DH@TaoCrypt@@QEAA@AEBV01@@Z 0000000140044090 f i yassl:crypto_wrapper.obj
 0001:000430c0       ??1DH@TaoCrypt@@QEAA@XZ    00000001400440c0 f i yassl:crypto_wrapper.obj
 0001:00043120       ??1MD5@yaSSL@@UEAA@XZ      0000000140044120 f   yassl:crypto_wrapper.obj
 0001:00043150       ??1SHA@yaSSL@@UEAA@XZ      0000000140044150 f   yassl:crypto_wrapper.obj
 0001:00043180       ??1RMD@yaSSL@@UEAA@XZ      0000000140044180 f   yassl:crypto_wrapper.obj
 0001:000431b0       ??1HMAC_MD5@yaSSL@@UEAA@XZ 00000001400441b0 f   yassl:crypto_wrapper.obj
 0001:000431e0       ??1HMAC_SHA@yaSSL@@UEAA@XZ 00000001400441e0 f   yassl:crypto_wrapper.obj
 0001:00043210       ??1HMAC_RMD@yaSSL@@UEAA@XZ 0000000140044210 f   yassl:crypto_wrapper.obj
 0001:00043240       ??1DES@yaSSL@@UEAA@XZ      0000000140044240 f   yassl:crypto_wrapper.obj
 0001:00043270       ??1DES_EDE@yaSSL@@UEAA@XZ  0000000140044270 f   yassl:crypto_wrapper.obj
 0001:000432a0       ??1AES@yaSSL@@UEAA@XZ      00000001400442a0 f   yassl:crypto_wrapper.obj
 0001:000432d0       ??1RandomPool@yaSSL@@QEAA@XZ 00000001400442d0 f   yassl:crypto_wrapper.obj
 0001:000432e0       ?SetPublic@DSSImpl@DSS@yaSSL@@QEAAXPEBEI@Z 00000001400442e0 f   yassl:crypto_wrapper.obj
 0001:00043370       ?SetPrivate@DSSImpl@DSS@yaSSL@@QEAAXPEBEI@Z 0000000140044370 f   yassl:crypto_wrapper.obj
 0001:000434b0       ??1DSA_PrivateKey@TaoCrypt@@QEAA@XZ 00000001400444b0 f i yassl:crypto_wrapper.obj
 0001:00043570       ??1DSA_Signer@TaoCrypt@@QEAA@XZ 0000000140044570 f i yassl:crypto_wrapper.obj
 0001:000435d0       ??1DSA_Verifier@TaoCrypt@@QEAA@XZ 00000001400445d0 f i yassl:crypto_wrapper.obj
 0001:00043630       ?SetPublic@RSAImpl@RSA@yaSSL@@QEAAXPEBEI@Z 0000000140044630 f   yassl:crypto_wrapper.obj
 0001:000436c0       ??1RSA_PrivateKey@TaoCrypt@@QEAA@XZ 00000001400446c0 f i yassl:crypto_wrapper.obj
 0001:000437e0       ??0IntegerImpl@Integer@yaSSL@@QEAA@XZ 00000001400447e0 f i yassl:crypto_wrapper.obj
 0001:00043800       ??0IntegerImpl@Integer@yaSSL@@QEAA@AEBV1TaoCrypt@@@Z 0000000140044800 f i yassl:crypto_wrapper.obj
 0001:00043820       ??0Integer@yaSSL@@QEAA@XZ  0000000140044820 f   yassl:crypto_wrapper.obj
 0001:00043870       ??0Integer@yaSSL@@QEAA@AEBV01@@Z 0000000140044870 f   yassl:crypto_wrapper.obj
 0001:000438e0       ?assign@Integer@yaSSL@@QEAAXPEBEI@Z 00000001400448e0 f   yassl:crypto_wrapper.obj
 0001:00043930       ??0DHImpl@DiffieHellman@yaSSL@@QEAA@AEAVRandomNumberGenerator@TaoCrypt@@@Z 0000000140044930 f i yassl:crypto_wrapper.obj
 0001:00043970       ??1DHImpl@DiffieHellman@yaSSL@@QEAA@XZ 0000000140044970 f i yassl:crypto_wrapper.obj
 0001:000439e0       ??0DHImpl@DiffieHellman@yaSSL@@QEAA@AEBU012@@Z 00000001400449e0 f i yassl:crypto_wrapper.obj
 0001:00043a60       ??0DiffieHellman@yaSSL@@QEAA@PEBEI0I0IAEBVRandomPool@1@@Z 0000000140044a60 f   yassl:crypto_wrapper.obj
 0001:00043ba0       ??0DiffieHellman@yaSSL@@QEAA@AEBVInteger@1@0AEBVRandomPool@1@@Z 0000000140044ba0 f   yassl:crypto_wrapper.obj
 0001:00043c90       ??0DiffieHellman@yaSSL@@QEAA@AEBV01@@Z 0000000140044c90 f   yassl:crypto_wrapper.obj
 0001:00043d50       ?set_sizes@DiffieHellman@yaSSL@@QEBAXAEAH00@Z 0000000140044d50 f   yassl:crypto_wrapper.obj
 0001:00043e10       ?get_parms@DiffieHellman@yaSSL@@QEBAXPEAE00@Z 0000000140044e10 f   yassl:crypto_wrapper.obj
 0001:00043f00       ??1Base64Decoder@TaoCrypt@@QEAA@XZ 0000000140044f00 f i yassl:crypto_wrapper.obj
 0001:00043f30       ??_GDHImpl@DiffieHellman@yaSSL@@QEAAPEAXI@Z 0000000140044f30 f i yassl:crypto_wrapper.obj
 0001:00043fc0       ??1DSSImpl@DSS@yaSSL@@QEAA@XZ 0000000140044fc0 f i yassl:crypto_wrapper.obj
 0001:00044110       ??1RSAImpl@RSA@yaSSL@@QEAA@XZ 0000000140045110 f i yassl:crypto_wrapper.obj
 0001:00044170       ??1IntegerImpl@Integer@yaSSL@@QEAA@XZ 0000000140045170 f i yassl:crypto_wrapper.obj
 0001:000441a0       ??4RSA_PublicKey@TaoCrypt@@QEAAAEAV01@AEBV01@@Z 00000001400451a0 f i yassl:crypto_wrapper.obj
 0001:00044240       ??0DSA_PrivateKey@TaoCrypt@@QEAA@XZ 0000000140045240 f i yassl:crypto_wrapper.obj
 0001:00044280       ??4DH@TaoCrypt@@QEAAAEAV01@AEBV01@@Z 0000000140045280 f i yassl:crypto_wrapper.obj
 0001:00044320       ??_EMD5@yaSSL@@UEAAPEAXI@Z 0000000140045320 f i yassl:crypto_wrapper.obj
 0001:00044320       ??_GMD5@yaSSL@@UEAAPEAXI@Z 0000000140045320 f i yassl:crypto_wrapper.obj
 0001:00044350       ??_ESHA@yaSSL@@UEAAPEAXI@Z 0000000140045350 f i yassl:crypto_wrapper.obj
 0001:00044350       ??_GSHA@yaSSL@@UEAAPEAXI@Z 0000000140045350 f i yassl:crypto_wrapper.obj
 0001:00044380       ??_ERMD@yaSSL@@UEAAPEAXI@Z 0000000140045380 f i yassl:crypto_wrapper.obj
 0001:00044380       ??_GRMD@yaSSL@@UEAAPEAXI@Z 0000000140045380 f i yassl:crypto_wrapper.obj
 0001:000443b0       ??_EHMAC_MD5@yaSSL@@UEAAPEAXI@Z 00000001400453b0 f i yassl:crypto_wrapper.obj
 0001:000443b0       ??_GHMAC_MD5@yaSSL@@UEAAPEAXI@Z 00000001400453b0 f i yassl:crypto_wrapper.obj
 0001:000443e0       ??_EHMAC_SHA@yaSSL@@UEAAPEAXI@Z 00000001400453e0 f i yassl:crypto_wrapper.obj
 0001:000443e0       ??_GHMAC_SHA@yaSSL@@UEAAPEAXI@Z 00000001400453e0 f i yassl:crypto_wrapper.obj
 0001:00044410       ??_EHMAC_RMD@yaSSL@@UEAAPEAXI@Z 0000000140045410 f i yassl:crypto_wrapper.obj
 0001:00044410       ??_GHMAC_RMD@yaSSL@@UEAAPEAXI@Z 0000000140045410 f i yassl:crypto_wrapper.obj
 0001:00044440       ??_GDES@yaSSL@@UEAAPEAXI@Z 0000000140045440 f i yassl:crypto_wrapper.obj
 0001:00044440       ??_EDES@yaSSL@@UEAAPEAXI@Z 0000000140045440 f i yassl:crypto_wrapper.obj
 0001:00044470       ??_GDES_EDE@yaSSL@@UEAAPEAXI@Z 0000000140045470 f i yassl:crypto_wrapper.obj
 0001:00044470       ??_EDES_EDE@yaSSL@@UEAAPEAXI@Z 0000000140045470 f i yassl:crypto_wrapper.obj
 0001:000444a0       ??_EAES@yaSSL@@UEAAPEAXI@Z 00000001400454a0 f i yassl:crypto_wrapper.obj
 0001:000444a0       ??_GAES@yaSSL@@UEAAPEAXI@Z 00000001400454a0 f i yassl:crypto_wrapper.obj
 0001:000444d0       ??0DSSImpl@DSS@yaSSL@@QEAA@XZ 00000001400454d0 f i yassl:crypto_wrapper.obj
 0001:00044550       ?sign@DSS@yaSSL@@UEAAXPEAEPEBEIAEBVRandomPool@2@@Z 0000000140045550 f   yassl:crypto_wrapper.obj
 0001:000445e0       ?verify@DSS@yaSSL@@UEAA_NPEBEI0I@Z 00000001400455e0 f   yassl:crypto_wrapper.obj
 0001:00044670       ?SetPrivate@RSAImpl@RSA@yaSSL@@QEAAXPEBEI@Z 0000000140045670 f   yassl:crypto_wrapper.obj
 0001:000447f0       ??0RSAImpl@RSA@yaSSL@@QEAA@XZ 00000001400457f0 f i yassl:crypto_wrapper.obj
 0001:00044880       ??4DiffieHellman@yaSSL@@QEAAAEAV01@AEBV01@@Z 0000000140045880 f   yassl:crypto_wrapper.obj
 0001:00044940       ?Decrypt@?$RSA_Decryptor@VRSA_BlockType2@TaoCrypt@@@TaoCrypt@@QEAAIPEBEIPEAEAEAVRandomNumberGenerator@2@@Z 0000000140045940 f i yassl:crypto_wrapper.obj
 0001:00044ae0       ?Encrypt@?$RSA_Encryptor@VRSA_BlockType2@TaoCrypt@@@TaoCrypt@@QEAAXPEBEIPEAEAEAVRandomNumberGenerator@2@@Z 0000000140045ae0 f i yassl:crypto_wrapper.obj
 0001:00044c40       ?SSL_Verify@?$RSA_Encryptor@VRSA_BlockType2@TaoCrypt@@@TaoCrypt@@QEAA_NPEBEI0@Z 0000000140045c40 f i yassl:crypto_wrapper.obj
 0001:00044d30       ??$ysDelete@UDHImpl@DiffieHellman@yaSSL@@@yaSSL@@YAXPEAUDHImpl@DiffieHellman@0@@Z 0000000140045d30 f i yassl:crypto_wrapper.obj
 0001:00044db0       ??_GDSSImpl@DSS@yaSSL@@QEAAPEAXI@Z 0000000140045db0 f i yassl:crypto_wrapper.obj
 0001:00044de0       ??_GRSAImpl@RSA@yaSSL@@QEAAPEAXI@Z 0000000140045de0 f i yassl:crypto_wrapper.obj
 0001:00044e60       ??_GIntegerImpl@Integer@yaSSL@@QEAAPEAXI@Z 0000000140045e60 f i yassl:crypto_wrapper.obj
 0001:00044ec0       ?Encrypt@?$RSA_Encryptor@VRSA_BlockType1@TaoCrypt@@@TaoCrypt@@QEAAXPEBEIPEAEAEAVRandomNumberGenerator@2@@Z 0000000140045ec0 f i yassl:crypto_wrapper.obj
 0001:00045020       ??0Base64Decoder@TaoCrypt@@QEAA@AEAVSource@1@@Z 0000000140046020 f i yassl:crypto_wrapper.obj
 0001:00045080       ??0DSS@yaSSL@@QEAA@PEBEI_N@Z 0000000140046080 f   yassl:crypto_wrapper.obj
 0001:00045180       ??0RSA@yaSSL@@QEAA@PEBEI_N@Z 0000000140046180 f   yassl:crypto_wrapper.obj
 0001:00045280       ?verify@RSA@yaSSL@@UEAA_NPEBEI0I@Z 0000000140046280 f   yassl:crypto_wrapper.obj
 0001:000452a0       ?encrypt@RSA@yaSSL@@QEAAXPEAEPEBEIAEBVRandomPool@2@@Z 00000001400462a0 f   yassl:crypto_wrapper.obj
 0001:000452e0       ?decrypt@RSA@yaSSL@@QEAAXPEAEPEBEIAEBVRandomPool@2@@Z 00000001400462e0 f   yassl:crypto_wrapper.obj
 0001:00045320       ??1DiffieHellman@yaSSL@@QEAA@XZ 0000000140046320 f   yassl:crypto_wrapper.obj
 0001:00045330       ?PemToDer@yaSSL@@YAPEAVx509@1@PEAU_iobuf@@W4CertType@1@PEAUEncryptedInfo@1@@Z 0000000140046330 f   yassl:crypto_wrapper.obj
 0001:00045810       ??$ysDelete@UDSSImpl@DSS@yaSSL@@@yaSSL@@YAXPEAUDSSImpl@DSS@0@@Z 0000000140046810 f i yassl:crypto_wrapper.obj
 0001:00045840       ??$ysDelete@URSAImpl@RSA@yaSSL@@@yaSSL@@YAXPEAURSAImpl@RSA@0@@Z 0000000140046840 f i yassl:crypto_wrapper.obj
 0001:000458b0       ?SSL_Sign@?$RSA_Decryptor@VRSA_BlockType2@TaoCrypt@@@TaoCrypt@@QEAAXPEBEIPEAEAEAVRandomNumberGenerator@2@@Z 00000001400468b0 f i yassl:crypto_wrapper.obj
 0001:00045990       ??$ysDelete@UIntegerImpl@Integer@yaSSL@@@yaSSL@@YAXPEAUIntegerImpl@Integer@0@@Z 0000000140046990 f i yassl:crypto_wrapper.obj
 0001:000459e0       ??1DSS@yaSSL@@UEAA@XZ      00000001400469e0 f   yassl:crypto_wrapper.obj
 0001:00045a10       ??1RSA@yaSSL@@UEAA@XZ      0000000140046a10 f   yassl:crypto_wrapper.obj
 0001:00045a40       ?sign@RSA@yaSSL@@UEAAXPEAEPEBEIAEBVRandomPool@2@@Z 0000000140046a40 f   yassl:crypto_wrapper.obj
 0001:00045a80       ??1Integer@yaSSL@@QEAA@XZ  0000000140046a80 f   yassl:crypto_wrapper.obj
 0001:00045a90       ??_EDSS@yaSSL@@UEAAPEAXI@Z 0000000140046a90 f i yassl:crypto_wrapper.obj
 0001:00045a90       ??_GDSS@yaSSL@@UEAAPEAXI@Z 0000000140046a90 f i yassl:crypto_wrapper.obj
 0001:00045ac0       ??_ERSA@yaSSL@@UEAAPEAXI@Z 0000000140046ac0 f i yassl:crypto_wrapper.obj
 0001:00045ac0       ??_GRSA@yaSSL@@UEAAPEAXI@Z 0000000140046ac0 f i yassl:crypto_wrapper.obj
 0001:00045af0       ??0Message@yaSSL@@QEAA@XZ  0000000140046af0 f i yassl:yassl_imp.obj
 0001:00045b00       ??0HandShakeHeader@yaSSL@@QEAA@XZ 0000000140046b00 f i yassl:yassl_imp.obj
 0001:00045b10       ??1HandShakeHeader@yaSSL@@UEAA@XZ 0000000140046b10 f i yassl:yassl_imp.obj
 0001:00045b20       ??1ServerKeyBase@yaSSL@@UEAA@XZ 0000000140046b20 f i yassl:yassl_imp.obj
 0001:00045b30       ?build@ServerKeyBase@yaSSL@@UEAAXAEAVSSL@2@@Z 0000000140046b30 f i yassl:yassl_imp.obj
 0001:00045b40       ?read@ServerKeyBase@yaSSL@@UEAAXAEAVSSL@2@AEAVinput_buffer@2@@Z 0000000140046b40 f i yassl:yassl_imp.obj
 0001:00045b50       ??_GServerKeyBase@yaSSL@@UEAAPEAXI@Z 0000000140046b50 f i yassl:yassl_imp.obj
 0001:00045b50       ??_EServerKeyBase@yaSSL@@UEAAPEAXI@Z 0000000140046b50 f i yassl:yassl_imp.obj
 0001:00045b80       ??1ClientKeyBase@yaSSL@@UEAA@XZ 0000000140046b80 f i yassl:yassl_imp.obj
 0001:00045b90       ?build@ClientKeyBase@yaSSL@@UEAAXAEAVSSL@2@@Z 0000000140046b90 f i yassl:yassl_imp.obj
 0001:00045ba0       ?read@ClientKeyBase@yaSSL@@UEAAXAEAVSSL@2@AEAVinput_buffer@2@@Z 0000000140046ba0 f i yassl:yassl_imp.obj
 0001:00045bb0       ??_GClientKeyBase@yaSSL@@UEAAPEAXI@Z 0000000140046bb0 f i yassl:yassl_imp.obj
 0001:00045bb0       ??_EClientKeyBase@yaSSL@@UEAAPEAXI@Z 0000000140046bb0 f i yassl:yassl_imp.obj
 0001:00045be0       ?isTLS@?A0xfbf2790c@yaSSL@@YA_NUProtocolVersion@2@@Z 0000000140046be0 f   yassl:yassl_imp.obj
 0001:00045c00       ??0ProtocolVersion@yaSSL@@QEAA@EE@Z 0000000140046c00 f   yassl:yassl_imp.obj
 0001:00045c10       ??0ClientKeyBase@yaSSL@@QEAA@XZ 0000000140046c10 f i yassl:yassl_imp.obj
 0001:00045c20       ?get_length@EncryptedPreMasterSecret@yaSSL@@UEBAHXZ 0000000140046c20 f   yassl:yassl_imp.obj
 0001:00045c30       ?get_clientKey@EncryptedPreMasterSecret@yaSSL@@UEBAPEAEXZ 0000000140046c30 f   yassl:yassl_imp.obj
 0001:00045c40       ?alloc@EncryptedPreMasterSecret@yaSSL@@QEAAXH@Z 0000000140046c40 f   yassl:yassl_imp.obj
 0001:00045c60       ??0ClientDiffieHellmanPublic@yaSSL@@QEAA@XZ 0000000140046c60 f   yassl:yassl_imp.obj
 0001:00045c80       ?get_length@ClientDiffieHellmanPublic@yaSSL@@UEBAHXZ 0000000140046c80 f   yassl:yassl_imp.obj
 0001:00045c90       ?get_clientKey@ClientDiffieHellmanPublic@yaSSL@@UEBAPEAEXZ 0000000140046c90 f   yassl:yassl_imp.obj
 0001:00045ca0       ?alloc@ClientDiffieHellmanPublic@yaSSL@@QEAAXH_N@Z 0000000140046ca0 f   yassl:yassl_imp.obj
 0001:00045cd0       ??0ServerKeyBase@yaSSL@@QEAA@XZ 0000000140046cd0 f i yassl:yassl_imp.obj
 0001:00045ce0       ?get_length@DH_Server@yaSSL@@UEBAHXZ 0000000140046ce0 f   yassl:yassl_imp.obj
 0001:00045cf0       ?get_serverKey@DH_Server@yaSSL@@UEBAPEAEXZ 0000000140046cf0 f   yassl:yassl_imp.obj
 0001:00045d00       ?SetCipherNames@Parameters@yaSSL@@QEAAXXZ 0000000140046d00 f   yassl:yassl_imp.obj
 0001:00045da0       ??5yaSSL@@YAAEAVinput_buffer@0@AEAV10@AEAURecordLayerHeader@0@@Z 0000000140046da0 f   yassl:yassl_imp.obj
 0001:00045e30       ??6yaSSL@@YAAEAVoutput_buffer@0@AEAV10@AEBURecordLayerHeader@0@@Z 0000000140046e30 f   yassl:yassl_imp.obj
 0001:00045ec0       ??5yaSSL@@YAAEAVinput_buffer@0@AEAV10@AEAUMessage@0@@Z 0000000140046ec0 f   yassl:yassl_imp.obj
 0001:00045ed0       ??6yaSSL@@YAAEAVoutput_buffer@0@AEAV10@AEBUMessage@0@@Z 0000000140046ed0 f   yassl:yassl_imp.obj
 0001:00045ee0       ??5yaSSL@@YAAEAVinput_buffer@0@AEAV10@AEAVHandShakeHeader@0@@Z 0000000140046ee0 f   yassl:yassl_imp.obj
 0001:00045f50       ??6yaSSL@@YAAEAVoutput_buffer@0@AEAV10@AEBVHandShakeHeader@0@@Z 0000000140046f50 f   yassl:yassl_imp.obj
 0001:00045fa0       ?get_type@HandShakeHeader@yaSSL@@UEBA?AW4ContentType@2@XZ 0000000140046fa0 f   yassl:yassl_imp.obj
 0001:00045fb0       ?get_length@HandShakeHeader@yaSSL@@UEBAGXZ 0000000140046fb0 f   yassl:yassl_imp.obj
 0001:00045fc0       ?get_handshakeType@HandShakeHeader@yaSSL@@QEBA?AW4HandShakeType@2@XZ 0000000140046fc0 f   yassl:yassl_imp.obj
 0001:00045fd0       ?set_type@HandShakeHeader@yaSSL@@QEAAXW4HandShakeType@2@@Z 0000000140046fd0 f   yassl:yassl_imp.obj
 0001:00045fe0       ?set_length@HandShakeHeader@yaSSL@@QEAAXI@Z 0000000140046fe0 f   yassl:yassl_imp.obj
 0001:00045ff0       ?set@HandShakeHeader@yaSSL@@UEAAAEAVinput_buffer@2@AEAV32@@Z 0000000140046ff0 f   yassl:yassl_imp.obj
 0001:00046000       ?get@HandShakeHeader@yaSSL@@UEBAAEAVoutput_buffer@2@AEAV32@@Z 0000000140047000 f   yassl:yassl_imp.obj
 0001:00046010       ?get_length@HandShakeBase@yaSSL@@QEBAHXZ 0000000140047010 f   yassl:yassl_imp.obj
 0001:00046020       ?set_length@HandShakeBase@yaSSL@@QEAAXH@Z 0000000140047020 f   yassl:yassl_imp.obj
 0001:00046030       ?get_type@HandShakeBase@yaSSL@@UEBA?AW4HandShakeType@2@XZ 0000000140047030 f   yassl:yassl_imp.obj
 0001:00046040       ?set@HandShakeBase@yaSSL@@UEAAAEAVinput_buffer@2@AEAV32@@Z 0000000140047040 f   yassl:yassl_imp.obj
 0001:00046050       ?get@HandShakeBase@yaSSL@@UEBAAEAVoutput_buffer@2@AEAV32@@Z 0000000140047050 f   yassl:yassl_imp.obj
 0001:00046060       ?Process@HandShakeBase@yaSSL@@UEAAXAEAVinput_buffer@2@AEAVSSL@2@@Z 0000000140047060 f   yassl:yassl_imp.obj
 0001:00046070       ?set@HelloRequest@yaSSL@@UEAAAEAVinput_buffer@2@AEAV32@@Z 0000000140047070 f   yassl:yassl_imp.obj
 0001:00046080       ?get@HelloRequest@yaSSL@@UEBAAEAVoutput_buffer@2@AEAV32@@Z 0000000140047080 f   yassl:yassl_imp.obj
 0001:00046090       ?Process@HelloRequest@yaSSL@@UEAAXAEAVinput_buffer@2@AEAVSSL@2@@Z 0000000140047090 f   yassl:yassl_imp.obj
 0001:000460a0       ?get_type@HelloRequest@yaSSL@@UEBA?AW4HandShakeType@2@XZ 00000001400470a0 f   yassl:yassl_imp.obj
 0001:000460b0       ??5yaSSL@@YAAEAVinput_buffer@0@AEAV10@AEAVChangeCipherSpec@0@@Z 00000001400470b0 f   yassl:yassl_imp.obj
 0001:000460e0       ??6yaSSL@@YAAEAVoutput_buffer@0@AEAV10@AEBVChangeCipherSpec@0@@Z 00000001400470e0 f   yassl:yassl_imp.obj
 0001:00046110       ??0ChangeCipherSpec@yaSSL@@QEAA@XZ 0000000140047110 f   yassl:yassl_imp.obj
 0001:00046130       ??1ChangeCipherSpec@yaSSL@@UEAA@XZ 0000000140047130 f i yassl:yassl_imp.obj
 0001:00046140       ?set@ChangeCipherSpec@yaSSL@@UEAAAEAVinput_buffer@2@AEAV32@@Z 0000000140047140 f   yassl:yassl_imp.obj
 0001:00046150       ?get@ChangeCipherSpec@yaSSL@@UEBAAEAVoutput_buffer@2@AEAV32@@Z 0000000140047150 f   yassl:yassl_imp.obj
 0001:00046160       ?get_type@ChangeCipherSpec@yaSSL@@UEBA?AW4ContentType@2@XZ 0000000140047160 f   yassl:yassl_imp.obj
 0001:00046170       ?get_length@ChangeCipherSpec@yaSSL@@UEBAGXZ 0000000140047170 f   yassl:yassl_imp.obj
 0001:00046180       ?Process@ChangeCipherSpec@yaSSL@@UEAAXAEAVinput_buffer@2@AEAVSSL@2@@Z 0000000140047180 f   yassl:yassl_imp.obj
 0001:00046230       ??0Alert@yaSSL@@QEAA@W4AlertLevel@1@W4AlertDescription@1@@Z 0000000140047230 f   yassl:yassl_imp.obj
 0001:00046250       ?get_type@Alert@yaSSL@@UEBA?AW4ContentType@2@XZ 0000000140047250 f   yassl:yassl_imp.obj
 0001:00046260       ?get_length@Alert@yaSSL@@UEBAGXZ 0000000140047260 f   yassl:yassl_imp.obj
 0001:00046270       ??5yaSSL@@YAAEAVinput_buffer@0@AEAV10@AEAVAlert@0@@Z 0000000140047270 f   yassl:yassl_imp.obj
 0001:000462c0       ??6yaSSL@@YAAEAVoutput_buffer@0@AEAV10@AEBVAlert@0@@Z 00000001400472c0 f   yassl:yassl_imp.obj
 0001:00046310       ?Process@Alert@yaSSL@@UEAAXAEAVinput_buffer@2@AEAVSSL@2@@Z 0000000140047310 f   yassl:yassl_imp.obj
 0001:00046510       ??0Data@yaSSL@@QEAA@XZ     0000000140047510 f   yassl:yassl_imp.obj
 0001:00046530       ??0Data@yaSSL@@QEAA@GPEAE@Z 0000000140047530 f   yassl:yassl_imp.obj
 0001:00046550       ?SetData@Data@yaSSL@@QEAAXGPEBE@Z 0000000140047550 f   yassl:yassl_imp.obj
 0001:00046560       ?set@Data@yaSSL@@UEAAAEAVinput_buffer@2@AEAV32@@Z 0000000140047560 f   yassl:yassl_imp.obj
 0001:00046570       ?get_type@Data@yaSSL@@UEBA?AW4ContentType@2@XZ 0000000140047570 f   yassl:yassl_imp.obj
 0001:00046580       ?get_length@Data@yaSSL@@UEBAGXZ 0000000140047580 f   yassl:yassl_imp.obj
 0001:00046590       ?set_length@Data@yaSSL@@QEAAXG@Z 0000000140047590 f   yassl:yassl_imp.obj
 0001:000465a0       ?set_buffer@Data@yaSSL@@QEAAPEAEXZ 00000001400475a0 f   yassl:yassl_imp.obj
 0001:000465b0       ??6yaSSL@@YAAEAVoutput_buffer@0@AEAV10@AEBVData@0@@Z 00000001400475b0 f   yassl:yassl_imp.obj
 0001:000465d0       ?Process@Data@yaSSL@@UEAAXAEAVinput_buffer@2@AEAVSSL@2@@Z 00000001400475d0 f   yassl:yassl_imp.obj
 0001:00046890       ??5yaSSL@@YAAEAVinput_buffer@0@AEAV10@AEAVHandShakeBase@0@@Z 0000000140047890 f   yassl:yassl_imp.obj
 0001:000468a0       ??6yaSSL@@YAAEAVoutput_buffer@0@AEAV10@AEBVHandShakeBase@0@@Z 00000001400478a0 f   yassl:yassl_imp.obj
 0001:000468b0       ??0HandShakeBase@yaSSL@@QEAA@XZ 00000001400478b0 f i yassl:yassl_imp.obj
 0001:000468c0       ?get_buffer@Certificate@yaSSL@@QEBAPEBEXZ 00000001400478c0 f   yassl:yassl_imp.obj
 0001:000468d0       ??6yaSSL@@YAAEAVoutput_buffer@0@AEAV10@AEBVCertificate@0@@Z 00000001400478d0 f   yassl:yassl_imp.obj
 0001:00046960       ?Process@Certificate@yaSSL@@UEAAXAEAVinput_buffer@2@AEAVSSL@2@@Z 0000000140047960 f   yassl:yassl_imp.obj
 0001:00046b10       ??0Certificate@yaSSL@@QEAA@XZ 0000000140047b10 f   yassl:yassl_imp.obj
 0001:00046b30       ??1Certificate@yaSSL@@UEAA@XZ 0000000140047b30 f i yassl:yassl_imp.obj
 0001:00046b40       ?set@Certificate@yaSSL@@UEAAAEAVinput_buffer@2@AEAV32@@Z 0000000140047b40 f   yassl:yassl_imp.obj
 0001:00046b50       ?get@Certificate@yaSSL@@UEBAAEAVoutput_buffer@2@AEAV32@@Z 0000000140047b50 f   yassl:yassl_imp.obj
 0001:00046b60       ?get_type@Certificate@yaSSL@@UEBA?AW4HandShakeType@2@XZ 0000000140047b60 f   yassl:yassl_imp.obj
 0001:00046b70       ??0ServerDHParams@yaSSL@@QEAA@XZ 0000000140047b70 f   yassl:yassl_imp.obj
 0001:00046b90       ?get_pSize@ServerDHParams@yaSSL@@QEBAHXZ 0000000140047b90 f   yassl:yassl_imp.obj
 0001:00046ba0       ?get_gSize@ServerDHParams@yaSSL@@QEBAHXZ 0000000140047ba0 f   yassl:yassl_imp.obj
 0001:00046bb0       ?get_pubSize@ServerDHParams@yaSSL@@QEBAHXZ 0000000140047bb0 f   yassl:yassl_imp.obj
 0001:00046bc0       ?get_p@ServerDHParams@yaSSL@@QEBAPEBEXZ 0000000140047bc0 f   yassl:yassl_imp.obj
 0001:00046bd0       ?get_g@ServerDHParams@yaSSL@@QEBAPEBEXZ 0000000140047bd0 f   yassl:yassl_imp.obj
 0001:00046be0       ?get_pub@ServerDHParams@yaSSL@@QEBAPEBEXZ 0000000140047be0 f   yassl:yassl_imp.obj
 0001:00046bf0       ?alloc_p@ServerDHParams@yaSSL@@QEAAPEAEH@Z 0000000140047bf0 f   yassl:yassl_imp.obj
 0001:00046c10       ?alloc_g@ServerDHParams@yaSSL@@QEAAPEAEH@Z 0000000140047c10 f   yassl:yassl_imp.obj
 0001:00046c30       ?alloc_pub@ServerDHParams@yaSSL@@QEAAPEAEH@Z 0000000140047c30 f   yassl:yassl_imp.obj
 0001:00046c50       ?get_length@ServerKeyBase@yaSSL@@UEBAHXZ 0000000140047c50 f   yassl:yassl_imp.obj
 0001:00046c60       ?get_serverKey@ServerKeyBase@yaSSL@@UEBAPEAEXZ 0000000140047c60 f   yassl:yassl_imp.obj
 0001:00046c70       ??5yaSSL@@YAAEAVinput_buffer@0@AEAV10@AEAVServerHello@0@@Z 0000000140047c70 f   yassl:yassl_imp.obj
 0001:00046d30       ??6yaSSL@@YAAEAVoutput_buffer@0@AEAV10@AEBVServerHello@0@@Z 0000000140047d30 f   yassl:yassl_imp.obj
 0001:00046df0       ??0ServerHello@yaSSL@@QEAA@XZ 0000000140047df0 f   yassl:yassl_imp.obj
 0001:00046e40       ??1ServerHello@yaSSL@@UEAA@XZ 0000000140047e40 f i yassl:yassl_imp.obj
 0001:00046e50       ??0ServerHello@yaSSL@@QEAA@UProtocolVersion@1@_N@Z 0000000140047e50 f   yassl:yassl_imp.obj
 0001:00046ea0       ?set@ServerHello@yaSSL@@UEAAAEAVinput_buffer@2@AEAV32@@Z 0000000140047ea0 f   yassl:yassl_imp.obj
 0001:00046eb0       ?get@ServerHello@yaSSL@@UEBAAEAVoutput_buffer@2@AEAV32@@Z 0000000140047eb0 f   yassl:yassl_imp.obj
 0001:00046ec0       ?get_type@ServerHello@yaSSL@@UEBA?AW4HandShakeType@2@XZ 0000000140047ec0 f   yassl:yassl_imp.obj
 0001:00046ed0       ?get_random@ServerHello@yaSSL@@QEBAPEBEXZ 0000000140047ed0 f   yassl:yassl_imp.obj
 0001:00046ee0       ?Process@ServerHelloDone@yaSSL@@UEAAXAEAVinput_buffer@2@AEAVSSL@2@@Z 0000000140047ee0 f   yassl:yassl_imp.obj
 0001:00046f00       ??0ServerHelloDone@yaSSL@@QEAA@XZ 0000000140047f00 f   yassl:yassl_imp.obj
 0001:00046f20       ??1ServerHelloDone@yaSSL@@UEAA@XZ 0000000140047f20 f i yassl:yassl_imp.obj
 0001:00046f30       ?set@ServerHelloDone@yaSSL@@UEAAAEAVinput_buffer@2@AEAV32@@Z 0000000140047f30 f   yassl:yassl_imp.obj
 0001:00046f40       ?get@ServerHelloDone@yaSSL@@UEBAAEAVoutput_buffer@2@AEAV32@@Z 0000000140047f40 f   yassl:yassl_imp.obj
 0001:00046f50       ?get_type@ServerHelloDone@yaSSL@@UEBA?AW4HandShakeType@2@XZ 0000000140047f50 f   yassl:yassl_imp.obj
 0001:00046f60       ?get_length@ClientKeyBase@yaSSL@@UEBAHXZ 0000000140047f60 f   yassl:yassl_imp.obj
 0001:00046f70       ?get_clientKey@ClientKeyBase@yaSSL@@UEBAPEAEXZ 0000000140047f70 f   yassl:yassl_imp.obj
 0001:00046f80       ??5yaSSL@@YAAEAVinput_buffer@0@AEAV10@AEAVClientHello@0@@Z 0000000140047f80 f   yassl:yassl_imp.obj
 0001:00047130       ??6yaSSL@@YAAEAVoutput_buffer@0@AEAV10@AEBVClientHello@0@@Z 0000000140048130 f   yassl:yassl_imp.obj
 0001:00047230       ?set@ClientHello@yaSSL@@UEAAAEAVinput_buffer@2@AEAV32@@Z 0000000140048230 f   yassl:yassl_imp.obj
 0001:00047240       ?get@ClientHello@yaSSL@@UEBAAEAVoutput_buffer@2@AEAV32@@Z 0000000140048240 f   yassl:yassl_imp.obj
 0001:00047250       ?get_type@ClientHello@yaSSL@@UEBA?AW4HandShakeType@2@XZ 0000000140048250 f   yassl:yassl_imp.obj
 0001:00047260       ?get_random@ClientHello@yaSSL@@QEBAPEBEXZ 0000000140048260 f   yassl:yassl_imp.obj
 0001:00047270       ??0ClientHello@yaSSL@@QEAA@XZ 0000000140048270 f   yassl:yassl_imp.obj
 0001:000472b0       ??1ClientHello@yaSSL@@UEAA@XZ 00000001400482b0 f i yassl:yassl_imp.obj
 0001:000472c0       ??0ClientHello@yaSSL@@QEAA@UProtocolVersion@1@_N@Z 00000001400482c0 f   yassl:yassl_imp.obj
 0001:00047300       ??0ServerKeyExchange@yaSSL@@QEAA@XZ 0000000140048300 f   yassl:yassl_imp.obj
 0001:00047320       ?build@ServerKeyExchange@yaSSL@@QEAAXAEAVSSL@2@@Z 0000000140048320 f   yassl:yassl_imp.obj
 0001:00047350       ?getKey@ServerKeyExchange@yaSSL@@QEBAPEBEXZ 0000000140048350 f   yassl:yassl_imp.obj
 0001:00047360       ?getKeyLength@ServerKeyExchange@yaSSL@@QEBAHXZ 0000000140048360 f   yassl:yassl_imp.obj
 0001:00047370       ?set@ServerKeyExchange@yaSSL@@UEAAAEAVinput_buffer@2@AEAV32@@Z 0000000140048370 f   yassl:yassl_imp.obj
 0001:00047380       ?get_type@ServerKeyExchange@yaSSL@@UEBA?AW4HandShakeType@2@XZ 0000000140048380 f   yassl:yassl_imp.obj
 0001:00047390       ?Process@CertificateRequest@yaSSL@@UEAAXAEAVinput_buffer@2@AEAVSSL@2@@Z 0000000140048390 f   yassl:yassl_imp.obj
 0001:000473e0       ?get_type@CertificateRequest@yaSSL@@UEBA?AW4HandShakeType@2@XZ 00000001400483e0 f   yassl:yassl_imp.obj
 0001:000473f0       ??0CertificateVerify@yaSSL@@QEAA@XZ 00000001400483f0 f   yassl:yassl_imp.obj
 0001:00047410       ??5yaSSL@@YAAEAVinput_buffer@0@AEAV10@AEAVCertificateVerify@0@@Z 0000000140048410 f   yassl:yassl_imp.obj
 0001:00047490       ??6yaSSL@@YAAEAVoutput_buffer@0@AEAV10@AEBVCertificateVerify@0@@Z 0000000140048490 f   yassl:yassl_imp.obj
 0001:000474c0       ?Process@CertificateVerify@yaSSL@@UEAAXAEAVinput_buffer@2@AEAVSSL@2@@Z 00000001400484c0 f   yassl:yassl_imp.obj
 0001:00047620       ?get_type@CertificateVerify@yaSSL@@UEBA?AW4HandShakeType@2@XZ 0000000140048620 f   yassl:yassl_imp.obj
 0001:00047630       ??0ClientKeyExchange@yaSSL@@QEAA@XZ 0000000140048630 f   yassl:yassl_imp.obj
 0001:00047650       ?build@ClientKeyExchange@yaSSL@@QEAAXAEAVSSL@2@@Z 0000000140048650 f   yassl:yassl_imp.obj
 0001:00047680       ?getKey@ClientKeyExchange@yaSSL@@QEBAPEBEXZ 0000000140048680 f   yassl:yassl_imp.obj
 0001:00047690       ?getKeyLength@ClientKeyExchange@yaSSL@@QEBAHXZ 0000000140048690 f   yassl:yassl_imp.obj
 0001:000476a0       ?set@ClientKeyExchange@yaSSL@@UEAAAEAVinput_buffer@2@AEAV32@@Z 00000001400486a0 f   yassl:yassl_imp.obj
 0001:000476b0       ?get_type@ClientKeyExchange@yaSSL@@UEBA?AW4HandShakeType@2@XZ 00000001400486b0 f   yassl:yassl_imp.obj
 0001:000476c0       ??5yaSSL@@YAAEAVinput_buffer@0@AEAV10@AEAVFinished@0@@Z 00000001400486c0 f   yassl:yassl_imp.obj
 0001:000476d0       ??6yaSSL@@YAAEAVoutput_buffer@0@AEAV10@AEBVFinished@0@@Z 00000001400486d0 f   yassl:yassl_imp.obj
 0001:00047740       ?Process@Finished@yaSSL@@UEAAXAEAVinput_buffer@2@AEAVSSL@2@@Z 0000000140048740 f   yassl:yassl_imp.obj
 0001:00047980       ??0Finished@yaSSL@@QEAA@XZ 0000000140048980 f   yassl:yassl_imp.obj
 0001:000479a0       ??_EFinished@yaSSL@@UEAAPEAXI@Z 00000001400489a0 f i yassl:yassl_imp.obj
 0001:000479a0       ??_GFinished@yaSSL@@UEAAPEAXI@Z 00000001400489a0 f i yassl:yassl_imp.obj
 0001:000479d0       ?set_md5@Finished@yaSSL@@QEAAPEAEXZ 00000001400489d0 f   yassl:yassl_imp.obj
 0001:000479e0       ?set_sha@Finished@yaSSL@@QEAAPEAEXZ 00000001400489e0 f   yassl:yassl_imp.obj
 0001:000479f0       ?set@Finished@yaSSL@@UEAAAEAVinput_buffer@2@AEAV32@@Z 00000001400489f0 f   yassl:yassl_imp.obj
 0001:00047a00       ?get@Finished@yaSSL@@UEBAAEAVoutput_buffer@2@AEAV32@@Z 0000000140048a00 f   yassl:yassl_imp.obj
 0001:00047a10       ?get_type@Finished@yaSSL@@UEBA?AW4HandShakeType@2@XZ 0000000140048a10 f   yassl:yassl_imp.obj
 0001:00047a20       ?clean@yaSSL@@YAXPECEIAEAVRandomPool@1@@Z 0000000140048a20 f   yassl:yassl_imp.obj
 0001:00047a80       ??0Connection@yaSSL@@QEAA@UProtocolVersion@1@AEAVRandomPool@1@@Z 0000000140048a80 f   yassl:yassl_imp.obj
 0001:00047b40       ?AllocPreSecret@Connection@yaSSL@@QEAAXI@Z 0000000140048b40 f   yassl:yassl_imp.obj
 0001:00047b60       ?TurnOffTLS@Connection@yaSSL@@QEAAXXZ 0000000140048b60 f   yassl:yassl_imp.obj
 0001:00047b70       ?TurnOffTLS1_1@Connection@yaSSL@@QEAAXXZ 0000000140048b70 f   yassl:yassl_imp.obj
 0001:00047b80       ?CleanMaster@Connection@yaSSL@@QEAAXXZ 0000000140048b80 f   yassl:yassl_imp.obj
 0001:00047bc0       ?CreateCipherSpec@yaSSL@@YAPEAUMessage@1@XZ 0000000140048bc0 f   yassl:yassl_imp.obj
 0001:00047bf0       ?CreateHandShake@yaSSL@@YAPEAUMessage@1@XZ 0000000140048bf0 f   yassl:yassl_imp.obj
 0001:00047c20       ?CreateData@yaSSL@@YAPEAUMessage@1@XZ 0000000140048c20 f   yassl:yassl_imp.obj
 0001:00047c50       ??0HelloRequest@yaSSL@@QEAA@XZ 0000000140048c50 f i yassl:yassl_imp.obj
 0001:00047c60       ??1HelloRequest@yaSSL@@UEAA@XZ 0000000140048c60 f i yassl:yassl_imp.obj
 0001:00047c70       ?CreateClientHello@yaSSL@@YAPEAVHandShakeBase@1@XZ 0000000140048c70 f   yassl:yassl_imp.obj
 0001:00047ca0       ?CreateServerHello@yaSSL@@YAPEAVHandShakeBase@1@XZ 0000000140048ca0 f   yassl:yassl_imp.obj
 0001:00047cd0       ?CreateCertificate@yaSSL@@YAPEAVHandShakeBase@1@XZ 0000000140048cd0 f   yassl:yassl_imp.obj
 0001:00047d00       ?CreateServerKeyExchange@yaSSL@@YAPEAVHandShakeBase@1@XZ 0000000140048d00 f   yassl:yassl_imp.obj
 0001:00047d30       ?CreateServerHelloDone@yaSSL@@YAPEAVHandShakeBase@1@XZ 0000000140048d30 f   yassl:yassl_imp.obj
 0001:00047d60       ?CreateCertificateVerify@yaSSL@@YAPEAVHandShakeBase@1@XZ 0000000140048d60 f   yassl:yassl_imp.obj
 0001:00047d90       ?CreateClientKeyExchange@yaSSL@@YAPEAVHandShakeBase@1@XZ 0000000140048d90 f   yassl:yassl_imp.obj
 0001:00047dc0       ?CreateFinished@yaSSL@@YAPEAVHandShakeBase@1@XZ 0000000140048dc0 f   yassl:yassl_imp.obj
 0001:00047df0       ??0RSA_Server@yaSSL@@QEAA@XZ 0000000140048df0 f i yassl:yassl_imp.obj
 0001:00047e00       ??1RSA_Server@yaSSL@@UEAA@XZ 0000000140048e00 f i yassl:yassl_imp.obj
 0001:00047e10       ??0Fortezza_Server@yaSSL@@QEAA@XZ 0000000140048e10 f i yassl:yassl_imp.obj
 0001:00047e20       ??1Fortezza_Server@yaSSL@@UEAA@XZ 0000000140048e20 f i yassl:yassl_imp.obj
 0001:00047e30       ?CreateDHClient@yaSSL@@YAPEAUClientKeyBase@1@XZ 0000000140048e30 f   yassl:yassl_imp.obj
 0001:00047e60       ??0FortezzaKeys@yaSSL@@QEAA@XZ 0000000140048e60 f i yassl:yassl_imp.obj
 0001:00047e70       ??1FortezzaKeys@yaSSL@@UEAA@XZ 0000000140048e70 f i yassl:yassl_imp.obj
 0001:00047e80       ??0?$list@PEAE@mySTL@@QEAA@XZ 0000000140048e80 f i yassl:yassl_imp.obj
 0001:00047ea0       ??0?$auto_ptr@UAuth@yaSSL@@@mySTL@@QEAA@PEAUAuth@yaSSL@@@Z 0000000140048ea0 f i yassl:yassl_imp.obj
 0001:00047eb0       ??C?$auto_ptr@UAuth@yaSSL@@@mySTL@@QEBAPEAUAuth@yaSSL@@XZ 0000000140048eb0 f i yassl:yassl_imp.obj
 0001:00047ec0       ??0?$auto_ptr@VHandShakeBase@yaSSL@@@mySTL@@QEAA@PEAVHandShakeBase@yaSSL@@@Z 0000000140048ec0 f i yassl:yassl_imp.obj
 0001:00047ed0       ??C?$auto_ptr@VHandShakeBase@yaSSL@@@mySTL@@QEBAPEAVHandShakeBase@yaSSL@@XZ 0000000140048ed0 f i yassl:yassl_imp.obj
 0001:00047ee0       ??D?$auto_ptr@VHandShakeBase@yaSSL@@@mySTL@@QEBAAEAVHandShakeBase@yaSSL@@XZ 0000000140048ee0 f i yassl:yassl_imp.obj
 0001:00047ef0       ?get@?$auto_ptr@VHandShakeBase@yaSSL@@@mySTL@@QEBAPEAVHandShakeBase@yaSSL@@XZ 0000000140048ef0 f i yassl:yassl_imp.obj
 0001:00047f00       ??Diterator@?$list@PEAE@mySTL@@QEBAAEAPEAEXZ 0000000140048f00 f i yassl:yassl_imp.obj
 0001:00047f10       ??Eiterator@?$list@PEAE@mySTL@@QEAAAEAV012@XZ 0000000140048f10 f i yassl:yassl_imp.obj
 0001:00047f20       ??9iterator@?$list@PEAE@mySTL@@QEBA_NAEBV012@@Z 0000000140048f20 f i yassl:yassl_imp.obj
 0001:00047f30       ??0?$auto_array@E@mySTL@@QEAA@PEAE@Z 0000000140048f30 f i yassl:yassl_imp.obj
 0001:00047f40       ?get@?$auto_array@E@mySTL@@QEBAPEAEXZ 0000000140048f40 f i yassl:yassl_imp.obj
 0001:00047f50       ?release@?$auto_array@E@mySTL@@QEAAPEAEXZ 0000000140048f50 f i yassl:yassl_imp.obj
 0001:00047f60       ?begin@?$vector@U?$pair@HP6APEAVHandShakeBase@yaSSL@@XZ@mySTL@@@mySTL@@QEBAPEBU?$pair@HP6APEAVHandShakeBase@yaSSL@@XZ@2@XZ 0000000140048f60 f i yassl:yassl_imp.obj
 0001:00047f70       ?end@?$vector@U?$pair@HP6APEAVHandShakeBase@yaSSL@@XZ@mySTL@@@mySTL@@QEBAPEBU?$pair@HP6APEAVHandShakeBase@yaSSL@@XZ@2@XZ 0000000140048f70 f i yassl:yassl_imp.obj
 0001:00047f80       ?begin@?$vector@U?$pair@HP6APEAUServerKeyBase@yaSSL@@XZ@mySTL@@@mySTL@@QEBAPEBU?$pair@HP6APEAUServerKeyBase@yaSSL@@XZ@2@XZ 0000000140048f80 f i yassl:yassl_imp.obj
 0001:00047f90       ?end@?$vector@U?$pair@HP6APEAUServerKeyBase@yaSSL@@XZ@mySTL@@@mySTL@@QEBAPEBU?$pair@HP6APEAUServerKeyBase@yaSSL@@XZ@2@XZ 0000000140048f90 f i yassl:yassl_imp.obj
 0001:00047fa0       ?begin@?$vector@U?$pair@HP6APEAUClientKeyBase@yaSSL@@XZ@mySTL@@@mySTL@@QEBAPEBU?$pair@HP6APEAUClientKeyBase@yaSSL@@XZ@2@XZ 0000000140048fa0 f i yassl:yassl_imp.obj
 0001:00047fb0       ?end@?$vector@U?$pair@HP6APEAUClientKeyBase@yaSSL@@XZ@mySTL@@@mySTL@@QEBAPEBU?$pair@HP6APEAUClientKeyBase@yaSSL@@XZ@2@XZ 0000000140048fb0 f i yassl:yassl_imp.obj
 0001:00047fc0       ??0iterator@?$list@PEAE@mySTL@@QEAA@PEAUnode@12@@Z 0000000140048fc0 f i yassl:yassl_imp.obj
 0001:00047fd0       ?capacity@?$vector@U?$pair@HP6APEAUMessage@yaSSL@@XZ@mySTL@@@mySTL@@QEBA_KXZ 0000000140048fd0 f i yassl:yassl_imp.obj
 0001:00047fe0       ?size@?$vector@U?$pair@HP6APEAUMessage@yaSSL@@XZ@mySTL@@@mySTL@@QEBA_KXZ 0000000140048fe0 f i yassl:yassl_imp.obj
 0001:00047ff0       ?capacity@?$vector@U?$pair@HP6APEAVHandShakeBase@yaSSL@@XZ@mySTL@@@mySTL@@QEBA_KXZ 0000000140048ff0 f i yassl:yassl_imp.obj
 0001:00048000       ?size@?$vector@U?$pair@HP6APEAVHandShakeBase@yaSSL@@XZ@mySTL@@@mySTL@@QEBA_KXZ 0000000140049000 f i yassl:yassl_imp.obj
 0001:00048010       ?capacity@?$vector@U?$pair@HP6APEAUServerKeyBase@yaSSL@@XZ@mySTL@@@mySTL@@QEBA_KXZ 0000000140049010 f i yassl:yassl_imp.obj
 0001:00048020       ?size@?$vector@U?$pair@HP6APEAUServerKeyBase@yaSSL@@XZ@mySTL@@@mySTL@@QEBA_KXZ 0000000140049020 f i yassl:yassl_imp.obj
 0001:00048030       ?capacity@?$vector@U?$pair@HP6APEAUClientKeyBase@yaSSL@@XZ@mySTL@@@mySTL@@QEBA_KXZ 0000000140049030 f i yassl:yassl_imp.obj
 0001:00048040       ?size@?$vector@U?$pair@HP6APEAUClientKeyBase@yaSSL@@XZ@mySTL@@@mySTL@@QEBA_KXZ 0000000140049040 f i yassl:yassl_imp.obj
 0001:00048050       ??$ysDelete@UServerKeyBase@yaSSL@@@yaSSL@@YAXPEAUServerKeyBase@0@@Z 0000000140049050 f i yassl:yassl_imp.obj
 0001:00048070       ??$ysDelete@UClientKeyBase@yaSSL@@@yaSSL@@YAXPEAUClientKeyBase@0@@Z 0000000140049070 f i yassl:yassl_imp.obj
 0001:00048090       ??$construct@U?$pair@HP6APEAUMessage@yaSSL@@XZ@mySTL@@U12@@mySTL@@YAXPEAU?$pair@HP6APEAUMessage@yaSSL@@XZ@0@AEBU10@@Z 0000000140049090 f i yassl:yassl_imp.obj
 0001:000480b0       ??$construct@U?$pair@HP6APEAVHandShakeBase@yaSSL@@XZ@mySTL@@U12@@mySTL@@YAXPEAU?$pair@HP6APEAVHandShakeBase@yaSSL@@XZ@0@AEBU10@@Z 00000001400490b0 f i yassl:yassl_imp.obj
 0001:000480d0       ??$construct@U?$pair@HP6APEAUServerKeyBase@yaSSL@@XZ@mySTL@@U12@@mySTL@@YAXPEAU?$pair@HP6APEAUServerKeyBase@yaSSL@@XZ@0@AEBU10@@Z 00000001400490d0 f i yassl:yassl_imp.obj
 0001:000480f0       ??$construct@U?$pair@HP6APEAUClientKeyBase@yaSSL@@XZ@mySTL@@U12@@mySTL@@YAXPEAU?$pair@HP6APEAUClientKeyBase@yaSSL@@XZ@0@AEBU10@@Z 00000001400490f0 f i yassl:yassl_imp.obj
 0001:00048110       ??$ysDelete@UAuth@yaSSL@@@yaSSL@@YAXPEAUAuth@0@@Z 0000000140049110 f i yassl:yassl_imp.obj
 0001:00048130       ??$ysDelete@VHandShakeBase@yaSSL@@@yaSSL@@YAXPEAVHandShakeBase@0@@Z 0000000140049130 f i yassl:yassl_imp.obj
 0001:00048150       ??$uninit_copy@PEAU?$pair@HP6APEAUMessage@yaSSL@@XZ@mySTL@@PEAU12@@mySTL@@YAPEAU?$pair@HP6APEAUMessage@yaSSL@@XZ@0@PEAU10@00@Z 0000000140049150 f i yassl:yassl_imp.obj
 0001:00048180       ??$uninit_copy@PEAU?$pair@HP6APEAVHandShakeBase@yaSSL@@XZ@mySTL@@PEAU12@@mySTL@@YAPEAU?$pair@HP6APEAVHandShakeBase@yaSSL@@XZ@0@PEAU10@00@Z 0000000140049180 f i yassl:yassl_imp.obj
 0001:000481b0       ??$uninit_copy@PEAU?$pair@HP6APEAUServerKeyBase@yaSSL@@XZ@mySTL@@PEAU12@@mySTL@@YAPEAU?$pair@HP6APEAUServerKeyBase@yaSSL@@XZ@0@PEAU10@00@Z 00000001400491b0 f i yassl:yassl_imp.obj
 0001:000481e0       ??$uninit_copy@PEAU?$pair@HP6APEAUClientKeyBase@yaSSL@@XZ@mySTL@@PEAU12@@mySTL@@YAPEAU?$pair@HP6APEAUClientKeyBase@yaSSL@@XZ@0@PEAU10@00@Z 00000001400491e0 f i yassl:yassl_imp.obj
 0001:00048210       ??$GetArrayMemory@U?$pair@HP6APEAUMessage@yaSSL@@XZ@mySTL@@@mySTL@@YAPEAU?$pair@HP6APEAUMessage@yaSSL@@XZ@0@_K@Z 0000000140049210 f i yassl:yassl_imp.obj
 0001:00048220       ??$swap@PEAU?$pair@HP6APEAUMessage@yaSSL@@XZ@mySTL@@@mySTL@@YAXAEAPEAU?$pair@HP6APEAUMessage@yaSSL@@XZ@0@0@Z 0000000140049220 f i yassl:yassl_imp.obj
 0001:00048230       ??$GetArrayMemory@U?$pair@HP6APEAVHandShakeBase@yaSSL@@XZ@mySTL@@@mySTL@@YAPEAU?$pair@HP6APEAVHandShakeBase@yaSSL@@XZ@0@_K@Z 0000000140049230 f i yassl:yassl_imp.obj
 0001:00048240       ??$swap@PEAU?$pair@HP6APEAVHandShakeBase@yaSSL@@XZ@mySTL@@@mySTL@@YAXAEAPEAU?$pair@HP6APEAVHandShakeBase@yaSSL@@XZ@0@0@Z 0000000140049240 f i yassl:yassl_imp.obj
 0001:00048250       ??$GetArrayMemory@U?$pair@HP6APEAUServerKeyBase@yaSSL@@XZ@mySTL@@@mySTL@@YAPEAU?$pair@HP6APEAUServerKeyBase@yaSSL@@XZ@0@_K@Z 0000000140049250 f i yassl:yassl_imp.obj
 0001:00048260       ??$swap@PEAU?$pair@HP6APEAUServerKeyBase@yaSSL@@XZ@mySTL@@@mySTL@@YAXAEAPEAU?$pair@HP6APEAUServerKeyBase@yaSSL@@XZ@0@0@Z 0000000140049260 f i yassl:yassl_imp.obj
 0001:00048270       ??$GetArrayMemory@U?$pair@HP6APEAUClientKeyBase@yaSSL@@XZ@mySTL@@@mySTL@@YAPEAU?$pair@HP6APEAUClientKeyBase@yaSSL@@XZ@0@_K@Z 0000000140049270 f i yassl:yassl_imp.obj
 0001:00048280       ??$swap@PEAU?$pair@HP6APEAUClientKeyBase@yaSSL@@XZ@mySTL@@@mySTL@@YAXAEAPEAU?$pair@HP6APEAUClientKeyBase@yaSSL@@XZ@0@0@Z 0000000140049280 f i yassl:yassl_imp.obj
 0001:00048290       ??0?$pair@HP6APEAUMessage@yaSSL@@XZ@mySTL@@QEAA@AEBHAEBQ6APEAUMessage@yaSSL@@XZ@Z 0000000140049290 f i yassl:yassl_imp.obj
 0001:000482a0       ??0?$pair@HP6APEAVHandShakeBase@yaSSL@@XZ@mySTL@@QEAA@AEBHAEBQ6APEAVHandShakeBase@yaSSL@@XZ@Z 00000001400492a0 f i yassl:yassl_imp.obj
 0001:000482b0       ??0?$pair@HP6APEAUServerKeyBase@yaSSL@@XZ@mySTL@@QEAA@AEBHAEBQ6APEAUServerKeyBase@yaSSL@@XZ@Z 00000001400492b0 f i yassl:yassl_imp.obj
 0001:000482c0       ??0?$pair@HP6APEAUClientKeyBase@yaSSL@@XZ@mySTL@@QEAA@AEBHAEBQ6APEAUClientKeyBase@yaSSL@@XZ@Z 00000001400492c0 f i yassl:yassl_imp.obj
 0001:000482d0       ??0node@?$list@PEAE@mySTL@@QEAA@PEAE@Z 00000001400492d0 f i yassl:yassl_imp.obj
 0001:000482f0       ??$destroy@Unode@?$list@PEAE@mySTL@@@mySTL@@YAXPEAUnode@?$list@PEAE@0@@Z 00000001400492f0 f i yassl:yassl_imp.obj
 0001:00048300       ??$swap@PEAE@mySTL@@YAXAEAPEAE0@Z 0000000140049300 f i yassl:yassl_imp.obj
 0001:00048310       ??$ysDelete@E@yaSSL@@YAXPEAE@Z 0000000140049310 f i yassl:yassl_imp.obj
 0001:00048320       ??0Alert@yaSSL@@QEAA@XZ    0000000140049320 f i yassl:yassl_imp.obj
 0001:00048330       ??_GAlert@yaSSL@@UEAAPEAXI@Z 0000000140049330 f i yassl:yassl_imp.obj
 0001:00048330       ??_EAlert@yaSSL@@UEAAPEAXI@Z 0000000140049330 f i yassl:yassl_imp.obj
 0001:00048360       ??_GHandShakeHeader@yaSSL@@UEAAPEAXI@Z 0000000140049360 f i yassl:yassl_imp.obj
 0001:00048360       ??_EHandShakeHeader@yaSSL@@UEAAPEAXI@Z 0000000140049360 f i yassl:yassl_imp.obj
 0001:00048390       ?build@EncryptedPreMasterSecret@yaSSL@@UEAAXAEAVSSL@2@@Z 0000000140049390 f   yassl:yassl_imp.obj
 0001:00048510       ?build@ClientDiffieHellmanPublic@yaSSL@@UEAAXAEAVSSL@2@@Z 0000000140049510 f   yassl:yassl_imp.obj
 0001:00048600       ?read@EncryptedPreMasterSecret@yaSSL@@UEAAXAEAVSSL@2@AEAVinput_buffer@2@@Z 0000000140049600 f   yassl:yassl_imp.obj
 0001:00048760       ??0EncryptedPreMasterSecret@yaSSL@@QEAA@XZ 0000000140049760 f   yassl:yassl_imp.obj
 0001:00048780       ??1EncryptedPreMasterSecret@yaSSL@@UEAA@XZ 0000000140049780 f   yassl:yassl_imp.obj
 0001:000487b0       ?read@ClientDiffieHellmanPublic@yaSSL@@UEAAXAEAVSSL@2@AEAVinput_buffer@2@@Z 00000001400497b0 f   yassl:yassl_imp.obj
 0001:000488a0       ??1ClientDiffieHellmanPublic@yaSSL@@UEAA@XZ 00000001400498a0 f   yassl:yassl_imp.obj
 0001:000488d0       ?read@DH_Server@yaSSL@@UEAAXAEAVSSL@2@AEAVinput_buffer@2@@Z 00000001400498d0 f   yassl:yassl_imp.obj
 0001:00048da0       ?SetSuites@Parameters@yaSSL@@QEAAXUProtocolVersion@2@_N11@Z 0000000140049da0 f   yassl:yassl_imp.obj
 0001:00049060       ??_GChangeCipherSpec@yaSSL@@UEAAPEAXI@Z 000000014004a060 f i yassl:yassl_imp.obj
 0001:00049060       ??_EChangeCipherSpec@yaSSL@@UEAAPEAXI@Z 000000014004a060 f i yassl:yassl_imp.obj
 0001:00049090       ?set@Alert@yaSSL@@UEAAAEAVinput_buffer@2@AEAV32@@Z 000000014004a090 f   yassl:yassl_imp.obj
 0001:000490a0       ?get@Alert@yaSSL@@UEBAAEAVoutput_buffer@2@AEAV32@@Z 000000014004a0a0 f   yassl:yassl_imp.obj
 0001:000490b0       ??_GData@yaSSL@@UEAAPEAXI@Z 000000014004a0b0 f i yassl:yassl_imp.obj
 0001:000490b0       ??_EData@yaSSL@@UEAAPEAXI@Z 000000014004a0b0 f i yassl:yassl_imp.obj
 0001:000490e0       ?get@Data@yaSSL@@UEBAAEAVoutput_buffer@2@AEAV32@@Z 000000014004a0e0 f   yassl:yassl_imp.obj
 0001:000490f0       ??0Certificate@yaSSL@@QEAA@PEBVx509@1@@Z 000000014004a0f0 f   yassl:yassl_imp.obj
 0001:00049130       ??_ECertificate@yaSSL@@UEAAPEAXI@Z 000000014004a130 f i yassl:yassl_imp.obj
 0001:00049130       ??_GCertificate@yaSSL@@UEAAPEAXI@Z 000000014004a130 f i yassl:yassl_imp.obj
 0001:00049160       ??1ServerDHParams@yaSSL@@QEAA@XZ 000000014004a160 f   yassl:yassl_imp.obj
 0001:00049190       ?Process@ServerHello@yaSSL@@UEAAXAEAVinput_buffer@2@AEAVSSL@2@@Z 000000014004a190 f   yassl:yassl_imp.obj
 0001:000493a0       ??_GServerHello@yaSSL@@UEAAPEAXI@Z 000000014004a3a0 f i yassl:yassl_imp.obj
 0001:000493a0       ??_EServerHello@yaSSL@@UEAAPEAXI@Z 000000014004a3a0 f i yassl:yassl_imp.obj
 0001:000493d0       ??_GServerHelloDone@yaSSL@@UEAAPEAXI@Z 000000014004a3d0 f i yassl:yassl_imp.obj
 0001:000493d0       ??_EServerHelloDone@yaSSL@@UEAAPEAXI@Z 000000014004a3d0 f i yassl:yassl_imp.obj
 0001:00049400       ?Process@ClientHello@yaSSL@@UEAAXAEAVinput_buffer@2@AEAVSSL@2@@Z 000000014004a400 f   yassl:yassl_imp.obj
 0001:00049770       ??_EClientHello@yaSSL@@UEAAPEAXI@Z 000000014004a770 f i yassl:yassl_imp.obj
 0001:00049770       ??_GClientHello@yaSSL@@UEAAPEAXI@Z 000000014004a770 f i yassl:yassl_imp.obj
 0001:000497a0       ??6yaSSL@@YAAEAVoutput_buffer@0@AEAV10@AEBVServerKeyExchange@0@@Z 000000014004a7a0 f   yassl:yassl_imp.obj
 0001:000497f0       ??1ServerKeyExchange@yaSSL@@UEAA@XZ 000000014004a7f0 f   yassl:yassl_imp.obj
 0001:00049820       ?get@ServerKeyExchange@yaSSL@@UEBAAEAVoutput_buffer@2@AEAV32@@Z 000000014004a820 f   yassl:yassl_imp.obj
 0001:00049830       ??1CertificateVerify@yaSSL@@UEAA@XZ 000000014004a830 f   yassl:yassl_imp.obj
 0001:00049860       ?set@CertificateVerify@yaSSL@@UEAAAEAVinput_buffer@2@AEAV32@@Z 000000014004a860 f   yassl:yassl_imp.obj
 0001:00049870       ?get@CertificateVerify@yaSSL@@UEBAAEAVoutput_buffer@2@AEAV32@@Z 000000014004a870 f   yassl:yassl_imp.obj
 0001:00049880       ??6yaSSL@@YAAEAVoutput_buffer@0@AEAV10@AEBVClientKeyExchange@0@@Z 000000014004a880 f   yassl:yassl_imp.obj
 0001:000498d0       ??1ClientKeyExchange@yaSSL@@UEAA@XZ 000000014004a8d0 f   yassl:yassl_imp.obj
 0001:00049900       ?get@ClientKeyExchange@yaSSL@@UEBAAEAVoutput_buffer@2@AEAV32@@Z 000000014004a900 f   yassl:yassl_imp.obj
 0001:00049910       ?CleanPreMaster@Connection@yaSSL@@QEAAXXZ 000000014004a910 f   yassl:yassl_imp.obj
 0001:00049950       ?CreateAlert@yaSSL@@YAPEAUMessage@1@XZ 000000014004a950 f   yassl:yassl_imp.obj
 0001:00049980       ?CreateHelloRequest@yaSSL@@YAPEAVHandShakeBase@1@XZ 000000014004a980 f   yassl:yassl_imp.obj
 0001:000499b0       ??_EHelloRequest@yaSSL@@UEAAPEAXI@Z 000000014004a9b0 f i yassl:yassl_imp.obj
 0001:000499b0       ??_GHelloRequest@yaSSL@@UEAAPEAXI@Z 000000014004a9b0 f i yassl:yassl_imp.obj
 0001:000499e0       ?CreateRSAServerKEA@yaSSL@@YAPEAUServerKeyBase@1@XZ 000000014004a9e0 f   yassl:yassl_imp.obj
 0001:00049a10       ??_GRSA_Server@yaSSL@@UEAAPEAXI@Z 000000014004aa10 f i yassl:yassl_imp.obj
 0001:00049a10       ??_ERSA_Server@yaSSL@@UEAAPEAXI@Z 000000014004aa10 f i yassl:yassl_imp.obj
 0001:00049a40       ?CreateFortezzaServerKEA@yaSSL@@YAPEAUServerKeyBase@1@XZ 000000014004aa40 f   yassl:yassl_imp.obj
 0001:00049a70       ??_GFortezza_Server@yaSSL@@UEAAPEAXI@Z 000000014004aa70 f i yassl:yassl_imp.obj
 0001:00049a70       ??_EFortezza_Server@yaSSL@@UEAAPEAXI@Z 000000014004aa70 f i yassl:yassl_imp.obj
 0001:00049aa0       ?CreateRSAClient@yaSSL@@YAPEAUClientKeyBase@1@XZ 000000014004aaa0 f   yassl:yassl_imp.obj
 0001:00049ad0       ?CreateFortezzaClient@yaSSL@@YAPEAUClientKeyBase@1@XZ 000000014004aad0 f   yassl:yassl_imp.obj
 0001:00049b00       ??_GFortezzaKeys@yaSSL@@UEAAPEAXI@Z 000000014004ab00 f i yassl:yassl_imp.obj
 0001:00049b00       ??_EFortezzaKeys@yaSSL@@UEAAPEAXI@Z 000000014004ab00 f i yassl:yassl_imp.obj
 0001:00049b30       ?begin@?$list@PEAE@mySTL@@QEBA?AViterator@12@XZ 000000014004ab30 f i yassl:yassl_imp.obj
 0001:00049b40       ?end@?$list@PEAE@mySTL@@QEBA?AViterator@12@XZ 000000014004ab40 f i yassl:yassl_imp.obj
 0001:00049b50       ?CreateObject@?$Factory@VHandShakeBase@yaSSL@@HP6APEAV12@XZ@yaSSL@@QEBAPEAVHandShakeBase@2@AEBH@Z 000000014004ab50 f i yassl:yassl_imp.obj
 0001:00049b80       ?CreateObject@?$Factory@UServerKeyBase@yaSSL@@HP6APEAU12@XZ@yaSSL@@QEBAPEAUServerKeyBase@2@AEBH@Z 000000014004ab80 f i yassl:yassl_imp.obj
 0001:00049bb0       ?CreateObject@?$Factory@UClientKeyBase@yaSSL@@HP6APEAU12@XZ@yaSSL@@QEBAPEAUClientKeyBase@2@AEBH@Z 000000014004abb0 f i yassl:yassl_imp.obj
 0001:00049be0       ?Destroy@?$auto_ptr@UAuth@yaSSL@@@mySTL@@AEAAXXZ 000000014004abe0 f i yassl:yassl_imp.obj
 0001:00049bf0       ?Destroy@?$auto_ptr@VHandShakeBase@yaSSL@@@mySTL@@AEAAXXZ 000000014004abf0 f i yassl:yassl_imp.obj
 0001:00049c00       ?Destroy@?$auto_array@E@mySTL@@AEAAXXZ 000000014004ac00 f i yassl:yassl_imp.obj
 0001:00049c10       ??0?$vector_base@U?$pair@HP6APEAUMessage@yaSSL@@XZ@mySTL@@@mySTL@@QEAA@_K@Z 000000014004ac10 f i yassl:yassl_imp.obj
 0001:00049c50       ?Swap@?$vector_base@U?$pair@HP6APEAUMessage@yaSSL@@XZ@mySTL@@@mySTL@@QEAAXAEAU12@@Z 000000014004ac50 f i yassl:yassl_imp.obj
 0001:00049c80       ??0?$vector_base@U?$pair@HP6APEAVHandShakeBase@yaSSL@@XZ@mySTL@@@mySTL@@QEAA@_K@Z 000000014004ac80 f i yassl:yassl_imp.obj
 0001:00049cc0       ?Swap@?$vector_base@U?$pair@HP6APEAVHandShakeBase@yaSSL@@XZ@mySTL@@@mySTL@@QEAAXAEAU12@@Z 000000014004acc0 f i yassl:yassl_imp.obj
 0001:00049cf0       ??0?$vector_base@U?$pair@HP6APEAUServerKeyBase@yaSSL@@XZ@mySTL@@@mySTL@@QEAA@_K@Z 000000014004acf0 f i yassl:yassl_imp.obj
 0001:00049d30       ?Swap@?$vector_base@U?$pair@HP6APEAUServerKeyBase@yaSSL@@XZ@mySTL@@@mySTL@@QEAAXAEAU12@@Z 000000014004ad30 f i yassl:yassl_imp.obj
 0001:00049d60       ??0?$vector_base@U?$pair@HP6APEAUClientKeyBase@yaSSL@@XZ@mySTL@@@mySTL@@QEAA@_K@Z 000000014004ad60 f i yassl:yassl_imp.obj
 0001:00049da0       ?Swap@?$vector_base@U?$pair@HP6APEAUClientKeyBase@yaSSL@@XZ@mySTL@@@mySTL@@QEAAXAEAU12@@Z 000000014004ada0 f i yassl:yassl_imp.obj
 0001:00049dd0       ?push_back@?$list@PEAE@mySTL@@QEAAXPEAE@Z 000000014004add0 f i yassl:yassl_imp.obj
 0001:00049e40       ??$make_pair@HP6APEAUMessage@yaSSL@@XZ@mySTL@@YA?AU?$pair@HP6APEAUMessage@yaSSL@@XZ@0@AEBHAEBQ6APEAUMessage@yaSSL@@XZ@Z 000000014004ae40 f i yassl:yassl_imp.obj
 0001:00049e50       ??$make_pair@HP6APEAVHandShakeBase@yaSSL@@XZ@mySTL@@YA?AU?$pair@HP6APEAVHandShakeBase@yaSSL@@XZ@0@AEBHAEBQ6APEAVHandShakeBase@yaSSL@@XZ@Z 000000014004ae50 f i yassl:yassl_imp.obj
 0001:00049e60       ??$make_pair@HP6APEAUServerKeyBase@yaSSL@@XZ@mySTL@@YA?AU?$pair@HP6APEAUServerKeyBase@yaSSL@@XZ@0@AEBHAEBQ6APEAUServerKeyBase@yaSSL@@XZ@Z 000000014004ae60 f i yassl:yassl_imp.obj
 0001:00049e70       ??$make_pair@HP6APEAUClientKeyBase@yaSSL@@XZ@mySTL@@YA?AU?$pair@HP6APEAUClientKeyBase@yaSSL@@XZ@0@AEBHAEBQ6APEAUClientKeyBase@yaSSL@@XZ@Z 000000014004ae70 f i yassl:yassl_imp.obj
 0001:00049e80       ??$checked_delete@E@yaSSL@@YAXPEAE@Z 000000014004ae80 f i yassl:yassl_imp.obj
 0001:00049e90       ?createKey@ClientKeyExchange@yaSSL@@QEAAXAEAVSSL@2@@Z 000000014004ae90 f   yassl:yassl_imp.obj
 0001:00049f20       ?createKey@ServerKeyExchange@yaSSL@@QEAAXAEAVSSL@2@@Z 000000014004af20 f   yassl:yassl_imp.obj
 0001:00049fb0       ??_GEncryptedPreMasterSecret@yaSSL@@UEAAPEAXI@Z 000000014004afb0 f i yassl:yassl_imp.obj
 0001:00049fb0       ??_EEncryptedPreMasterSecret@yaSSL@@UEAAPEAXI@Z 000000014004afb0 f i yassl:yassl_imp.obj
 0001:00049fe0       ??_GClientDiffieHellmanPublic@yaSSL@@UEAAPEAXI@Z 000000014004afe0 f i yassl:yassl_imp.obj
 0001:00049fe0       ??_EClientDiffieHellmanPublic@yaSSL@@UEAAPEAXI@Z 000000014004afe0 f i yassl:yassl_imp.obj
 0001:0004a010       ??0DH_Server@yaSSL@@QEAA@XZ 000000014004b010 f   yassl:yassl_imp.obj
 0001:0004a040       ??1DH_Server@yaSSL@@UEAA@XZ 000000014004b040 f   yassl:yassl_imp.obj
 0001:0004a080       ??0Parameters@yaSSL@@QEAA@W4ConnectionEnd@1@AEBUCiphers@1@UProtocolVersion@1@_N@Z 000000014004b080 f   yassl:yassl_imp.obj
 0001:0004a140       ?Process@ServerKeyExchange@yaSSL@@UEAAXAEAVinput_buffer@2@AEAVSSL@2@@Z 000000014004b140 f   yassl:yassl_imp.obj
 0001:0004a1b0       ??0ServerKeyExchange@yaSSL@@QEAA@AEAVSSL@1@@Z 000000014004b1b0 f   yassl:yassl_imp.obj
 0001:0004a1e0       ??_EServerKeyExchange@yaSSL@@UEAAPEAXI@Z 000000014004b1e0 f i yassl:yassl_imp.obj
 0001:0004a1e0       ??_GServerKeyExchange@yaSSL@@UEAAPEAXI@Z 000000014004b1e0 f i yassl:yassl_imp.obj
 0001:0004a210       ?Build@CertificateRequest@yaSSL@@QEAAXXZ 000000014004b210 f   yassl:yassl_imp.obj
 0001:0004a230       ??5yaSSL@@YAAEAVinput_buffer@0@AEAV10@AEAVCertificateRequest@0@@Z 000000014004b230 f   yassl:yassl_imp.obj
 0001:0004a330       ??6yaSSL@@YAAEAVoutput_buffer@0@AEAV10@AEBVCertificateRequest@0@@Z 000000014004b330 f   yassl:yassl_imp.obj
 0001:0004a400       ??_ECertificateVerify@yaSSL@@UEAAPEAXI@Z 000000014004b400 f i yassl:yassl_imp.obj
 0001:0004a400       ??_GCertificateVerify@yaSSL@@UEAAPEAXI@Z 000000014004b400 f i yassl:yassl_imp.obj
 0001:0004a430       ?Process@ClientKeyExchange@yaSSL@@UEAAXAEAVinput_buffer@2@AEAVSSL@2@@Z 000000014004b430 f   yassl:yassl_imp.obj
 0001:0004a4d0       ??0ClientKeyExchange@yaSSL@@QEAA@AEAVSSL@1@@Z 000000014004b4d0 f   yassl:yassl_imp.obj
 0001:0004a500       ??_EClientKeyExchange@yaSSL@@UEAAPEAXI@Z 000000014004b500 f i yassl:yassl_imp.obj
 0001:0004a500       ??_GClientKeyExchange@yaSSL@@UEAAPEAXI@Z 000000014004b500 f i yassl:yassl_imp.obj
 0001:0004a530       ??1Connection@yaSSL@@QEAA@XZ 000000014004b530 f   yassl:yassl_imp.obj
 0001:0004a560       ?CreateDHServerKEA@yaSSL@@YAPEAUServerKeyBase@1@XZ 000000014004b560 f   yassl:yassl_imp.obj
 0001:0004a590       ??1?$auto_ptr@UAuth@yaSSL@@@mySTL@@QEAA@XZ 000000014004b590 f i yassl:yassl_imp.obj
 0001:0004a5a0       ?reset@?$auto_ptr@UAuth@yaSSL@@@mySTL@@QEAAXPEAUAuth@yaSSL@@@Z 000000014004b5a0 f i yassl:yassl_imp.obj
 0001:0004a5d0       ??1?$auto_ptr@VHandShakeBase@yaSSL@@@mySTL@@QEAA@XZ 000000014004b5d0 f i yassl:yassl_imp.obj
 0001:0004a5e0       ??1?$auto_array@E@mySTL@@QEAA@XZ 000000014004b5e0 f i yassl:yassl_imp.obj
 0001:0004a5f0       ?reset@?$auto_array@E@mySTL@@QEAAXPEAE@Z 000000014004b5f0 f i yassl:yassl_imp.obj
 0001:0004a620       ?Swap@?$vector@U?$pair@HP6APEAUMessage@yaSSL@@XZ@mySTL@@@mySTL@@QEAAXAEAV12@@Z 000000014004b620 f i yassl:yassl_imp.obj
 0001:0004a650       ??0?$vector@U?$pair@HP6APEAUMessage@yaSSL@@XZ@mySTL@@@mySTL@@AEAA@_KAEBV01@@Z 000000014004b650 f i yassl:yassl_imp.obj
 0001:0004a6b0       ?Swap@?$vector@U?$pair@HP6APEAVHandShakeBase@yaSSL@@XZ@mySTL@@@mySTL@@QEAAXAEAV12@@Z 000000014004b6b0 f i yassl:yassl_imp.obj
 0001:0004a6e0       ??0?$vector@U?$pair@HP6APEAVHandShakeBase@yaSSL@@XZ@mySTL@@@mySTL@@AEAA@_KAEBV01@@Z 000000014004b6e0 f i yassl:yassl_imp.obj
 0001:0004a740       ?Swap@?$vector@U?$pair@HP6APEAUServerKeyBase@yaSSL@@XZ@mySTL@@@mySTL@@QEAAXAEAV12@@Z 000000014004b740 f i yassl:yassl_imp.obj
 0001:0004a770       ??0?$vector@U?$pair@HP6APEAUServerKeyBase@yaSSL@@XZ@mySTL@@@mySTL@@AEAA@_KAEBV01@@Z 000000014004b770 f i yassl:yassl_imp.obj
 0001:0004a7d0       ?Swap@?$vector@U?$pair@HP6APEAUClientKeyBase@yaSSL@@XZ@mySTL@@@mySTL@@QEAAXAEAV12@@Z 000000014004b7d0 f i yassl:yassl_imp.obj
 0001:0004a800       ??0?$vector@U?$pair@HP6APEAUClientKeyBase@yaSSL@@XZ@mySTL@@@mySTL@@AEAA@_KAEBV01@@Z 000000014004b800 f i yassl:yassl_imp.obj
 0001:0004a860       ??1?$list@PEAE@mySTL@@QEAA@XZ 000000014004b860 f i yassl:yassl_imp.obj
 0001:0004a890       ??$?RE@del_ptr_zero@yaSSL@@QEBAXAEAPEAE@Z 000000014004b890 f i yassl:yassl_imp.obj
 0001:0004a8a0       ?build@DH_Server@yaSSL@@UEAAXAEAVSSL@2@@Z 000000014004b8a0 f   yassl:yassl_imp.obj
 0001:0004adb0       ??_GDH_Server@yaSSL@@UEAAPEAXI@Z 000000014004bdb0 f i yassl:yassl_imp.obj
 0001:0004adb0       ??_EDH_Server@yaSSL@@UEAAPEAXI@Z 000000014004bdb0 f i yassl:yassl_imp.obj
 0001:0004ade0       ?Process@HandShakeHeader@yaSSL@@UEAAXAEAVinput_buffer@2@AEAVSSL@2@@Z 000000014004bde0 f   yassl:yassl_imp.obj
 0001:0004aee0       ??0CertificateRequest@yaSSL@@QEAA@XZ 000000014004bee0 f   yassl:yassl_imp.obj
 0001:0004af20       ?set@CertificateRequest@yaSSL@@UEAAAEAVinput_buffer@2@AEAV32@@Z 000000014004bf20 f   yassl:yassl_imp.obj
 0001:0004af30       ?get@CertificateRequest@yaSSL@@UEBAAEAVoutput_buffer@2@AEAV32@@Z 000000014004bf30 f   yassl:yassl_imp.obj
 0001:0004af40       ?Build@CertificateVerify@yaSSL@@QEAAXAEAVSSL@2@@Z 000000014004bf40 f   yassl:yassl_imp.obj
 0001:0004b150       ?CreateCertificateRequest@yaSSL@@YAPEAVHandShakeBase@1@XZ 000000014004c150 f   yassl:yassl_imp.obj
 0001:0004b180       ?push_back@?$vector@U?$pair@HP6APEAUMessage@yaSSL@@XZ@mySTL@@@mySTL@@QEAAXAEBU?$pair@HP6APEAUMessage@yaSSL@@XZ@2@@Z 000000014004c180 f i yassl:yassl_imp.obj
 0001:0004b240       ?reserve@?$vector@U?$pair@HP6APEAUMessage@yaSSL@@XZ@mySTL@@@mySTL@@QEAAX_K@Z 000000014004c240 f i yassl:yassl_imp.obj
 0001:0004b2b0       ?push_back@?$vector@U?$pair@HP6APEAVHandShakeBase@yaSSL@@XZ@mySTL@@@mySTL@@QEAAXAEBU?$pair@HP6APEAVHandShakeBase@yaSSL@@XZ@2@@Z 000000014004c2b0 f i yassl:yassl_imp.obj
 0001:0004b370       ?reserve@?$vector@U?$pair@HP6APEAVHandShakeBase@yaSSL@@XZ@mySTL@@@mySTL@@QEAAX_K@Z 000000014004c370 f i yassl:yassl_imp.obj
 0001:0004b3e0       ?push_back@?$vector@U?$pair@HP6APEAUServerKeyBase@yaSSL@@XZ@mySTL@@@mySTL@@QEAAXAEBU?$pair@HP6APEAUServerKeyBase@yaSSL@@XZ@2@@Z 000000014004c3e0 f i yassl:yassl_imp.obj
 0001:0004b4a0       ?reserve@?$vector@U?$pair@HP6APEAUServerKeyBase@yaSSL@@XZ@mySTL@@@mySTL@@QEAAX_K@Z 000000014004c4a0 f i yassl:yassl_imp.obj
 0001:0004b510       ?push_back@?$vector@U?$pair@HP6APEAUClientKeyBase@yaSSL@@XZ@mySTL@@@mySTL@@QEAAXAEBU?$pair@HP6APEAUClientKeyBase@yaSSL@@XZ@2@@Z 000000014004c510 f i yassl:yassl_imp.obj
 0001:0004b5d0       ?reserve@?$vector@U?$pair@HP6APEAUClientKeyBase@yaSSL@@XZ@mySTL@@@mySTL@@QEAAX_K@Z 000000014004c5d0 f i yassl:yassl_imp.obj
 0001:0004b640       ??$for_each@Viterator@?$list@PEAE@mySTL@@Udel_ptr_zero@yaSSL@@@mySTL@@YA?AUdel_ptr_zero@yaSSL@@Viterator@?$list@PEAE@0@0U12@@Z 000000014004c640 f i yassl:yassl_imp.obj
 0001:0004b6a0       ??1CertificateRequest@yaSSL@@UEAA@XZ 000000014004c6a0 f   yassl:yassl_imp.obj
 0001:0004b6f0       ?Reserve@?$Factory@UMessage@yaSSL@@HP6APEAU12@XZ@yaSSL@@QEAAX_K@Z 000000014004c6f0 f i yassl:yassl_imp.obj
 0001:0004b760       ?Register@?$Factory@UMessage@yaSSL@@HP6APEAU12@XZ@yaSSL@@QEAAXAEBHP6APEAUMessage@2@XZ@Z 000000014004c760 f i yassl:yassl_imp.obj
 0001:0004b820       ?Reserve@?$Factory@VHandShakeBase@yaSSL@@HP6APEAV12@XZ@yaSSL@@QEAAX_K@Z 000000014004c820 f i yassl:yassl_imp.obj
 0001:0004b890       ?Register@?$Factory@VHandShakeBase@yaSSL@@HP6APEAV12@XZ@yaSSL@@QEAAXAEBHP6APEAVHandShakeBase@2@XZ@Z 000000014004c890 f i yassl:yassl_imp.obj
 0001:0004b950       ?Reserve@?$Factory@UServerKeyBase@yaSSL@@HP6APEAU12@XZ@yaSSL@@QEAAX_K@Z 000000014004c950 f i yassl:yassl_imp.obj
 0001:0004b9c0       ?Register@?$Factory@UServerKeyBase@yaSSL@@HP6APEAU12@XZ@yaSSL@@QEAAXAEBHP6APEAUServerKeyBase@2@XZ@Z 000000014004c9c0 f i yassl:yassl_imp.obj
 0001:0004ba80       ?Reserve@?$Factory@UClientKeyBase@yaSSL@@HP6APEAU12@XZ@yaSSL@@QEAAX_K@Z 000000014004ca80 f i yassl:yassl_imp.obj
 0001:0004baf0       ?Register@?$Factory@UClientKeyBase@yaSSL@@HP6APEAU12@XZ@yaSSL@@QEAAXAEBHP6APEAUClientKeyBase@2@XZ@Z 000000014004caf0 f i yassl:yassl_imp.obj
 0001:0004bbb0       ??_GCertificateRequest@yaSSL@@UEAAPEAXI@Z 000000014004cbb0 f i yassl:yassl_imp.obj
 0001:0004bbb0       ??_ECertificateRequest@yaSSL@@UEAAPEAXI@Z 000000014004cbb0 f i yassl:yassl_imp.obj
 0001:0004bbe0       ?InitMessageFactory@yaSSL@@YAXAEAV?$Factory@UMessage@yaSSL@@HP6APEAU12@XZ@1@@Z 000000014004cbe0 f   yassl:yassl_imp.obj
 0001:0004bec0       ?InitHandShakeFactory@yaSSL@@YAXAEAV?$Factory@VHandShakeBase@yaSSL@@HP6APEAV12@XZ@1@@Z 000000014004cec0 f   yassl:yassl_imp.obj
 0001:0004c530       ?InitServerKeyFactory@yaSSL@@YAXAEAV?$Factory@UServerKeyBase@yaSSL@@HP6APEAU12@XZ@1@@Z 000000014004d530 f   yassl:yassl_imp.obj
 0001:0004c770       ?InitClientKeyFactory@yaSSL@@YAXAEAV?$Factory@UClientKeyBase@yaSSL@@HP6APEAU12@XZ@1@@Z 000000014004d770 f   yassl:yassl_imp.obj
 0001:0004c9b0       ??0Socket@yaSSL@@QEAA@_K@Z 000000014004d9b0 f   yassl:socket_wrapper.obj
 0001:0004c9c0       ?set_fd@Socket@yaSSL@@QEAAX_K@Z 000000014004d9c0 f   yassl:socket_wrapper.obj
 0001:0004c9d0       ?get_fd@Socket@yaSSL@@QEBA_KXZ 000000014004d9d0 f   yassl:socket_wrapper.obj
 0001:0004c9e0       ??1Socket@yaSSL@@QEAA@XZ   000000014004d9e0 f   yassl:socket_wrapper.obj
 0001:0004c9f0       ?closeSocket@Socket@yaSSL@@QEAAXXZ 000000014004d9f0 f   yassl:socket_wrapper.obj
 0001:0004ca20       ?get_ready@Socket@yaSSL@@QEBAIXZ 000000014004da20 f   yassl:socket_wrapper.obj
 0001:0004ca50       ?send@Socket@yaSSL@@QEBAIPEBEIH@Z 000000014004da50 f   yassl:socket_wrapper.obj
 0001:0004cad0       ?shutDown@Socket@yaSSL@@QEAAXH@Z 000000014004dad0 f   yassl:socket_wrapper.obj
 0001:0004cae0       ?get_lastError@Socket@yaSSL@@SAHXZ 000000014004dae0 f   yassl:socket_wrapper.obj
 0001:0004caf0       ?WouldBlock@Socket@yaSSL@@QEBA_NXZ 000000014004daf0 f   yassl:socket_wrapper.obj
 0001:0004cb00       ?IsNonBlocking@Socket@yaSSL@@QEBA_NXZ 000000014004db00 f   yassl:socket_wrapper.obj
 0001:0004cb10       ?set_lastError@Socket@yaSSL@@SAXH@Z 000000014004db10 f   yassl:socket_wrapper.obj
 0001:0004cb20       ?receive@Socket@yaSSL@@QEAAIPEAEIH@Z 000000014004db20 f   yassl:socket_wrapper.obj
 0001:0004cb90       ?wait@Socket@yaSSL@@QEAA_NXZ 000000014004db90 f   yassl:socket_wrapper.obj
 0001:0004cbc0       ??0Log@yaSSL@@QEAA@PEBD@Z  000000014004dbc0 f   yassl:log.obj
 0001:0004cbd0       ??1Log@yaSSL@@QEAA@XZ      000000014004dbd0 f   yassl:log.obj
 0001:0004cbe0       ?Trace@Log@yaSSL@@QEAAXPEBD@Z 000000014004dbe0 f   yassl:log.obj
 0001:0004cbf0       ?ShowTCP@Log@yaSSL@@QEAAX_K_N@Z 000000014004dbf0 f   yassl:log.obj
 0001:0004cc00       ?ShowData@Log@yaSSL@@QEAAXI_N@Z 000000014004dc00 f   yassl:log.obj
 0001:0004cc10       ?buildClientHello@yaSSL@@YAXAEAVSSL@1@AEAVClientHello@1@@Z 000000014004dc10 f   yassl:handshake.obj
 0001:0004cd20       ?buildServerHello@yaSSL@@YAXAEAVSSL@1@AEAVServerHello@1@@Z 000000014004dd20 f   yassl:handshake.obj
 0001:0004ce50       ?hashHandShake@yaSSL@@YAXAEAVSSL@1@AEBVinput_buffer@1@I@Z 000000014004de50 f   yassl:handshake.obj
 0001:0004cee0       ?buildOutput@?A0x6aee5395@yaSSL@@YAXAEAVoutput_buffer@2@AEBURecordLayerHeader@2@AEBUMessage@2@@Z 000000014004dee0 f   yassl:handshake.obj
 0001:0004cf30       ?buildOutput@?A0x6aee5395@yaSSL@@YAXAEAVoutput_buffer@2@AEBURecordLayerHeader@2@AEBVHandShakeHeader@2@AEBVHandShakeBase@2@@Z 000000014004df30 f   yassl:handshake.obj
 0001:0004cfa0       ?buildHeader@?A0x6aee5395@yaSSL@@YAXAEAVSSL@2@AEAURecordLayerHeader@2@AEBUMessage@2@@Z 000000014004dfa0 f   yassl:handshake.obj
 0001:0004d010       ?buildHeaders@?A0x6aee5395@yaSSL@@YAXAEAVSSL@2@AEAVHandShakeHeader@2@AEAURecordLayerHeader@2@AEBVHandShakeBase@2@@Z 000000014004e010 f   yassl:handshake.obj
 0001:0004d0b0       ?hashHandShake@?A0x6aee5395@yaSSL@@YAXAEAVSSL@2@AEBVoutput_buffer@2@_N@Z 000000014004e0b0 f   yassl:handshake.obj
 0001:0004d160       ?buildMD5@?A0x6aee5395@yaSSL@@YAXAEAVSSL@2@AEAVFinished@2@PEBE@Z 000000014004e160 f   yassl:handshake.obj
 0001:0004d310       ?buildSHA@?A0x6aee5395@yaSSL@@YAXAEAVSSL@2@AEAVFinished@2@PEBE@Z 000000014004e310 f   yassl:handshake.obj
 0001:0004d4c0       ?decrypt_message@?A0x6aee5395@yaSSL@@YAXAEAVSSL@2@AEAVinput_buffer@2@I@Z 000000014004e4c0 f   yassl:handshake.obj
 0001:0004d5c0       ??6?A0x6aee5395@yaSSL@@YAAEAVoutput_buffer@1@AEAV21@AEBVinput_buffer@1@@Z 000000014004e5c0 f   yassl:handshake.obj
 0001:0004d610       ??0RecordLayerHeader@yaSSL@@QEAA@XZ 000000014004e610 f i yassl:handshake.obj
 0001:0004d630       ?get_xor@?A0x6aee5395@yaSSL@@YAXPEAEIAEAVoutput_buffer@2@1@Z 000000014004e630 f   yassl:handshake.obj
 0001:0004d6b0       ?buildMD5_CertVerify@?A0x6aee5395@yaSSL@@YAXAEAVSSL@2@PEAE@Z 000000014004e6b0 f   yassl:handshake.obj
 0001:0004d880       ?buildSHA_CertVerify@?A0x6aee5395@yaSSL@@YAXAEAVSSL@2@PEAE@Z 000000014004e880 f   yassl:handshake.obj
 0001:0004da40       ?hmac@yaSSL@@YAXAEAVSSL@1@PEAEPEBEIW4ContentType@1@_N@Z 000000014004ea40 f   yassl:handshake.obj
 0001:0004dc00       ?build_certHashes@yaSSL@@YAXAEAVSSL@1@AEAUHashes@1@@Z 000000014004ec00 f   yassl:handshake.obj
 0001:0004dd00       ?sendClientHello@yaSSL@@YAXAEAVSSL@1@@Z 000000014004ed00 f   yassl:handshake.obj
 0001:0004de60       ??0?$auto_ptr@UDigest@yaSSL@@@mySTL@@QEAA@PEAUDigest@yaSSL@@@Z 000000014004ee60 f i yassl:handshake.obj
 0001:0004de70       ??C?$auto_ptr@UDigest@yaSSL@@@mySTL@@QEBAPEAUDigest@yaSSL@@XZ 000000014004ee70 f i yassl:handshake.obj
 0001:0004de80       ??0?$auto_ptr@UMessage@yaSSL@@@mySTL@@QEAA@PEAUMessage@yaSSL@@@Z 000000014004ee80 f i yassl:handshake.obj
 0001:0004de90       ??C?$auto_ptr@UMessage@yaSSL@@@mySTL@@QEBAPEAUMessage@yaSSL@@XZ 000000014004ee90 f i yassl:handshake.obj
 0001:0004dea0       ??D?$auto_ptr@UMessage@yaSSL@@@mySTL@@QEBAAEAUMessage@yaSSL@@XZ 000000014004eea0 f i yassl:handshake.obj
 0001:0004deb0       ?get@?$auto_ptr@UMessage@yaSSL@@@mySTL@@QEBAPEAUMessage@yaSSL@@XZ 000000014004eeb0 f i yassl:handshake.obj
 0001:0004dec0       ??0?$auto_ptr@Voutput_buffer@yaSSL@@@mySTL@@QEAA@PEAVoutput_buffer@yaSSL@@@Z 000000014004eec0 f i yassl:handshake.obj
 0001:0004ded0       ??C?$auto_ptr@Voutput_buffer@yaSSL@@@mySTL@@QEBAPEAVoutput_buffer@yaSSL@@XZ 000000014004eed0 f i yassl:handshake.obj
 0001:0004dee0       ?get@?$auto_ptr@Voutput_buffer@yaSSL@@@mySTL@@QEBAPEAVoutput_buffer@yaSSL@@XZ 000000014004eee0 f i yassl:handshake.obj
 0001:0004def0       ?release@?$auto_ptr@Voutput_buffer@yaSSL@@@mySTL@@QEAAPEAVoutput_buffer@yaSSL@@XZ 000000014004eef0 f i yassl:handshake.obj
 0001:0004df00       ?begin@?$vector@U?$pair@HP6APEAUMessage@yaSSL@@XZ@mySTL@@@mySTL@@QEBAPEBU?$pair@HP6APEAUMessage@yaSSL@@XZ@2@XZ 000000014004ef00 f i yassl:handshake.obj
 0001:0004df10       ?end@?$vector@U?$pair@HP6APEAUMessage@yaSSL@@XZ@mySTL@@@mySTL@@QEBAPEBU?$pair@HP6APEAUMessage@yaSSL@@XZ@2@XZ 000000014004ef10 f i yassl:handshake.obj
 0001:0004df20       ??$ysDelete@UMessage@yaSSL@@@yaSSL@@YAXPEAUMessage@0@@Z 000000014004ef20 f i yassl:handshake.obj
 0001:0004df40       ?ProcessOldClientHello@yaSSL@@YAXAEAVinput_buffer@1@AEAVSSL@1@@Z 000000014004ef40 f   yassl:handshake.obj
 0001:0004e240       ?CreateObject@?$Factory@UMessage@yaSSL@@HP6APEAU12@XZ@yaSSL@@QEBAPEAUMessage@2@AEBH@Z 000000014004f240 f i yassl:handshake.obj
 0001:0004e270       ?Destroy@?$auto_ptr@UDigest@yaSSL@@@mySTL@@AEAAXXZ 000000014004f270 f i yassl:handshake.obj
 0001:0004e280       ?Destroy@?$auto_ptr@UMessage@yaSSL@@@mySTL@@AEAAXXZ 000000014004f280 f i yassl:handshake.obj
 0001:0004e290       ??1?$auto_ptr@UDigest@yaSSL@@@mySTL@@QEAA@XZ 000000014004f290 f i yassl:handshake.obj
 0001:0004e2a0       ?reset@?$auto_ptr@UDigest@yaSSL@@@mySTL@@QEAAXPEAUDigest@yaSSL@@@Z 000000014004f2a0 f i yassl:handshake.obj
 0001:0004e2d0       ??1?$auto_ptr@UMessage@yaSSL@@@mySTL@@QEAA@XZ 000000014004f2d0 f i yassl:handshake.obj
 0001:0004e2e0       ?Destroy@?$auto_ptr@Voutput_buffer@yaSSL@@@mySTL@@AEAAXXZ 000000014004f2e0 f i yassl:handshake.obj
 0001:0004e2f0       ?p_hash@?A0x6aee5395@yaSSL@@YAXAEAVoutput_buffer@2@AEBV32@1W4MACAlgorithm@2@@Z 000000014004f2f0 f   yassl:handshake.obj
 0001:0004e4d0       ?TLS_hmac@yaSSL@@YAXAEAVSSL@1@PEAEPEBEIW4ContentType@1@_N@Z 000000014004f4d0 f   yassl:handshake.obj
 0001:0004e6b0       ?PRF@yaSSL@@YAXPEAEIPEBEI1I1I@Z 000000014004f6b0 f   yassl:handshake.obj
 0001:0004e850       ?DoProcessReply@yaSSL@@YAHAEAVSSL@1@@Z 000000014004f850 f   yassl:handshake.obj
 0001:0004ec00       ?processReply@yaSSL@@YAXAEAVSSL@1@@Z 000000014004fc00 f   yassl:handshake.obj
 0001:0004ec70       ?receiveData@yaSSL@@YAHAEAVSSL@1@AEAVData@1@_N@Z 000000014004fc70 f   yassl:handshake.obj
 0001:0004ed80       ??1?$auto_ptr@Voutput_buffer@yaSSL@@@mySTL@@QEAA@XZ 000000014004fd80 f i yassl:handshake.obj
 0001:0004ed90       ?cipherFinished@?A0x6aee5395@yaSSL@@YAXAEAVSSL@2@AEAVFinished@2@AEAVoutput_buffer@2@@Z 000000014004fd90 f   yassl:handshake.obj
 0001:0004f0e0       ?buildMessage@?A0x6aee5395@yaSSL@@YAXAEAVSSL@2@AEAVoutput_buffer@2@AEBUMessage@2@@Z 00000001400500e0 f   yassl:handshake.obj
 0001:0004f400       ?buildAlert@?A0x6aee5395@yaSSL@@YAXAEAVSSL@2@AEAVoutput_buffer@2@AEBVAlert@2@@Z 0000000140050400 f   yassl:handshake.obj
 0001:0004f490       ?buildFinishedTLS@?A0x6aee5395@yaSSL@@YAXAEAVSSL@2@AEAVFinished@2@PEBE@Z 0000000140050490 f   yassl:handshake.obj
 0001:0004f5a0       ?buildFinished@yaSSL@@YAXAEAVSSL@1@AEAVFinished@1@PEBE@Z 00000001400505a0 f   yassl:handshake.obj
 0001:0004f680       ?sendClientKeyExchange@yaSSL@@YAXAEAVSSL@1@W4BufferOutput@1@@Z 0000000140050680 f   yassl:handshake.obj
 0001:0004f7e0       ?sendServerKeyExchange@yaSSL@@YAXAEAVSSL@1@W4BufferOutput@1@@Z 00000001400507e0 f   yassl:handshake.obj
 0001:0004f930       ?sendChangeCipher@yaSSL@@YAXAEAVSSL@1@W4BufferOutput@1@@Z 0000000140050930 f   yassl:handshake.obj
 0001:0004fa50       ?sendFinished@yaSSL@@YAXAEAVSSL@1@W4ConnectionEnd@1@W4BufferOutput@1@@Z 0000000140050a50 f   yassl:handshake.obj
 0001:0004fc00       ?sendData@yaSSL@@YAHAEAVSSL@1@PEBXH@Z 0000000140050c00 f   yassl:handshake.obj
 0001:0004fdf0       ?sendAlert@yaSSL@@YAHAEAVSSL@1@AEBVAlert@1@@Z 0000000140050df0 f   yassl:handshake.obj
 0001:0004fe70       ?sendServerHello@yaSSL@@YAXAEAVSSL@1@W4BufferOutput@1@@Z 0000000140050e70 f   yassl:handshake.obj
 0001:00050030       ?sendServerHelloDone@yaSSL@@YAXAEAVSSL@1@W4BufferOutput@1@@Z 0000000140051030 f   yassl:handshake.obj
 0001:00050150       ?sendCertificate@yaSSL@@YAXAEAVSSL@1@W4BufferOutput@1@@Z 0000000140051150 f   yassl:handshake.obj
 0001:00050290       ?sendCertificateRequest@yaSSL@@YAXAEAVSSL@1@W4BufferOutput@1@@Z 0000000140051290 f   yassl:handshake.obj
 0001:000503f0       ?sendCertificateVerify@yaSSL@@YAXAEAVSSL@1@W4BufferOutput@1@@Z 00000001400513f0 f   yassl:handshake.obj
 0001:00050550       ?GetKey@PublicKey@TaoCrypt@@QEBAPEBEXZ 0000000140051550 f i yassl:cert_wrapper.obj
 0001:00050560       ?size@PublicKey@TaoCrypt@@QEBAIXZ 0000000140051560 f i yassl:cert_wrapper.obj
 0001:00050570       ?GetPublicKey@CertDecoder@TaoCrypt@@QEBAAEBVPublicKey@2@XZ 0000000140051570 f i yassl:cert_wrapper.obj
 0001:00050580       ?GetKeyType@CertDecoder@TaoCrypt@@QEBA?AW4KeyType@2@XZ 0000000140051580 f i yassl:cert_wrapper.obj
 0001:00050590       ?GetIssuer@CertDecoder@TaoCrypt@@QEBAPEBDXZ 0000000140051590 f i yassl:cert_wrapper.obj
 0001:000505a0       ?GetCommonName@CertDecoder@TaoCrypt@@QEBAPEBDXZ 00000001400515a0 f i yassl:cert_wrapper.obj
 0001:000505b0       ?GetHash@CertDecoder@TaoCrypt@@QEBAPEBEXZ 00000001400515b0 f i yassl:cert_wrapper.obj
 0001:000505c0       ?GetBeforeDate@CertDecoder@TaoCrypt@@QEBAPEBDXZ 00000001400515c0 f i yassl:cert_wrapper.obj
 0001:000505d0       ?GetAfterDate@CertDecoder@TaoCrypt@@QEBAPEBDXZ 00000001400515d0 f i yassl:cert_wrapper.obj
 0001:000505e0       ??0x509@yaSSL@@QEAA@I@Z    00000001400515e0 f   yassl:cert_wrapper.obj
 0001:00050600       ??0x509@yaSSL@@QEAA@AEBV01@@Z 0000000140051600 f   yassl:cert_wrapper.obj
 0001:00050640       ?get_length@x509@yaSSL@@QEBAIXZ 0000000140051640 f   yassl:cert_wrapper.obj
 0001:00050650       ?get_buffer@x509@yaSSL@@QEBAPEBEXZ 0000000140051650 f   yassl:cert_wrapper.obj
 0001:00050660       ?use_buffer@x509@yaSSL@@QEAAPEAEXZ 0000000140051660 f   yassl:cert_wrapper.obj
 0001:00050670       ?verifyPeer@CertManager@yaSSL@@QEBA_NXZ 0000000140051670 f   yassl:cert_wrapper.obj
 0001:00050680       ?verifyNone@CertManager@yaSSL@@QEBA_NXZ 0000000140051680 f   yassl:cert_wrapper.obj
 0001:00050690       ?failNoCert@CertManager@yaSSL@@QEBA_NXZ 0000000140051690 f   yassl:cert_wrapper.obj
 0001:000506a0       ?sendVerify@CertManager@yaSSL@@QEBA_NXZ 00000001400516a0 f   yassl:cert_wrapper.obj
 0001:000506b0       ?setVerifyPeer@CertManager@yaSSL@@QEAAXXZ 00000001400516b0 f   yassl:cert_wrapper.obj
 0001:000506c0       ?setVerifyNone@CertManager@yaSSL@@QEAAXXZ 00000001400516c0 f   yassl:cert_wrapper.obj
 0001:000506d0       ?setFailNoCert@CertManager@yaSSL@@QEAAXXZ 00000001400516d0 f   yassl:cert_wrapper.obj
 0001:000506e0       ?setSendVerify@CertManager@yaSSL@@QEAAXXZ 00000001400516e0 f   yassl:cert_wrapper.obj
 0001:000506f0       ?setVerifyCallback@CertManager@yaSSL@@QEAAXP6AHHPEAUX509_STORE_CTX@2@@Z@Z 00000001400516f0 f   yassl:cert_wrapper.obj
 0001:00050700       ?get_peerKey@CertManager@yaSSL@@QEBAPEBEXZ 0000000140051700 f   yassl:cert_wrapper.obj
 0001:00050710       ?get_peerX509@CertManager@yaSSL@@QEBAPEAVX509@2@XZ 0000000140051710 f   yassl:cert_wrapper.obj
 0001:00050720       ?get_peerKeyType@CertManager@yaSSL@@QEBA?AW4SignatureAlgorithm@2@XZ 0000000140051720 f   yassl:cert_wrapper.obj
 0001:00050730       ?get_keyType@CertManager@yaSSL@@QEBA?AW4SignatureAlgorithm@2@XZ 0000000140051730 f   yassl:cert_wrapper.obj
 0001:00050740       ?get_peerKeyLength@CertManager@yaSSL@@QEBAIXZ 0000000140051740 f   yassl:cert_wrapper.obj
 0001:00050750       ?get_privateKey@CertManager@yaSSL@@QEBAPEBEXZ 0000000140051750 f   yassl:cert_wrapper.obj
 0001:00050760       ?get_privateKeyLength@CertManager@yaSSL@@QEBAIXZ 0000000140051760 f   yassl:cert_wrapper.obj
 0001:00050770       ?setPeerX509@CertManager@yaSSL@@QEAAXPEAVX509@2@@Z 0000000140051770 f   yassl:cert_wrapper.obj
 0001:00050880       ?size@?$list@PEAVx509@yaSSL@@@mySTL@@QEBA_KXZ 0000000140051880 f i yassl:cert_wrapper.obj
 0001:00050890       ??0?$list@PEAVSigner@TaoCrypt@@@mySTL@@QEAA@XZ 0000000140051890 f i yassl:cert_wrapper.obj
 0001:000508b0       ??Dreverse_iterator@?$list@PEAVx509@yaSSL@@@mySTL@@QEBAAEAPEAVx509@yaSSL@@XZ 00000001400518b0 f i yassl:cert_wrapper.obj
 0001:000508c0       ??Ereverse_iterator@?$list@PEAVx509@yaSSL@@@mySTL@@QEAAAEAV012@XZ 00000001400518c0 f i yassl:cert_wrapper.obj
 0001:000508d0       ??0iterator@?$list@PEAVSigner@TaoCrypt@@@mySTL@@QEAA@PEAUnode@12@@Z 00000001400518d0 f i yassl:cert_wrapper.obj
 0001:000508e0       ??0reverse_iterator@?$list@PEAVx509@yaSSL@@@mySTL@@QEAA@PEAUnode@12@@Z 00000001400518e0 f i yassl:cert_wrapper.obj
 0001:000508f0       ?front@?$list@PEAVx509@yaSSL@@@mySTL@@QEBAPEAVx509@yaSSL@@XZ 00000001400518f0 f i yassl:cert_wrapper.obj
 0001:00050900       ??$swap@I@mySTL@@YAXAEAI0@Z 0000000140051900 f i yassl:cert_wrapper.obj
 0001:00050910       ??Diterator@?$list@PEAVSigner@TaoCrypt@@@mySTL@@QEBAAEAPEAVSigner@TaoCrypt@@XZ 0000000140051910 f i yassl:cert_wrapper.obj
 0001:00050920       ??Eiterator@?$list@PEAVSigner@TaoCrypt@@@mySTL@@QEAAAEAV012@XZ 0000000140051920 f i yassl:cert_wrapper.obj
 0001:00050930       ??9iterator@?$list@PEAVSigner@TaoCrypt@@@mySTL@@QEBA_NAEBV012@@Z 0000000140051930 f i yassl:cert_wrapper.obj
 0001:00050940       ??0node@?$list@PEAVSigner@TaoCrypt@@@mySTL@@QEAA@PEAVSigner@TaoCrypt@@@Z 0000000140051940 f i yassl:cert_wrapper.obj
 0001:00050960       ??$destroy@Unode@?$list@PEAVSigner@TaoCrypt@@@mySTL@@@mySTL@@YAXPEAUnode@?$list@PEAVSigner@TaoCrypt@@@0@@Z 0000000140051960 f i yassl:cert_wrapper.obj
 0001:00050970       ??$swap@PEAVSigner@TaoCrypt@@@mySTL@@YAXAEAPEAVSigner@TaoCrypt@@0@Z 0000000140051970 f i yassl:cert_wrapper.obj
 0001:00050980       ??_GSigner@TaoCrypt@@QEAAPEAXI@Z 0000000140051980 f i yassl:cert_wrapper.obj
 0001:000509b0       ??1x509@yaSSL@@QEAA@XZ     00000001400519b0 f   yassl:cert_wrapper.obj
 0001:000509c0       ?Swap@x509@yaSSL@@AEAAXAEAV12@@Z 00000001400519c0 f   yassl:cert_wrapper.obj
 0001:000509e0       ??4x509@yaSSL@@QEAAAEAV01@AEBV01@@Z 00000001400519e0 f   yassl:cert_wrapper.obj
 0001:00050a20       ?get_cert@CertManager@yaSSL@@QEBAPEBVx509@2@XZ 0000000140051a20 f   yassl:cert_wrapper.obj
 0001:00050a30       ?rbegin@?$list@PEAVx509@yaSSL@@@mySTL@@QEBA?AVreverse_iterator@12@XZ 0000000140051a30 f i yassl:cert_wrapper.obj
 0001:00050a40       ?begin@?$list@PEAVSigner@TaoCrypt@@@mySTL@@QEBA?AViterator@12@XZ 0000000140051a40 f i yassl:cert_wrapper.obj
 0001:00050a50       ?end@?$list@PEAVSigner@TaoCrypt@@@mySTL@@QEBA?AViterator@12@XZ 0000000140051a50 f i yassl:cert_wrapper.obj
 0001:00050a60       ?push_back@?$list@PEAVSigner@TaoCrypt@@@mySTL@@QEAAXPEAVSigner@TaoCrypt@@@Z 0000000140051a60 f i yassl:cert_wrapper.obj
 0001:00050ad0       ??$ysDelete@VSigner@TaoCrypt@@@yaSSL@@YAXPEAVSigner@TaoCrypt@@@Z 0000000140051ad0 f i yassl:cert_wrapper.obj
 0001:00050b00       ?AddPeerCert@CertManager@yaSSL@@QEAAXPEAVx509@2@@Z 0000000140051b00 f   yassl:cert_wrapper.obj
 0001:00050b10       ?CopySelfCert@CertManager@yaSSL@@QEAAXPEBVx509@2@@Z 0000000140051b10 f   yassl:cert_wrapper.obj
 0001:00050b60       ??1?$list@PEAVSigner@TaoCrypt@@@mySTL@@QEAA@XZ 0000000140051b60 f i yassl:cert_wrapper.obj
 0001:00050b90       ??$checked_delete@VSigner@TaoCrypt@@@yaSSL@@YAXPEAVSigner@TaoCrypt@@@Z 0000000140051b90 f i yassl:cert_wrapper.obj
 0001:00050ba0       ??0CertManager@yaSSL@@QEAA@XZ 0000000140051ba0 f   yassl:cert_wrapper.obj
 0001:00050c20       ?CopyCaCert@CertManager@yaSSL@@QEAAHPEBVx509@2@@Z 0000000140051c20 f   yassl:cert_wrapper.obj
 0001:00050d60       ?Validate@CertManager@yaSSL@@QEAAHXZ 0000000140051d60 f   yassl:cert_wrapper.obj
 0001:000510d0       ?SetPrivateKey@CertManager@yaSSL@@QEAAHAEBVx509@2@@Z 00000001400520d0 f   yassl:cert_wrapper.obj
 0001:00051250       ??$?RVSigner@TaoCrypt@@@del_ptr_zero@yaSSL@@QEBAXAEAPEAVSigner@TaoCrypt@@@Z 0000000140052250 f i yassl:cert_wrapper.obj
 0001:00051260       ??$for_each@Viterator@?$list@PEAVSigner@TaoCrypt@@@mySTL@@Udel_ptr_zero@yaSSL@@@mySTL@@YA?AUdel_ptr_zero@yaSSL@@Viterator@?$list@PEAVSigner@TaoCrypt@@@0@0U12@@Z 0000000140052260 f i yassl:cert_wrapper.obj
 0001:000512c0       ??1CertManager@yaSSL@@QEAA@XZ 00000001400522c0 f   yassl:cert_wrapper.obj
 0001:00051350       ?SetErrorString@yaSSL@@YAXKPEAD@Z 0000000140052350 f   yassl:yassl_error.obj
 0001:00051770       ?check@Check@yaSSL@@QEAAXII@Z 0000000140052770 f   yassl:buffer.obj
 0001:00051780       ?check@NoCheck@yaSSL@@QEAAXII@Z 0000000140052780 f   yassl:buffer.obj
 0001:00051790       ??0input_buffer@yaSSL@@QEAA@XZ 0000000140052790 f   yassl:buffer.obj
 0001:000517b0       ??0input_buffer@yaSSL@@QEAA@I@Z 00000001400527b0 f   yassl:buffer.obj
 0001:000517f0       ?allocate@input_buffer@yaSSL@@QEAAXI@Z 00000001400527f0 f   yassl:buffer.obj
 0001:00051820       ?get_buffer@input_buffer@yaSSL@@QEBAPEAEXZ 0000000140052820 f   yassl:buffer.obj
 0001:00051830       ?get_capacity@input_buffer@yaSSL@@QEBAIXZ 0000000140052830 f   yassl:buffer.obj
 0001:00051840       ?get_current@input_buffer@yaSSL@@QEBAIXZ 0000000140052840 f   yassl:buffer.obj
 0001:00051850       ?get_size@input_buffer@yaSSL@@QEBAIXZ 0000000140052850 f   yassl:buffer.obj
 0001:00051860       ?get_remaining@input_buffer@yaSSL@@QEBAIXZ 0000000140052860 f   yassl:buffer.obj
 0001:00051870       ?set_current@input_buffer@yaSSL@@QEAAXI@Z 0000000140052870 f   yassl:buffer.obj
 0001:00051880       ??Ainput_buffer@yaSSL@@QEAAAEBEI@Z 0000000140052880 f   yassl:buffer.obj
 0001:000518a0       ?eof@input_buffer@yaSSL@@QEAA_NXZ 00000001400528a0 f   yassl:buffer.obj
 0001:000518b0       ?peek@input_buffer@yaSSL@@QEBAEXZ 00000001400528b0 f   yassl:buffer.obj
 0001:000518c0       ?read@input_buffer@yaSSL@@QEAAXPEAEI@Z 00000001400528c0 f   yassl:buffer.obj
 0001:00051900       ??0output_buffer@yaSSL@@QEAA@XZ 0000000140052900 f   yassl:buffer.obj
 0001:00051910       ??0output_buffer@yaSSL@@QEAA@I@Z 0000000140052910 f   yassl:buffer.obj
 0001:00051950       ?get_size@output_buffer@yaSSL@@QEBAIXZ 0000000140052950 f   yassl:buffer.obj
 0001:00051960       ?get_capacity@output_buffer@yaSSL@@QEBAIXZ 0000000140052960 f   yassl:buffer.obj
 0001:00051970       ?set_current@output_buffer@yaSSL@@QEAAXI@Z 0000000140052970 f   yassl:buffer.obj
 0001:00051980       ?allocate@output_buffer@yaSSL@@QEAAXI@Z 0000000140052980 f   yassl:buffer.obj
 0001:000519b0       ?get_buffer@output_buffer@yaSSL@@QEBAPEBEXZ 00000001400529b0 f   yassl:buffer.obj
 0001:000519c0       ??Aoutput_buffer@yaSSL@@QEAAAEAEI@Z 00000001400529c0 f   yassl:buffer.obj
 0001:000519d0       ?eof@output_buffer@yaSSL@@QEAA_NXZ 00000001400529d0 f   yassl:buffer.obj
 0001:000519f0       ?write@output_buffer@yaSSL@@QEAAXPEBEI@Z 00000001400529f0 f   yassl:buffer.obj
 0001:00051a20       ??1input_buffer@yaSSL@@QEAA@XZ 0000000140052a20 f   yassl:buffer.obj
 0001:00051a30       ?add_size@input_buffer@yaSSL@@QEAAXI@Z 0000000140052a30 f   yassl:buffer.obj
 0001:00051a40       ?assign@input_buffer@yaSSL@@QEAAXPEBEI@Z 0000000140052a40 f   yassl:buffer.obj
 0001:00051a70       ??0output_buffer@yaSSL@@QEAA@IPEBEI@Z 0000000140052a70 f   yassl:buffer.obj
 0001:00051ad0       ??1output_buffer@yaSSL@@QEAA@XZ 0000000140052ad0 f   yassl:buffer.obj
 0001:00051ae0       ??0input_buffer@yaSSL@@QEAA@IPEBEI@Z 0000000140052ae0 f   yassl:buffer.obj
 0001:00051b40       ??0Mutex@yaSSL@@QEAA@XZ    0000000140052b40 f   yassl:lock.obj
 0001:00051b60       ??1Mutex@yaSSL@@QEAA@XZ    0000000140052b60 f   yassl:lock.obj
 0001:00051b70       ??0Lock@Mutex@yaSSL@@QEAA@AEAV12@@Z 0000000140052b70 f   yassl:lock.obj
 0001:00051b90       ??1Lock@Mutex@yaSSL@@QEAA@XZ 0000000140052b90 f   yassl:lock.obj
 0001:00051ba0       ?timer@yaSSL@@YANXZ        0000000140052ba0 f   yassl:timer.obj
 0001:00051bf0       ?lowResTimer@yaSSL@@YAIXZ  0000000140052bf0 f   yassl:timer.obj
 0001:00051c10       compress2                  0000000140052c10 f   zlib:compress.obj
 0001:00051cd0       compress                   0000000140052cd0 f   zlib:compress.obj
 0001:00051cf0       compressBound              0000000140052cf0 f   zlib:compress.obj
 0001:00051d10       uncompress                 0000000140052d10 f   zlib:uncompr.obj
 0001:00051de0       deflateSetDictionary       0000000140052de0 f   zlib:deflate.obj
 0001:00051f40       deflateSetHeader           0000000140052f40 f   zlib:deflate.obj
 0001:00051f70       deflatePrime               0000000140052f70 f   zlib:deflate.obj
 0001:00051fb0       deflateTune                0000000140052fb0 f   zlib:deflate.obj
 0001:00051ff0       deflateBound               0000000140052ff0 f   zlib:deflate.obj
 0001:000520e0       deflate                    00000001400530e0 f   zlib:deflate.obj
 0001:00052990       deflateEnd                 0000000140053990 f   zlib:deflate.obj
 0001:00052a70       deflateCopy                0000000140053a70 f   zlib:deflate.obj
 0001:00053c80       deflateReset               0000000140054c80 f   zlib:deflate.obj
 0001:00053d60       deflateParams              0000000140054d60 f   zlib:deflate.obj
 0001:00053e70       deflateInit2_              0000000140054e70 f   zlib:deflate.obj
 0001:00054100       deflateInit_               0000000140055100 f   zlib:deflate.obj
 0001:00054140       inflateReset               0000000140055140 f   zlib:inflate.obj
 0001:000541b0       inflatePrime               00000001400551b0 f   zlib:inflate.obj
 0001:00054200       inflateInit2_              0000000140055200 f   zlib:inflate.obj
 0001:00054320       inflateInit_               0000000140055320 f   zlib:inflate.obj
 0001:00054470       inflate                    0000000140055470 f   zlib:inflate.obj
 0001:00055ec0       inflateEnd                 0000000140056ec0 f   zlib:inflate.obj
 0001:00055f20       inflateSetDictionary       0000000140056f20 f   zlib:inflate.obj
 0001:00056010       inflateGetHeader           0000000140057010 f   zlib:inflate.obj
 0001:000560b0       inflateSync                00000001400570b0 f   zlib:inflate.obj
 0001:000561d0       inflateSyncPoint           00000001400571d0 f   zlib:inflate.obj
 0001:00056200       inflateCopy                0000000140057200 f   zlib:inflate.obj
 0001:00056390       adler32                    0000000140057390 f   zlib:adler32.obj
 0001:000566a0       adler32_combine            00000001400576a0 f   zlib:adler32.obj
 0001:00057490       _tr_tally                  0000000140058490 f   zlib:trees.obj
 0001:00057c70       _tr_init                   0000000140058c70 f   zlib:trees.obj
 0001:00058060       _tr_stored_block           0000000140059060 f   zlib:trees.obj
 0001:00058100       _tr_align                  0000000140059100 f   zlib:trees.obj
 0001:00058330       _tr_flush_block            0000000140059330 f   zlib:trees.obj
 0001:00058560       get_crc_table              0000000140059560 f   zlib:crc32.obj
 0001:00058c80       crc32_combine              0000000140059c80 f   zlib:crc32.obj
 0001:00058d70       crc32                      0000000140059d70 f   zlib:crc32.obj
 0001:00058d80       zlibVersion                0000000140059d80 f   zlib:zutil.obj
 0001:00058d90       zlibCompileFlags           0000000140059d90 f   zlib:zutil.obj
 0001:00058da0       zError                     0000000140059da0 f   zlib:zutil.obj
 0001:00058dc0       zcalloc                    0000000140059dc0 f   zlib:zutil.obj
 0001:00058dd0       zcfree                     0000000140059dd0 f   zlib:zutil.obj
 0001:00058de0       inflate_fast               0000000140059de0 f   zlib:inffast.obj
 0001:000592d0       inflate_table              000000014005a2d0 f   zlib:inftrees.obj
 0001:000597a0       gethostname                000000014005a7a0 f   wsock32:WSOCK32.dll
 0001:000597a6       ioctlsocket                000000014005a7a6 f   wsock32:WSOCK32.dll
 0001:000597ac       closesocket                000000014005a7ac f   wsock32:WSOCK32.dll
 0001:000597b2       listen                     000000014005a7b2 f   wsock32:WSOCK32.dll
 0001:000597b8       bind                       000000014005a7b8 f   wsock32:WSOCK32.dll
 0001:000597be       setsockopt                 000000014005a7be f   wsock32:WSOCK32.dll
 0001:000597c4       htons                      000000014005a7c4 f   wsock32:WSOCK32.dll
 0001:000597ca       htonl                      000000014005a7ca f   wsock32:WSOCK32.dll
 0001:000597d0       inet_addr                  000000014005a7d0 f   wsock32:WSOCK32.dll
 0001:000597d6       socket                     000000014005a7d6 f   wsock32:WSOCK32.dll
 0001:000597dc       shutdown                   000000014005a7dc f   wsock32:WSOCK32.dll
 0001:000597e2       accept                     000000014005a7e2 f   wsock32:WSOCK32.dll
 0001:000597e8       __WSAFDIsSet               000000014005a7e8 f   wsock32:WSOCK32.dll
 0001:000597ee       select                     000000014005a7ee f   wsock32:WSOCK32.dll
 0001:000597f4       connect                    000000014005a7f4 f   wsock32:WSOCK32.dll
 0001:000597fa       WSAGetLastError            000000014005a7fa f   wsock32:WSOCK32.dll
 0001:00059800       WSACleanup                 000000014005a800 f   wsock32:WSOCK32.dll
 0001:00059806       WSAStartup                 000000014005a806 f   wsock32:WSOCK32.dll
 0001:0005980c       gethostbyname              000000014005a80c f   wsock32:WSOCK32.dll
 0001:00059812       recv                       000000014005a812 f   wsock32:WSOCK32.dll
 0001:00059818       send                       000000014005a818 f   wsock32:WSOCK32.dll
 0001:0005981e       ntohs                      000000014005a81e f   wsock32:WSOCK32.dll
 0001:00059824       getpeername                000000014005a824 f   wsock32:WSOCK32.dll
 0001:0005982a       WSASetLastError            000000014005a82a f   wsock32:WSOCK32.dll
 0001:00059830       ??_U@YAPEAX_K@Z            000000014005a830 f   libcpmt:newaop.obj
 0001:00059840       _fpclear                   000000014005a840 f   LIBCMT:fpinit.obj
 0001:00059850       _cfltcvt_init              000000014005a850 f   LIBCMT:fpinit.obj
 0001:000598e0       __setfflag                 000000014005a8e0 f   LIBCMT:fpinit.obj
 0001:000598f0       _fpmath                    000000014005a8f0 f   LIBCMT:fpinit.obj
 0001:00059980       ?name@type_info@@QEBAPEBDPEAU__type_info_node@@@Z 000000014005a980 f   LIBCMT:typinfo.obj
 0001:00059990       ??1type_info@@UEAA@XZ      000000014005a990 f   LIBCMT:typinfo.obj
 0001:000599a0       ??_Etype_info@@UEAAPEAXI@Z 000000014005a9a0 f i LIBCMT:typinfo.obj
 0001:000599a0       ??_Gtype_info@@UEAAPEAXI@Z 000000014005a9a0 f i LIBCMT:typinfo.obj
 0001:000599e0       ?_name_internal_method@type_info@@QEBAPEBDPEAU__type_info_node@@@Z 000000014005a9e0 f   LIBCMT:typinfo.obj
 0001:000599f0       ?_type_info_dtor_internal_method@type_info@@QEAAXXZ 000000014005a9f0 f   LIBCMT:typinfo.obj
 0001:00059a00       ??8type_info@@QEBA_NAEBV0@@Z 000000014005aa00 f   LIBCMT:typinfo.obj
 0001:00059a30       ??9type_info@@QEBA_NAEBV0@@Z 000000014005aa30 f   LIBCMT:typinfo.obj
 0001:00059a60       ?before@type_info@@QEBAHAEBV1@@Z 000000014005aa60 f   LIBCMT:typinfo.obj
 0001:00059a90       ?raw_name@type_info@@QEBAPEBDXZ 000000014005aa90 f   LIBCMT:typinfo.obj
 0001:00059aa0       ??0type_info@@AEAA@AEBV0@@Z 000000014005aaa0 f   LIBCMT:typinfo.obj
 0001:00059ab0       ??4type_info@@AEAAAEAV0@AEBV0@@Z 000000014005aab0 f   LIBCMT:typinfo.obj
 0001:00059ac0       _purecall                  000000014005aac0 f   LIBCMT:purevirt.obj
 0001:00059b00       _set_purecall_handler      000000014005ab00 f   LIBCMT:purevirt.obj
 0001:00059b40       _get_purecall_handler      000000014005ab40 f   LIBCMT:purevirt.obj
 0001:00059b50       ??3@YAXPEAX@Z              000000014005ab50 f   LIBCMT:delete.obj
 0001:00059cc0       _stat64i32                 000000014005acc0 f   LIBCMT:stati32.obj
 0001:0005a140       strncpy                    000000014005b140 f   LIBCMT:strncpy.obj
 0001:0005a2b0       __GSHandlerCheckCommon     000000014005b2b0 f   LIBCMT:gshandler.obj
 0001:0005a320       __GSHandlerCheck           000000014005b320 f   LIBCMT:gshandler.obj
 0001:0005a3a0       __security_check_cookie    000000014005b3a0 f   LIBCMT:amdsecgs.obj
 0001:0005a3c0       ??0bad_alloc@std@@QEAA@XZ  000000014005b3c0 f i LIBCMT:new.obj
 0001:0005a3f0       ??1bad_alloc@std@@UEAA@XZ  000000014005b3f0 f i LIBCMT:new.obj
 0001:0005a400       ??_Ebad_alloc@std@@UEAAPEAXI@Z 000000014005b400 f i LIBCMT:new.obj
 0001:0005a400       ??_Gbad_alloc@std@@UEAAPEAXI@Z 000000014005b400 f i LIBCMT:new.obj
 0001:0005a440       ??0bad_alloc@std@@QEAA@AEBV01@@Z 000000014005b440 f i LIBCMT:new.obj
 0001:0005a470       ??2@YAPEAX_K@Z             000000014005b470 f   LIBCMT:new.obj
 0001:0005a510       _time64                    000000014005b510 f   LIBCMT:time64.obj
 0001:0005a570       memset                     000000014005b570 f   LIBCMT:memset.obj
 0001:0005a670       strncmp                    000000014005b670 f   LIBCMT:strncmp.obj
 0001:0005a730       strchr                     000000014005b730 f   LIBCMT:strchr.obj
 0001:0005a760       _invoke_watson_if_error    000000014005b760 f i LIBCMT:strerror.obj
 0001:0005a7a0       _get_sys_err_msg           000000014005b7a0 f i LIBCMT:strerror.obj
 0001:0005a7e0       strerror                   000000014005b7e0 f   LIBCMT:strerror.obj
 0001:0005a890       strerror_s                 000000014005b890 f   LIBCMT:strerror.obj
 0001:0005a950       _get_errno_from_oserr      000000014005b950 f   LIBCMT:dosmap.obj
 0001:0005a9a0       _errno                     000000014005b9a0 f   LIBCMT:dosmap.obj
 0001:0005a9d0       __doserrno                 000000014005b9d0 f   LIBCMT:dosmap.obj
 0001:0005aa00       _dosmaperr                 000000014005ba00 f   LIBCMT:dosmap.obj
 0001:0005aa90       _set_errno                 000000014005ba90 f   LIBCMT:dosmap.obj
 0001:0005aae0       _get_errno                 000000014005bae0 f   LIBCMT:dosmap.obj
 0001:0005ab40       _set_doserrno              000000014005bb40 f   LIBCMT:dosmap.obj
 0001:0005ab90       _get_doserrno              000000014005bb90 f   LIBCMT:dosmap.obj
 0001:0005abf0       _snprintf                  000000014005bbf0 f   LIBCMT:snprintf.obj
 0001:0005acc0       _snprintf_l                000000014005bcc0 f   LIBCMT:snprintf.obj
 0001:0005ace0       strstr                     000000014005bce0 f   LIBCMT:strstr.obj
 0001:0005ad50       vfscanf                    000000014005bd50 f   LIBCMT:fscanf.obj
 0001:0005af30       fscanf                     000000014005bf30 f   LIBCMT:fscanf.obj
 0001:0005af70       _fscanf_l                  000000014005bf70 f   LIBCMT:fscanf.obj
 0001:0005afb0       fscanf_s                   000000014005bfb0 f   LIBCMT:fscanf.obj
 0001:0005aff0       _fscanf_s_l                000000014005bff0 f   LIBCMT:fscanf.obj
 0001:0005b030       printf                     000000014005c030 f   LIBCMT:printf.obj
 0001:0005b120       _printf_l                  000000014005c120 f   LIBCMT:printf.obj
 0001:0005b150       _printf_s_l                000000014005c150 f   LIBCMT:printf.obj
 0001:0005b180       printf_s                   000000014005c180 f   LIBCMT:printf.obj
 0001:0005b1b0       _printf_p_l                000000014005c1b0 f   LIBCMT:printf.obj
 0001:0005b1e0       _printf_p                  000000014005c1e0 f   LIBCMT:printf.obj
 0001:0005b210       _set_printf_count_output   000000014005c210 f   LIBCMT:printf.obj
 0001:0005b240       _get_printf_count_output   000000014005c240 f   LIBCMT:printf.obj
 0001:0005b260       atol                       000000014005c260 f   LIBCMT:atox.obj
 0001:0005b270       _atol_l                    000000014005c270 f   LIBCMT:atox.obj
 0001:0005b280       atoi                       000000014005c280 f   LIBCMT:atox.obj
 0001:0005b290       _atoi_l                    000000014005c290 f   LIBCMT:atox.obj
 0001:0005b2a0       _atoi64                    000000014005c2a0 f   LIBCMT:atox.obj
 0001:0005b2b0       _atoi64_l                  000000014005c2b0 f   LIBCMT:atox.obj
 0001:0005b2d0       memcpy                     000000014005c2d0 f   LIBCMT:memcpy.obj
 0001:0005b2d0       memmove                    000000014005c2d0     LIBCMT:memcpy.obj
 0001:0005b610       fprintf                    000000014005c610 f   LIBCMT:fprintf.obj
 0001:0005b7f0       _fprintf_l                 000000014005c7f0 f   LIBCMT:fprintf.obj
 0001:0005b810       _fprintf_s_l               000000014005c810 f   LIBCMT:fprintf.obj
 0001:0005b830       fprintf_s                  000000014005c830 f   LIBCMT:fprintf.obj
 0001:0005b860       _fprintf_p_l               000000014005c860 f   LIBCMT:fprintf.obj
 0001:0005b880       _fprintf_p                 000000014005c880 f   LIBCMT:fprintf.obj
 0001:0005b8b0       _vsnprintf_l               000000014005c8b0 f   LIBCMT:vsnprint.obj
 0001:0005b980       _vsnprintf                 000000014005c980 f   LIBCMT:vsnprint.obj
 0001:0005ba40       sprintf                    000000014005ca40 f   LIBCMT:sprintf.obj
 0001:0005baf0       _sprintf_l                 000000014005caf0 f   LIBCMT:sprintf.obj
 0001:0005bb10       sprintf_s                  000000014005cb10 f   LIBCMT:sprintf.obj
 0001:0005bb40       _sprintf_s_l               000000014005cb40 f   LIBCMT:sprintf.obj
 0001:0005bb60       _snprintf_s                000000014005cb60 f   LIBCMT:sprintf.obj
 0001:0005bb90       _snprintf_s_l              000000014005cb90 f   LIBCMT:sprintf.obj
 0001:0005bbc0       _sprintf_p                 000000014005cbc0 f   LIBCMT:sprintf.obj
 0001:0005bbf0       _sprintf_p_l               000000014005cbf0 f   LIBCMT:sprintf.obj
 0001:0005bc10       _scprintf                  000000014005cc10 f   LIBCMT:sprintf.obj
 0001:0005bc40       _scprintf_p                000000014005cc40 f   LIBCMT:sprintf.obj
 0001:0005bc70       _scprintf_l                000000014005cc70 f   LIBCMT:sprintf.obj
 0001:0005bca0       _scprintf_p_l              000000014005cca0 f   LIBCMT:sprintf.obj
 0001:0005bcd0       setbuf                     000000014005ccd0 f   LIBCMT:setbuf.obj
 0001:0005bcf0       __iob_func                 000000014005ccf0 f   LIBCMT:_file.obj
 0001:0005bd00       __initstdio                000000014005cd00 f   LIBCMT:_file.obj
 0001:0005be00       __endstdio                 000000014005ce00 f   LIBCMT:_file.obj
 0001:0005be30       _lock_file                 000000014005ce30 f   LIBCMT:_file.obj
 0001:0005bea0       _lock_file2                000000014005cea0 f   LIBCMT:_file.obj
 0001:0005bee0       _unlock_file               000000014005cee0 f   LIBCMT:_file.obj
 0001:0005bf30       _unlock_file2              000000014005cf30 f   LIBCMT:_file.obj
 0001:0005bf50       _flush                     000000014005cf50 f   LIBCMT:fflush.obj
 0001:0005bfd0       _fflush_nolock             000000014005cfd0 f   LIBCMT:fflush.obj
 0001:0005c1e0       fflush                     000000014005d1e0 f   LIBCMT:fflush.obj
 0001:0005c250       _flushall                  000000014005d250 f   LIBCMT:fflush.obj
 0001:0005c260       _amsg_exit                 000000014005d260 f   LIBCMT:crt0dat.obj
 0001:0005c290       __crtCorExitProcess        000000014005d290 f   LIBCMT:crt0dat.obj
 0001:0005c2d0       __crtExitProcess           000000014005d2d0 f   LIBCMT:crt0dat.obj
 0001:0005c310       _lockexit                  000000014005d310 f   LIBCMT:crt0dat.obj
 0001:0005c320       _unlockexit                000000014005d320 f   LIBCMT:crt0dat.obj
 0001:0005c370       _initterm_e                000000014005d370 f   LIBCMT:crt0dat.obj
 0001:0005c3b0       _get_osplatform            000000014005d3b0 f   LIBCMT:crt0dat.obj
 0001:0005c400       _get_osver                 000000014005d400 f   LIBCMT:crt0dat.obj
 0001:0005c450       _get_winver                000000014005d450 f   LIBCMT:crt0dat.obj
 0001:0005c4a0       _get_winmajor              000000014005d4a0 f   LIBCMT:crt0dat.obj
 0001:0005c4f0       _get_winminor              000000014005d4f0 f   LIBCMT:crt0dat.obj
 0001:0005c540       _get_wpgmptr               000000014005d540 f   LIBCMT:crt0dat.obj
 0001:0005c590       _get_pgmptr                000000014005d590 f   LIBCMT:crt0dat.obj
 0001:0005c5e0       _cinit                     000000014005d5e0 f   LIBCMT:crt0dat.obj
 0001:0005c7f0       exit                       000000014005d7f0 f   LIBCMT:crt0dat.obj
 0001:0005c800       _exit                      000000014005d800 f   LIBCMT:crt0dat.obj
 0001:0005c810       _cexit                     000000014005d810 f   LIBCMT:crt0dat.obj
 0001:0005c820       _c_exit                    000000014005d820 f   LIBCMT:crt0dat.obj
 0001:0005c830       _init_pointers             000000014005d830 f   LIBCMT:crt0dat.obj
 0001:0005c8a0       vfprintf_helper            000000014005d8a0 f   LIBCMT:vfprintf.obj
 0001:0005ca90       _vfprintf_l                000000014005da90 f   LIBCMT:vfprintf.obj
 0001:0005cac0       _vfprintf_s_l              000000014005dac0 f   LIBCMT:vfprintf.obj
 0001:0005caf0       _vfprintf_p_l              000000014005daf0 f   LIBCMT:vfprintf.obj
 0001:0005cb20       vfprintf                   000000014005db20 f   LIBCMT:vfprintf.obj
 0001:0005cb50       vfprintf_s                 000000014005db50 f   LIBCMT:vfprintf.obj
 0001:0005cb80       _vfprintf_p                000000014005db80 f   LIBCMT:vfprintf.obj
 0001:0005cbb0       _initp_misc_winsig         000000014005dbb0 f   LIBCMT:winsig.obj
 0001:0005ccd0       __get_sigabrt              000000014005dcd0 f   LIBCMT:winsig.obj
 0001:0005cce0       __fpecode                  000000014005dce0 f   LIBCMT:winsig.obj
 0001:0005cd00       __pxcptinfoptrs            000000014005dd00 f   LIBCMT:winsig.obj
 0001:0005cd20       signal                     000000014005dd20 f   LIBCMT:winsig.obj
 0001:0005cfe0       raise                      000000014005dfe0 f   LIBCMT:winsig.obj
 0001:0005d290       srand                      000000014005e290 f   LIBCMT:rand.obj
 0001:0005d2b0       rand                       000000014005e2b0 f   LIBCMT:rand.obj
 0001:0005d2e0       puts                       000000014005e2e0 f   LIBCMT:puts.obj
 0001:0005d520       strrchr                    000000014005e520 f   LIBCMT:strrchr.obj
 0001:0005d550       fgets                      000000014005e550 f   LIBCMT:fgets.obj
 0001:0005d7b0       floor                      000000014005e7b0 f   LIBCMT:floor.obj
 0001:0005d8d0       memcmp                     000000014005e8d0 f   LIBCMT:memcmp.obj
 0001:0005d9a0       _getenv_helper_nolock      000000014005e9a0 f   LIBCMT:getenv.obj
 0001:0005dc90       getenv                     000000014005ec90 f   LIBCMT:getenv.obj
 0001:0005dd60       getenv_s                   000000014005ed60 f   LIBCMT:getenv.obj
 0001:0005dec0       _dupenv_s                  000000014005eec0 f   LIBCMT:getenv.obj
 0001:0005e020       ??0_LocaleUpdate@@QEAA@PEAUlocaleinfo_struct@@@Z 000000014005f020 f i LIBCMT:strtol.obj
 0001:0005e0e0       ??1_LocaleUpdate@@QEAA@XZ  000000014005f0e0 f i LIBCMT:strtol.obj
 0001:0005e100       ?GetLocaleT@_LocaleUpdate@@QEAAPEAUlocaleinfo_struct@@XZ 000000014005f100 f i LIBCMT:strtol.obj
 0001:0005e4a0       strtol                     000000014005f4a0 f   LIBCMT:strtol.obj
 0001:0005e4e0       _strtol_l                  000000014005f4e0 f   LIBCMT:strtol.obj
 0001:0005e510       strtoul                    000000014005f510 f   LIBCMT:strtol.obj
 0001:0005e550       _strtoul_l                 000000014005f550 f   LIBCMT:strtol.obj
 0001:0005e580       _isalpha_l                 000000014005f580 f i LIBCMT:_ctype.obj
 0001:0005e690       isalpha                    000000014005f690 f i LIBCMT:_ctype.obj
 0001:0005e7b0       _isupper_l                 000000014005f7b0 f i LIBCMT:_ctype.obj
 0001:0005e8c0       isupper                    000000014005f8c0 f i LIBCMT:_ctype.obj
 0001:0005e9d0       _islower_l                 000000014005f9d0 f i LIBCMT:_ctype.obj
 0001:0005eae0       islower                    000000014005fae0 f i LIBCMT:_ctype.obj
 0001:0005ebf0       _isdigit_l                 000000014005fbf0 f i LIBCMT:_ctype.obj
 0001:0005ed00       isdigit                    000000014005fd00 f i LIBCMT:_ctype.obj
 0001:0005ee10       _isxdigit_l                000000014005fe10 f i LIBCMT:_ctype.obj
 0001:0005ef20       isxdigit                   000000014005ff20 f i LIBCMT:_ctype.obj
 0001:0005f030       _isspace_l                 0000000140060030 f i LIBCMT:_ctype.obj
 0001:0005f140       isspace                    0000000140060140 f i LIBCMT:_ctype.obj
 0001:0005f250       _ispunct_l                 0000000140060250 f i LIBCMT:_ctype.obj
 0001:0005f360       ispunct                    0000000140060360 f i LIBCMT:_ctype.obj
 0001:0005f470       _isalnum_l                 0000000140060470 f i LIBCMT:_ctype.obj
 0001:0005f580       isalnum                    0000000140060580 f i LIBCMT:_ctype.obj
 0001:0005f6a0       _isprint_l                 00000001400606a0 f i LIBCMT:_ctype.obj
 0001:0005f7b0       isprint                    00000001400607b0 f i LIBCMT:_ctype.obj
 0001:0005f8d0       _isgraph_l                 00000001400608d0 f i LIBCMT:_ctype.obj
 0001:0005f9e0       isgraph                    00000001400609e0 f i LIBCMT:_ctype.obj
 0001:0005fb00       _iscntrl_l                 0000000140060b00 f i LIBCMT:_ctype.obj
 0001:0005fc10       iscntrl                    0000000140060c10 f i LIBCMT:_ctype.obj
 0001:0005fd20       __isascii                  0000000140060d20 f i LIBCMT:_ctype.obj
 0001:0005fd30       __toascii                  0000000140060d30 f i LIBCMT:_ctype.obj
 0001:0005fd40       _iscsymf_l                 0000000140060d40 f i LIBCMT:_ctype.obj
 0001:0005fd70       __iscsymf                  0000000140060d70 f i LIBCMT:_ctype.obj
 0001:0005fda0       _iscsym_l                  0000000140060da0 f i LIBCMT:_ctype.obj
 0001:0005fdd0       __iscsym                   0000000140060dd0 f i LIBCMT:_ctype.obj
 0001:0005fe00       _MarkAllocaS               0000000140060e00 f i LIBCMT:getch.obj
 0001:0005fe10       _freea                     0000000140060e10 f i LIBCMT:getch.obj
 0001:0005fe30       _ungetch_nolock            0000000140060e30 f   LIBCMT:getch.obj
 0001:0005fe50       _getextendedkeycode        0000000140060e50 f   LIBCMT:getch.obj
 0001:0005ff00       _getch_nolock              0000000140060f00 f   LIBCMT:getch.obj
 0001:000600f0       _getche_nolock             00000001400610f0 f   LIBCMT:getch.obj
 0001:00060150       _kbhit_nolock              0000000140061150 f   LIBCMT:getch.obj
 0001:000602e0       _ungetch                   00000001400612e0 f   LIBCMT:getch.obj
 0001:00060330       _getch                     0000000140061330 f   LIBCMT:getch.obj
 0001:00060380       _getche                    0000000140061380 f   LIBCMT:getch.obj
 0001:000603d0       _kbhit                     00000001400613d0 f   LIBCMT:getch.obj
 0001:00060420       _cputs                     0000000140061420 f   LIBCMT:cputs.obj
 0001:000604e0       _set_osplatform            00000001400614e0 f i LIBCMT:crt0.obj
 0001:000604f0       _set_osver                 00000001400614f0 f i LIBCMT:crt0.obj
 0001:00060500       _set_winver                0000000140061500 f i LIBCMT:crt0.obj
 0001:00060510       _set_winmajor              0000000140061510 f i LIBCMT:crt0.obj
 0001:00060520       _set_winminor              0000000140061520 f i LIBCMT:crt0.obj
 0001:00060850       mainCRTStartup             0000000140061850 f   LIBCMT:crt0.obj
 0001:00060870       realloc                    0000000140061870 f   LIBCMT:realloc.obj
 0001:00060960       _recalloc                  0000000140061960 f   LIBCMT:realloc.obj
 0001:00060a10       _heap_alloc                0000000140061a10 f i LIBCMT:malloc.obj
 0001:00060a60       malloc                     0000000140061a60 f   LIBCMT:malloc.obj
 0001:00060b30       free                       0000000140061b30 f   LIBCMT:free.obj
 0001:00060b80       _lseeki64_nolock           0000000140061b80 f   LIBCMT:lseeki64.obj
 0001:00060c30       _lseeki64                  0000000140061c30 f   LIBCMT:lseeki64.obj
 0001:00060d80       _telli64                   0000000140061d80 f   LIBCMT:telli64.obj
 0001:00060d90       _fstat64i32                0000000140061d90 f   LIBCMT:fstati32.obj
 0001:00061220       _findclose                 0000000140062220 f   LIBCMT:findfile.obj
 0001:00061250       __timet_from_ft            0000000140062250 f   LIBCMT:findfile.obj
 0001:000612d0       _findfirst32               00000001400622d0 f   LIBCMT:findfile.obj
 0001:00061560       _findnext32                0000000140062560 f   LIBCMT:findfile.obj
 0001:000617e0       __time64_t_from_ft         00000001400627e0 f   LIBCMT:findfi32.obj
 0001:00061860       _findfirst64i32            0000000140062860 f   LIBCMT:findfi32.obj
 0001:00061b00       _findnext64i32             0000000140062b00 f   LIBCMT:findfi32.obj
 0001:00061d90       _set_osfhnd                0000000140062d90 f   LIBCMT:osfinfo.obj
 0001:00061e50       _free_osfhnd               0000000140062e50 f   LIBCMT:osfinfo.obj
 0001:00061f20       _get_osfhandle             0000000140062f20 f   LIBCMT:osfinfo.obj
 0001:00061fc0       __lock_fhandle             0000000140062fc0 f   LIBCMT:osfinfo.obj
 0001:00062090       _unlock_fhandle            0000000140063090 f   LIBCMT:osfinfo.obj
 0001:000620c0       _alloc_osfhnd              00000001400630c0 f   LIBCMT:osfinfo.obj
 0001:00062330       _open_osfhandle            0000000140063330 f   LIBCMT:osfinfo.obj
 0001:00062480       _umask_s                   0000000140063480 f   LIBCMT:umask.obj
 0001:000624e0       _umask                     00000001400634e0 f   LIBCMT:umask.obj
 0001:000624e0       umask                      00000001400634e0 f   LIBCMT:umask.obj
 0001:00062540       _localtime64_s             0000000140063540 f   LIBCMT:loctim64.obj
 0001:000628c0       _localtime64               00000001400638c0 f   LIBCMT:loctim64.obj
 0001:00062910       fputs                      0000000140063910 f   LIBCMT:fputs.obj
 0001:00062b10       fputc                      0000000140063b10 f   LIBCMT:fputc.obj
 0001:00062cb0       putc                       0000000140063cb0 f   LIBCMT:fputc.obj
 0001:00062e60       strncat                    0000000140063e60 f   LIBCMT:strncat.obj
 0001:00063000       _fclose_nolock             0000000140064000 f   LIBCMT:fclose.obj
 0001:000630a0       fclose                     00000001400640a0 f   LIBCMT:fclose.obj
 0001:00063140       _fsopen                    0000000140064140 f   LIBCMT:fopen.obj
 0001:000632a0       fopen                      00000001400642a0 f   LIBCMT:fopen.obj
 0001:000632b0       fopen_s                    00000001400642b0 f   LIBCMT:fopen.obj
 0001:00063320       _set_daylight              0000000140064320 f i LIBCMT:tzset.obj
 0001:00063340       _set_dstbias               0000000140064340 f i LIBCMT:tzset.obj
 0001:00063360       _set_timezone              0000000140064360 f i LIBCMT:tzset.obj
 0001:00064050       __tzset                    0000000140065050 f   LIBCMT:tzset.obj
 0001:000640b0       _tzset                     00000001400650b0 f   LIBCMT:tzset.obj
 0001:00064100       _isindst                   0000000140065100 f   LIBCMT:tzset.obj
 0001:00064150       _initp_misc_invarg         0000000140065150 f   LIBCMT:invarg.obj
 0001:00064160       _invoke_watson             0000000140065160 f   LIBCMT:invarg.obj
 0001:00064200       _set_invalid_parameter_handler 0000000140065200 f   LIBCMT:invarg.obj
 0001:00064240       _get_invalid_parameter_handler 0000000140065240 f   LIBCMT:invarg.obj
 0001:00064250       ?_invoke_watson@@YAXPEBG00I_K@Z 0000000140065250 f   LIBCMT:invarg.obj
 0001:000642f0       _invalid_parameter         00000001400652f0 f   LIBCMT:invarg.obj
 0001:00064400       _invalid_parameter_noinfo  0000000140065400 f   LIBCMT:invarg.obj
 0001:000644f0       ?_invalid_parameter@@YAXPEBG00I_K@Z 00000001400654f0 f   LIBCMT:invarg.obj
 0001:00064510       _fputchar                  0000000140065510 f   LIBCMT:fputchar.obj
 0001:00064530       putchar                    0000000140065530 f   LIBCMT:fputchar.obj
 0001:00064550       _gmtime64_s                0000000140065550 f   LIBCMT:gmtime64.obj
 0001:00064880       _gmtime64                  0000000140065880 f   LIBCMT:gmtime64.obj
 0001:000648d0       _endthread                 00000001400658d0 f   LIBCMT:thread.obj
 0001:00064a20       _beginthread               0000000140065a20 f   LIBCMT:thread.obj
 0001:00064b40       feof                       0000000140065b40 f   LIBCMT:feoferr.obj
 0001:00064b80       ferror                     0000000140065b80 f   LIBCMT:feoferr.obj
 0001:00064bc0       _fread_nolock_s            0000000140065bc0 f   LIBCMT:fread.obj
 0001:00064ea0       _fread_nolock              0000000140065ea0 f   LIBCMT:fread.obj
 0001:00064ec0       fread_s                    0000000140065ec0 f   LIBCMT:fread.obj
 0001:00064fa0       fread                      0000000140065fa0 f   LIBCMT:fread.obj
 0001:00064fc0       _ftell_nolock              0000000140065fc0 f   LIBCMT:ftell.obj
 0001:000651e0       ftell                      00000001400661e0 f   LIBCMT:ftell.obj
 0001:00065270       _fseek_nolock              0000000140066270 f   LIBCMT:fseek.obj
 0001:00065330       fseek                      0000000140066330 f   LIBCMT:fseek.obj
 0001:00065410       _fwrite_nolock             0000000140066410 f   LIBCMT:fwrite.obj
 0001:000655d0       fwrite                     00000001400665d0 f   LIBCMT:fwrite.obj
 0001:000656a0       _commit                    00000001400666a0 f   LIBCMT:commit.obj
 0001:000657e0       ldiv                       00000001400667e0 f   LIBCMT:ldiv.obj
 0001:00065810       strnlen                    0000000140066810 f   LIBCMT:strlen_s.obj
 0001:00065920       qsort                      0000000140066920 f   LIBCMT:qsort.obj
 0001:00065c90       _isnan                     0000000140066c90 f   LIBCMT:ieeemisc.obj
 0001:00065cc0       _isnanf                    0000000140066cc0 f   LIBCMT:ieeemisc.obj
 0001:00065ce0       _fpclass                   0000000140066ce0 f   LIBCMT:ieeemisc.obj
 0001:00065da0       _fpclassf                  0000000140066da0 f   LIBCMT:ieeemisc.obj
 0001:00065e30       _nextafter                 0000000140066e30 f   LIBCMT:ieeemisc.obj
 0001:00066010       _nextafterf                0000000140067010 f   LIBCMT:ieeemisc.obj
 0001:000661c0       _scalb                     00000001400671c0 f   LIBCMT:ieeemisc.obj
 0001:00066410       _scalbf                    0000000140067410 f   LIBCMT:ieeemisc.obj
 0001:00066600       _finite                    0000000140067600 f   LIBCMT:_finite.obj
 0001:00066630       ??_V@YAXPEAX@Z             0000000140067630 f   LIBCMT:delete2.obj
 0001:00066640       rewind                     0000000140067640 f   LIBCMT:rewind.obj
 0001:00066740       _forcdecpt_l               0000000140067740 f   LIBCMT:cvt.obj
 0001:00066880       _cropzeros_l               0000000140067880 f   LIBCMT:cvt.obj
 0001:000669f0       _positive                  00000001400679f0 f   LIBCMT:cvt.obj
 0001:00066a10       _fassign_l                 0000000140067a10 f   LIBCMT:cvt.obj
 0001:00066a60       _fassign                   0000000140067a60 f   LIBCMT:cvt.obj
 0001:00066af0       _forcdecpt                 0000000140067af0 f   LIBCMT:cvt.obj
 0001:00066b00       _cropzeros                 0000000140067b00 f   LIBCMT:cvt.obj
 0001:00066e50       _cftoe_l                   0000000140067e50 f   LIBCMT:cvt.obj
 0001:00066f70       _cftoe                     0000000140067f70 f   LIBCMT:cvt.obj
 0001:00066f90       _cftoa_l                   0000000140067f90 f   LIBCMT:cvt.obj
 0001:00067450       _cftoa                     0000000140068450 f   LIBCMT:cvt.obj
 0001:000676d0       _cftof_l                   00000001400686d0 f   LIBCMT:cvt.obj
 0001:000677c0       _cftof                     00000001400687c0 f   LIBCMT:cvt.obj
 0001:000678b0       _cftog_l                   00000001400688b0 f   LIBCMT:cvt.obj
 0001:00067a20       _cftog                     0000000140068a20 f   LIBCMT:cvt.obj
 0001:00067a40       _cfltcvt_l                 0000000140068a40 f   LIBCMT:cvt.obj
 0001:00067ae0       _cfltcvt                   0000000140068ae0 f   LIBCMT:cvt.obj
 0001:00067b80       _initp_misc_cfltcvt_tab    0000000140068b80 f   LIBCMT:cmiscdat.obj
 0001:00067bc0       ?_Type_info_dtor@type_info@@CAXPEAV1@@Z 0000000140068bc0 f   LIBCMT:typname.obj
 0001:00067c60       ?_Name_base@type_info@@CAPEBDPEBV1@PEAU__type_info_node@@@Z 0000000140068c60 f   LIBCMT:typname.obj
 0001:00067dc0       ?_Type_info_dtor_internal@type_info@@CAXPEAV1@@Z 0000000140068dc0 f   LIBCMT:typname.obj
 0001:00067e60       __unDNameHelper            0000000140068e60 f   LIBCMT:typname.obj
 0001:00067ea0       ?_Name_base_internal@type_info@@CAPEBDPEBV1@PEAU__type_info_node@@@Z 0000000140068ea0 f   LIBCMT:typname.obj
 0001:00068000       __clean_type_info_names_internal 0000000140069000 f   LIBCMT:typname.obj
 0001:00068080       abort                      0000000140069080 f   LIBCMT:abort.obj
 0001:00068130       _set_abort_behavior        0000000140069130 f   LIBCMT:abort.obj
 0001:00068150       _NMSG_WRITE                0000000140069150 f   LIBCMT:crt0msg.obj
 0001:00068390       _GET_RTERRMSG              0000000140069390 f   LIBCMT:crt0msg.obj
 0001:000683c0       _FF_MSGBANNER              00000001400693c0 f   LIBCMT:crt0msg.obj
 0001:00068550       _encode_pointer            0000000140069550 f   LIBCMT:tidtable.obj
 0001:00068620       _encoded_null              0000000140069620 f   LIBCMT:tidtable.obj
 0001:00068710       _decode_pointer            0000000140069710 f   LIBCMT:tidtable.obj
 0001:000687e0       __crtTlsAlloc              00000001400697e0 f   LIBCMT:tidtable.obj
 0001:000687f0       __fls_getvalue             00000001400697f0 f   LIBCMT:tidtable.obj
 0001:00068800       __get_flsindex             0000000140069800 f   LIBCMT:tidtable.obj
 0001:00068810       __set_flsgetvalue          0000000140069810 f   LIBCMT:tidtable.obj
 0001:00068820       __fls_setvalue             0000000140069820 f   LIBCMT:tidtable.obj
 0001:00068830       _mtterm                    0000000140069830 f   LIBCMT:tidtable.obj
 0001:00068880       _initptd                   0000000140069880 f   LIBCMT:tidtable.obj
 0001:00068a10       _getptd_noexit             0000000140069a10 f   LIBCMT:tidtable.obj
 0001:00068aa0       _getptd                    0000000140069aa0 f   LIBCMT:tidtable.obj
 0001:00068b40       _freefls                   0000000140069b40 f   LIBCMT:tidtable.obj
 0001:00068cb0       _freeptd                   0000000140069cb0 f   LIBCMT:tidtable.obj
 0001:00068d10       __threadid                 0000000140069d10 f   LIBCMT:tidtable.obj
 0001:00068d20       __threadhandle             0000000140069d20 f   LIBCMT:tidtable.obj
 0001:00068d30       _mtinit                    0000000140069d30 f   LIBCMT:tidtable.obj
 0001:00068e50       __getlocaleinfo            0000000140069e50 f   LIBCMT:inithelp.obj
 0001:00069030       _initp_misc_purevirt       000000014006a030 f   LIBCMT:inithelp.obj
 0001:00069040       _fullpath                  000000014006a040 f   LIBCMT:fullpath.obj
 0001:00069190       __dtoxmode                 000000014006a190 f   LIBCMT:stat.obj
 0001:000693d0       _stat32                    000000014006a3d0 f   LIBCMT:stat.obj
 0001:00069830       __loctotime64_t            000000014006a830 f   LIBCMT:dtoxtm64.obj
 0001:00069b40       _getdrive                  000000014006ab40 f   LIBCMT:drive.obj
 0001:00069c40       _chdrive                   000000014006ac40 f   LIBCMT:drive.obj
 0001:00069d00       _mbctolower_l              000000014006ad00 f   LIBCMT:mbtolwr.obj
 0001:00069ec0       _mbctolower                000000014006aec0 f   LIBCMT:mbtolwr.obj
 0001:00069ed0       _mbspbrk_l                 000000014006aed0 f   LIBCMT:mbspbrk.obj
 0001:0006a080       _mbspbrk                   000000014006b080 f   LIBCMT:mbspbrk.obj
 0001:0006a090       __report_gsfailure         000000014006b090 f   LIBCMT:gs_report.obj
 0001:0006a1e0       ??0exception@std@@QEAA@XZ  000000014006b1e0 f   LIBCMT:stdexcpt.obj
 0001:0006a200       ??0exception@std@@QEAA@AEBQEBD@Z 000000014006b200 f   LIBCMT:stdexcpt.obj
 0001:0006a290       ??0exception@std@@QEAA@AEBQEBDH@Z 000000014006b290 f   LIBCMT:stdexcpt.obj
 0001:0006a2b0       ??0exception@std@@QEAA@AEBV01@@Z 000000014006b2b0 f   LIBCMT:stdexcpt.obj
 0001:0006a360       ??4exception@std@@QEAAAEAV01@AEBV01@@Z 000000014006b360 f   LIBCMT:stdexcpt.obj
 0001:0006a400       ??1exception@std@@UEAA@XZ  000000014006b400 f   LIBCMT:stdexcpt.obj
 0001:0006a430       ?what@exception@std@@UEBAPEBDXZ 000000014006b430 f   LIBCMT:stdexcpt.obj
 0001:0006a450       ??0bad_cast@std@@QEAA@PEBD@Z 000000014006b450 f   LIBCMT:stdexcpt.obj
 0001:0006a4e0       ??0bad_cast@std@@QEAA@AEBV01@@Z 000000014006b4e0 f   LIBCMT:stdexcpt.obj
 0001:0006a570       ??1bad_cast@std@@UEAA@XZ   000000014006b570 f   LIBCMT:stdexcpt.obj
 0001:0006a5a0       ??0bad_typeid@std@@QEAA@PEBD@Z 000000014006b5a0 f   LIBCMT:stdexcpt.obj
 0001:0006a630       ??0bad_typeid@std@@QEAA@AEBV01@@Z 000000014006b630 f   LIBCMT:stdexcpt.obj
 0001:0006a6c0       ??1bad_typeid@std@@UEAA@XZ 000000014006b6c0 f   LIBCMT:stdexcpt.obj
 0001:0006a6f0       ??0__non_rtti_object@std@@QEAA@PEBD@Z 000000014006b6f0 f   LIBCMT:stdexcpt.obj
 0001:0006a780       ??0__non_rtti_object@std@@QEAA@AEBV01@@Z 000000014006b780 f   LIBCMT:stdexcpt.obj
 0001:0006a810       ??1__non_rtti_object@std@@UEAA@XZ 000000014006b810 f   LIBCMT:stdexcpt.obj
 0001:0006a840       ??_Eexception@std@@UEAAPEAXI@Z 000000014006b840 f i LIBCMT:stdexcpt.obj
 0001:0006a840       ??_Gexception@std@@UEAAPEAXI@Z 000000014006b840 f i LIBCMT:stdexcpt.obj
 0001:0006a890       ??_Ebad_cast@std@@UEAAPEAXI@Z 000000014006b890 f i LIBCMT:stdexcpt.obj
 0001:0006a890       ??_Gbad_cast@std@@UEAAPEAXI@Z 000000014006b890 f i LIBCMT:stdexcpt.obj
 0001:0006a8e0       ??_Gbad_typeid@std@@UEAAPEAXI@Z 000000014006b8e0 f i LIBCMT:stdexcpt.obj
 0001:0006a8e0       ??_Ebad_typeid@std@@UEAAPEAXI@Z 000000014006b8e0 f i LIBCMT:stdexcpt.obj
 0001:0006a930       ??_G__non_rtti_object@std@@UEAAPEAXI@Z 000000014006b930 f i LIBCMT:stdexcpt.obj
 0001:0006a930       ??_E__non_rtti_object@std@@UEAAPEAXI@Z 000000014006b930 f i LIBCMT:stdexcpt.obj
 0001:0006aa80       __onexitinit               000000014006ba80 f   LIBCMT:onexit.obj
 0001:0006aad0       _onexit                    000000014006bad0 f   LIBCMT:onexit.obj
 0001:0006ac00       atexit                     000000014006bc00 f   LIBCMT:onexit.obj
 0001:0006ac20       _initp_heap_handler        000000014006bc20 f   LIBCMT:handler.obj
 0001:0006ac30       ?_set_new_handler@@YAP6AH_K@ZP6AH0@Z@Z 000000014006bc30 f   LIBCMT:handler.obj
 0001:0006ac80       ?_set_new_handler@@YAP6AH_K@ZH@Z 000000014006bc80 f   LIBCMT:handler.obj
 0001:0006acc0       ?_query_new_handler@@YAP6AH_K@ZXZ 000000014006bcc0 f   LIBCMT:handler.obj
 0001:0006acd0       _callnewh                  000000014006bcd0 f   LIBCMT:handler.obj
 0001:0006ad10       _CxxThrowException         000000014006bd10 f   LIBCMT:throw.obj
 0001:0006ade0       __sys_nerr                 000000014006bde0 f   LIBCMT:syserr.obj
 0001:0006adf0       __sys_errlist              000000014006bdf0 f   LIBCMT:syserr.obj
 0001:0006ae00       strcpy_s                   000000014006be00 f   LIBCMT:strcpy_s.obj
 0001:0006aeb0       wait_a_bit                 000000014006beb0 f i LIBCMT:crtheap.obj
 0001:0006aee0       _set_malloc_crt_max_wait   000000014006bee0 f   LIBCMT:crtheap.obj
 0001:0006aef0       _malloc_crt                000000014006bef0 f   LIBCMT:crtheap.obj
 0001:0006af60       _calloc_crt                000000014006bf60 f   LIBCMT:crtheap.obj
 0001:0006aff0       _realloc_crt               000000014006bff0 f   LIBCMT:crtheap.obj
 0001:0006b080       _recalloc_crt              000000014006c080 f   LIBCMT:crtheap.obj
 0001:0006b120       strncpy_s                  000000014006c120 f   LIBCMT:strncpy_s.obj
 0001:0006b240       _flsbuf                    000000014006c240 f   LIBCMT:_flsbuf.obj
 0001:0006b5f0       get_int_arg                000000014006c5f0 f i LIBCMT:output.obj
 0001:0006b600       get_int64_arg              000000014006c600 f i LIBCMT:output.obj
 0001:0006b610       get_short_arg              000000014006c610 f i LIBCMT:output.obj
 0001:0006b620       _output_l                  000000014006c620 f   LIBCMT:output.obj
 0001:0006c5f0       __C_specific_handler       000000014006d5f0 f   LIBCMT:chandler.obj
 0001:0006c7b0       _ioinit                    000000014006d7b0 f   LIBCMT:ioinit.obj
 0001:0006caf0       _ioterm                    000000014006daf0 f   LIBCMT:ioinit.obj
 0001:0006cb80       fileno                     000000014006db80 f   LIBCMT:fileno.obj
 0001:0006cb80       _fileno                    000000014006db80 f   LIBCMT:fileno.obj
 0001:0006cc70       _INTRN_LOCALE_CONV         000000014006dc70 f i LIBCMT:input.obj
 0001:0006cd50       _input_l                   000000014006dd50 f   LIBCMT:input.obj
 0001:0006e820       _input_s_l                 000000014006f820 f   LIBCMT:inputs.obj
 0001:00070340       _stbuf                     0000000140071340 f   LIBCMT:_sftbuf.obj
 0001:00070420       _ftbuf                     0000000140071420 f   LIBCMT:_sftbuf.obj
 0001:00070460       vprintf_helper             0000000140071460 f   LIBCMT:vprintf.obj
 0001:00070540       _vprintf_l                 0000000140071540 f   LIBCMT:vprintf.obj
 0001:00070560       _vprintf_s_l               0000000140071560 f   LIBCMT:vprintf.obj
 0001:00070580       _vprintf_p_l               0000000140071580 f   LIBCMT:vprintf.obj
 0001:000705a0       vprintf                    00000001400715a0 f   LIBCMT:vprintf.obj
 0001:000705c0       vprintf_s                  00000001400715c0 f   LIBCMT:vprintf.obj
 0001:000705e0       _vprintf_p                 00000001400715e0 f   LIBCMT:vprintf.obj
 0001:00070980       _strtoi64                  0000000140071980 f   LIBCMT:strtoq.obj
 0001:000709c0       _strtoi64_l                00000001400719c0 f   LIBCMT:strtoq.obj
 0001:000709f0       _strtoui64                 00000001400719f0 f   LIBCMT:strtoq.obj
 0001:00070a30       _strtoui64_l               0000000140071a30 f   LIBCMT:strtoq.obj
 0001:00070a60       _vsprintf_l                0000000140071a60 f   LIBCMT:vsprintf.obj
 0001:00070b00       vsprintf                   0000000140071b00 f   LIBCMT:vsprintf.obj
 0001:00070ba0       _vscprintf_helper          0000000140071ba0 f   LIBCMT:vsprintf.obj
 0001:00070c00       _vscprintf                 0000000140071c00 f   LIBCMT:vsprintf.obj
 0001:00070c70       _vscprintf_l               0000000140071c70 f   LIBCMT:vsprintf.obj
 0001:00070ce0       _vscprintf_p               0000000140071ce0 f   LIBCMT:vsprintf.obj
 0001:00070d50       _vscprintf_p_l             0000000140071d50 f   LIBCMT:vsprintf.obj
 0001:00070dc0       _vsnprintf_helper          0000000140071dc0 f   LIBCMT:vsnprnc.obj
 0001:00070ed0       _vsnprintf_c               0000000140071ed0 f   LIBCMT:vsnprnc.obj
 0001:00070fc0       _vsnprintf_c_l             0000000140071fc0 f   LIBCMT:vsnprnc.obj
 0001:000710c0       _vsprintf_s_l              00000001400720c0 f   LIBCMT:vsnprnc.obj
 0001:00071150       vsprintf_s                 0000000140072150 f   LIBCMT:vsnprnc.obj
 0001:000711d0       _vsnprintf_s_l             00000001400721d0 f   LIBCMT:vsnprnc.obj
 0001:00071340       _vsnprintf_s               0000000140072340 f   LIBCMT:vsnprnc.obj
 0001:00071370       _vsprintf_p                0000000140072370 f   LIBCMT:vsnprnc.obj
 0001:00071460       _vsprintf_p_l              0000000140072460 f   LIBCMT:vsnprnc.obj
 0001:00071560       setvbuf                    0000000140072560 f   LIBCMT:setvbuf.obj
 0001:00071700       _fcloseall                 0000000140072700 f   LIBCMT:closeall.obj
 0001:000717f0       _mtinitlocks               00000001400727f0 f   LIBCMT:mlock.obj
 0001:00071890       _mtdeletelocks             0000000140072890 f   LIBCMT:mlock.obj
 0001:00071930       _unlock                    0000000140072930 f   LIBCMT:mlock.obj
 0001:00071950       _lockerr_exit              0000000140072950 f   LIBCMT:mlock.obj
 0001:00071970       _mtinitlocknum             0000000140072970 f   LIBCMT:mlock.obj
 0001:00071a80       _lock                      0000000140072a80 f   LIBCMT:mlock.obj
 0001:00071ad0       _write_nolock              0000000140072ad0 f   LIBCMT:write.obj
 0001:000722e0       _write                     00000001400732e0 f   LIBCMT:write.obj
 0001:000722e0       write                      00000001400732e0 f   LIBCMT:write.obj
 0001:00072430       _RTC_Initialize            0000000140073430 f   LIBCMT:initsect.obj
 0001:00072470       _RTC_Terminate             0000000140073470 f   LIBCMT:initsect.obj
 0001:000724b0       _ValidateImageBase         00000001400734b0 f   LIBCMT:pesect.obj
 0001:000724e0       _FindPESection             00000001400734e0 f   LIBCMT:pesect.obj
 0001:00072530       _IsNonwritableInCurrentImage 0000000140073530 f   LIBCMT:pesect.obj
 0001:000725a0       ?terminate@@YAXXZ          00000001400735a0 f   LIBCMT:hooks.obj
 0001:000725d0       ?unexpected@@YAXXZ         00000001400735d0 f   LIBCMT:hooks.obj
 0001:000725f0       ?_inconsistency@@YAXXZ     00000001400735f0 f   LIBCMT:hooks.obj
 0001:00072620       _initp_eh_hooks            0000000140073620 f   LIBCMT:hooks.obj
 0001:00072640       _initp_misc_winxfltr       0000000140073640 f   LIBCMT:winxfltr.obj
 0001:00072690       _XcptFilter                0000000140073690 f   LIBCMT:winxfltr.obj
 0001:000728a0       __CppXcptFilter            00000001400738a0 f   LIBCMT:winxfltr.obj
 0001:000728b0       _initp_misc_rand_s         00000001400738b0 f   LIBCMT:rand_s.obj
 0001:000728c0       rand_s                     00000001400738c0 f   LIBCMT:rand_s.obj
 0001:00072a20       _initp_misc_initcrit       0000000140073a20 f   LIBCMT:initcrit.obj
 0001:00072a50       __crtInitCritSecAndSpinCount 0000000140073a50 f   LIBCMT:initcrit.obj
 0001:00072d50       _output_s_l                0000000140073d50 f   LIBCMT:outputs.obj
 0001:00073d60       _validate_param_reuseA     0000000140074d60 f   LIBCMT:outputp.obj
 0001:000740b0       get_crtdouble_arg          00000001400750b0 f i LIBCMT:outputp.obj
 0001:000740c0       _output_p_l                00000001400750c0 f   LIBCMT:outputp.obj
 0001:00075f10       _filbuf                    0000000140076f10 f   LIBCMT:_filbuf.obj
 0001:000761c0       _handle_errorf             00000001400771c0 f   LIBCMT:libm_error.obj
 0001:000763d0       _handle_error              00000001400773d0 f   LIBCMT:libm_error.obj
 0001:000765e0       _mbsnbicoll_l              00000001400775e0 f   LIBCMT:mbsnbico.obj
 0001:000767a0       _mbsnbicoll                00000001400777a0 f   LIBCMT:mbsnbico.obj
 0001:000767b0       __wtomb_environ            00000001400777b0 f   LIBCMT:wtombenv.obj
 0001:000768c0       _calloc_impl               00000001400778c0 f   LIBCMT:calloc.obj
 0001:00076990       calloc                     0000000140077990 f   LIBCMT:calloc.obj
 0001:00076d90       __updatetmbcinfo           0000000140077d90 f   LIBCMT:mbctype.obj
 0001:00076f80       _setmbcp_nolock            0000000140077f80 f   LIBCMT:mbctype.obj
 0001:00077340       _getmbcp                   0000000140078340 f   LIBCMT:mbctype.obj
 0001:00077400       _setmbcp                   0000000140078400 f   LIBCMT:mbctype.obj
 0001:00077630       __initmbctable             0000000140078630 f   LIBCMT:mbctype.obj
 0001:00077660       ___setlc_active_func       0000000140078660 f   LIBCMT:setlocal.obj
 0001:00077670       ___unguarded_readlc_active_add_func 0000000140078670 f   LIBCMT:setlocal.obj
 0001:00077680       __freetlocinfo             0000000140078680 f   LIBCMT:setlocal.obj
 0001:00077810       __addlocaleref             0000000140078810 f   LIBCMT:setlocal.obj
 0001:000778b0       __removelocaleref          00000001400788b0 f   LIBCMT:setlocal.obj
 0001:00077a00       __updatetlocinfo           0000000140078a00 f   LIBCMT:setlocal.obj
 0001:00077aa0       _configthreadlocale        0000000140078aa0 f   LIBCMT:setlocal.obj
 0001:00077ba0       _free_locale               0000000140078ba0 f   LIBCMT:setlocal.obj
 0001:00077c60       __free_locale              0000000140078c60 f   LIBCMT:setlocal.obj
 0001:00077c70       _get_current_locale        0000000140078c70 f   LIBCMT:setlocal.obj
 0001:00077d20       __get_current_locale       0000000140078d20 f   LIBCMT:setlocal.obj
 0001:00077d30       __init_dummy               0000000140078d30 f   LIBCMT:setlocal.obj
 0001:00077d40       _strcats                   0000000140078d40 f   LIBCMT:setlocal.obj
 0001:00077dc0       __lc_strtolc               0000000140078dc0 f   LIBCMT:setlocal.obj
 0001:00077fa0       __lc_lctostr               0000000140078fa0 f   LIBCMT:setlocal.obj
 0001:00078260       _expandlocale              0000000140079260 f   LIBCMT:setlocal.obj
 0001:00078ad0       _create_locale             0000000140079ad0 f   LIBCMT:setlocal.obj
 0001:00078c60       __create_locale            0000000140079c60 f   LIBCMT:setlocal.obj
 0001:00078c70       setlocale                  0000000140079c70 f   LIBCMT:setlocal.obj
 0001:00078f10       _isctype_l                 0000000140079f10 f   LIBCMT:isctype.obj
 0001:00079100       _isctype                   000000014007a100 f   LIBCMT:isctype.obj
 0001:00079130       __initconin                000000014007a130 f   LIBCMT:initcon.obj
 0001:00079170       __initconout               000000014007a170 f   LIBCMT:initcon.obj
 0001:000791b0       __termcon                  000000014007a1b0 f   LIBCMT:initcon.obj
 0001:000791f0       _putch_nolock              000000014007a1f0 f   LIBCMT:putch.obj
 0001:000792b0       _putch                     000000014007a2b0 f   LIBCMT:putch.obj
 0001:00079300       ?__CxxUnhandledExceptionFilter@@YAJPEAU_EXCEPTION_POINTERS@@@Z 000000014007a300 f   LIBCMT:unhandld.obj
 0001:00079350       __CxxSetUnhandledExceptionFilter 000000014007a350 f   LIBCMT:unhandld.obj
 0001:00079370       _setenvp                   000000014007a370 f   LIBCMT:stdenvp.obj
 0001:000794e0       _set_pgmptr                000000014007a4e0 f i LIBCMT:stdargv.obj
 0001:00079710       _setargv                   000000014007a710 f   LIBCMT:stdargv.obj
 0001:00079820       __crtGetEnvironmentStringsA 000000014007a820 f   LIBCMT:a_env.obj
 0001:000799f0       _heap_init                 000000014007a9f0 f   LIBCMT:heapinit.obj
 0001:00079a50       _heap_term                 000000014007aa50 f   LIBCMT:heapinit.obj
 0001:00079a80       _get_heap_handle           000000014007aa80 f   LIBCMT:heapinit.obj
 0001:00079a90       __security_init_cookie     000000014007aa90 f   LIBCMT:gs_support.obj
 0001:00079b50       _msize                     000000014007ab50 f   LIBCMT:msize.obj
 0001:00079ba0       __loctotime32_t            000000014007aba0 f   LIBCMT:dtoxtime.obj
 0001:00079e90       _get_daylight              000000014007ae90 f   LIBCMT:timeset.obj
 0001:00079ee0       _get_dstbias               000000014007aee0 f   LIBCMT:timeset.obj
 0001:00079f30       _get_timezone              000000014007af30 f   LIBCMT:timeset.obj
 0001:00079f80       _get_tzname                000000014007af80 f   LIBCMT:timeset.obj
 0001:0007a030       __daylight                 000000014007b030 f   LIBCMT:timeset.obj
 0001:0007a040       __dstbias                  000000014007b040 f   LIBCMT:timeset.obj
 0001:0007a050       __timezone                 000000014007b050 f   LIBCMT:timeset.obj
 0001:0007a060       __tzname                   000000014007b060 f   LIBCMT:timeset.obj
 0001:0007a070       _gmtime32_s                000000014007b070 f   LIBCMT:gmtime.obj
 0001:0007a280       __getgmtimebuf             000000014007b280 f   LIBCMT:gmtime.obj
 0001:0007a2e0       _gmtime32                  000000014007b2e0 f   LIBCMT:gmtime.obj
 0001:0007a380       _close_nolock              000000014007b380 f   LIBCMT:close.obj
 0001:0007a450       close                      000000014007b450 f   LIBCMT:close.obj
 0001:0007a450       _close                     000000014007b450 f   LIBCMT:close.obj
 0001:0007a580       _freebuf                   000000014007b580 f   LIBCMT:_freebuf.obj
 0001:0007a5c0       _openfile                  000000014007b5c0 f   LIBCMT:_open.obj
 0001:0007a920       _getstream                 000000014007b920 f   LIBCMT:stream.obj
 0001:0007aad0       _local_unwind              000000014007bad0 f   LIBCMT:jmpuwind.obj
 0001:0007ab00       _NLG_Notify                000000014007bb00 f   LIBCMT:jmpuwind.obj
 0001:0007ab20       __NLG_Dispatch2            000000014007bb20 f   LIBCMT:jmpuwind.obj
 0001:0007ab30       __NLG_Return2              000000014007bb30 f   LIBCMT:jmpuwind.obj
 0001:0007ab40       __init_ctype               000000014007bb40 f   LIBCMT:initctyp.obj
 0001:0007afd0       ___mb_cur_max_func         000000014007bfd0 f   LIBCMT:initctyp.obj
 0001:0007b020       ___mb_cur_max_l_func       000000014007c020 f   LIBCMT:initctyp.obj
 0001:0007b070       ___lc_codepage_func        000000014007c070 f   LIBCMT:initctyp.obj
 0001:0007b0b0       ___lc_collate_cp_func      000000014007c0b0 f   LIBCMT:initctyp.obj
 0001:0007b0f0       ___lc_handle_func          000000014007c0f0 f   LIBCMT:initctyp.obj
 0001:0007b130       __crt_debugger_hook        000000014007c130 f   LIBCMT:dbghook.obj
 0001:0007b140       _read_nolock               000000014007c140 f   LIBCMT:read.obj
 0001:0007ba50       _read                      000000014007ca50 f   LIBCMT:read.obj
 0001:0007ba50       read                       000000014007ca50 f   LIBCMT:read.obj
 0001:0007bbf0       memcpy_s                   000000014007cbf0 f   LIBCMT:memcpy_s.obj
 0001:0007bcc0       _lseek_nolock              000000014007ccc0 f   LIBCMT:lseek.obj
 0001:0007bd70       _lseek                     000000014007cd70 f   LIBCMT:lseek.obj
 0001:0007bec0       _tolower                   000000014007cec0 f   LIBCMT:tolower.obj
 0001:0007bed0       _tolower_l                 000000014007ced0 f   LIBCMT:tolower.obj
 0001:0007c140       tolower                    000000014007d140 f   LIBCMT:tolower.obj
 0001:0007c160       _atodbl_l                  000000014007d160 f   LIBCMT:atodbl.obj
 0001:0007c2f0       _atodbl                    000000014007d2f0 f   LIBCMT:atodbl.obj
 0001:0007c300       _atoldbl_l                 000000014007d300 f   LIBCMT:atodbl.obj
 0001:0007c4a0       _atoldbl                   000000014007d4a0 f   LIBCMT:atodbl.obj
 0001:0007c4b0       _atoflt_l                  000000014007d4b0 f   LIBCMT:atodbl.obj
 0001:0007c640       _atoflt                    000000014007d640 f   LIBCMT:atodbl.obj
 0001:0007c650       _set_output_format         000000014007d650 f   LIBCMT:outputformat.obj
 0001:0007c6a0       _get_output_format         000000014007d6a0 f   LIBCMT:outputformat.obj
 0001:0007c6b0       _fptostr                   000000014007d6b0 f   LIBCMT:_fptostr.obj
 0001:0007c7d0       __dtold                    000000014007d7d0 f   LIBCMT:cfout.obj
 0001:0007c890       _fltout2                   000000014007d890 f   LIBCMT:cfout.obj
 0001:0007ca00       _fptrap                    000000014007da00 f   LIBCMT:crt0fp.obj
 0001:0007ca10       ??0Block@HeapManager@@QEAA@XZ 000000014007da10 f i LIBCMT:undname.obj
 0001:0007ca20       ?Constructor@HeapManager@@QEAAXP6APEAX_K@ZP6AXPEAX@Z@Z 000000014007da20 f i LIBCMT:undname.obj
 0001:0007ca40       ?Destructor@HeapManager@@QEAAXXZ 000000014007da40 f i LIBCMT:undname.obj
 0001:0007ca90       ?getNumberOfDimensions@UnDecorator@@CAHXZ 000000014007da90 f   LIBCMT:undname.obj
 0001:0007cb00       ?getTypeEncoding@UnDecorator@@CAHXZ 000000014007db00 f i LIBCMT:undname.obj
 0001:0007d120       ?doUnderScore@UnDecorator@@SAHXZ 000000014007e120 f i LIBCMT:undname.obj
 0001:0007d130       ?doMSKeywords@UnDecorator@@SAHXZ 000000014007e130 f i LIBCMT:undname.obj
 0001:0007d140       ?doPtr64@UnDecorator@@SAHXZ 000000014007e140 f i LIBCMT:undname.obj
 0001:0007d150       ?doFunctionReturns@UnDecorator@@SAHXZ 000000014007e150 f i LIBCMT:undname.obj
 0001:0007d160       ?doAllocationModel@UnDecorator@@SAHXZ 000000014007e160 f i LIBCMT:undname.obj
 0001:0007d170       ?doAllocationLanguage@UnDecorator@@SAHXZ 000000014007e170 f i LIBCMT:undname.obj
 0001:0007d180       ?doThisTypes@UnDecorator@@SAHXZ 000000014007e180 f i LIBCMT:undname.obj
 0001:0007d1a0       ?doAccessSpecifiers@UnDecorator@@SAHXZ 000000014007e1a0 f i LIBCMT:undname.obj
 0001:0007d1b0       ?doThrowTypes@UnDecorator@@SAHXZ 000000014007e1b0 f i LIBCMT:undname.obj
 0001:0007d1c0       ?doMemberTypes@UnDecorator@@SAHXZ 000000014007e1c0 f i LIBCMT:undname.obj
 0001:0007d1d0       ?doNameOnly@UnDecorator@@SAHXZ 000000014007e1d0 f i LIBCMT:undname.obj
 0001:0007d1e0       ?doTypeOnly@UnDecorator@@SAHXZ 000000014007e1e0 f i LIBCMT:undname.obj
 0001:0007d1f0       ?haveTemplateParameters@UnDecorator@@SAHXZ 000000014007e1f0 f i LIBCMT:undname.obj
 0001:0007d200       ?doEcsu@UnDecorator@@SAHXZ 000000014007e200 f i LIBCMT:undname.obj
 0001:0007d210       ?doNoIdentCharCheck@UnDecorator@@SAHXZ 000000014007e210 f i LIBCMT:undname.obj
 0001:0007d220       ?doEllipsis@UnDecorator@@SAHXZ 000000014007e220 f i LIBCMT:undname.obj
 0001:0007d230       ?UScore@UnDecorator@@SAPEBDW4Tokens@@@Z 000000014007e230 f   LIBCMT:undname.obj
 0001:0007d260       ?getMemory@HeapManager@@QEAAPEAX_KH@Z 000000014007e260 f   LIBCMT:undname.obj
 0001:0007d340       ??0DName@@QEAA@XZ          000000014007e340 f i LIBCMT:undname.obj
 0001:0007d360       ??0DName@@QEAA@PEAVDNameNode@@@Z 000000014007e360 f i LIBCMT:undname.obj
 0001:0007d370       ??0DName@@QEAA@AEBV0@@Z    000000014007e370 f i LIBCMT:undname.obj
 0001:0007d420       ?status@DName@@QEBA?AW4DNameStatus@@XZ 000000014007e420 f i LIBCMT:undname.obj
 0001:0007d430       ?clearStatus@DName@@QEAAXXZ 000000014007e430 f i LIBCMT:undname.obj
 0001:0007d440       ?setPtrRef@DName@@QEAAAEAV1@XZ 000000014007e440 f i LIBCMT:undname.obj
 0001:0007d450       ?isPtrRef@DName@@QEBAHXZ   000000014007e450 f i LIBCMT:undname.obj
 0001:0007d460       ?setIsArray@DName@@QEAAXXZ 000000014007e460 f i LIBCMT:undname.obj
 0001:0007d470       ?isArray@DName@@QEBAHXZ    000000014007e470 f i LIBCMT:undname.obj
 0001:0007d480       ?isNoTE@DName@@QEBAHXZ     000000014007e480 f i LIBCMT:undname.obj
 0001:0007d490       ?setIsNoTE@DName@@QEAAXXZ  000000014007e490 f i LIBCMT:undname.obj
 0001:0007d4a0       ?isPinPtr@DName@@QEBAHXZ   000000014007e4a0 f i LIBCMT:undname.obj
 0001:0007d4b0       ?setIsPinPtr@DName@@QEAAXXZ 000000014007e4b0 f i LIBCMT:undname.obj
 0001:0007d4c0       ?isComArray@DName@@QEBAHXZ 000000014007e4c0 f i LIBCMT:undname.obj
 0001:0007d4d0       ?setIsComArray@DName@@QEAAXXZ 000000014007e4d0 f i LIBCMT:undname.obj
 0001:0007d4e0       ?isVCallThunk@DName@@QEBAHXZ 000000014007e4e0 f i LIBCMT:undname.obj
 0001:0007d4f0       ?setIsVCallThunk@DName@@QEAAXXZ 000000014007e4f0 f i LIBCMT:undname.obj
 0001:0007d500       ??4DName@@QEAAAEAV0@AEBV0@@Z 000000014007e500 f   LIBCMT:undname.obj
 0001:0007d590       ?isFull@Replicator@@QEBAHXZ 000000014007e590 f i LIBCMT:undname.obj
 0001:0007d5a0       ??AReplicator@@QEBAAEBVDName@@H@Z 000000014007e5a0 f   LIBCMT:undname.obj
 0001:0007d5d0       ??0DNameNode@@IEAA@XZ      000000014007e5d0 f   LIBCMT:undname.obj
 0001:0007d5f0       ?nextNode@DNameNode@@QEBAPEAV1@XZ 000000014007e5f0 f i LIBCMT:undname.obj
 0001:0007d600       ??YDNameNode@@QEAAAEAV0@PEAV0@@Z 000000014007e600 f   LIBCMT:undname.obj
 0001:0007d640       ??0charNode@@QEAA@D@Z      000000014007e640 f   LIBCMT:undname.obj
 0001:0007d660       ?length@charNode@@UEBAHXZ  000000014007e660 f i LIBCMT:undname.obj
 0001:0007d670       ?getLastChar@charNode@@UEBADXZ 000000014007e670 f i LIBCMT:undname.obj
 0001:0007d680       ?getString@charNode@@UEBAPEADPEADH@Z 000000014007e680 f   LIBCMT:undname.obj
 0001:0007d6a0       ?length@pcharNode@@UEBAHXZ 000000014007e6a0 f i LIBCMT:undname.obj
 0001:0007d6b0       ??0pDNameNode@@QEAA@PEAVDName@@@Z 000000014007e6b0 f   LIBCMT:undname.obj
 0001:0007d6f0       ??0DNameStatusNode@@QEAA@W4DNameStatus@@@Z 000000014007e6f0 f   LIBCMT:undname.obj
 0001:0007d720       ?length@DNameStatusNode@@UEBAHXZ 000000014007e720 f i LIBCMT:undname.obj
 0001:0007d730       ?getLastChar@DNameStatusNode@@UEBADXZ 000000014007e730 f i LIBCMT:undname.obj
 0001:0007d7d0       ?getDataIndirectType@UnDecorator@@CA?AVDName@@XZ 000000014007e7d0 f i LIBCMT:undname.obj
 0001:0007d820       ?getThisType@UnDecorator@@CA?AVDName@@XZ 000000014007e820 f i LIBCMT:undname.obj
 0001:0007d870       ??2@YAPEAX_KAEAVHeapManager@@H@Z 000000014007e870 f i LIBCMT:undname.obj
 0001:0007d930       ??0DName@@QEAA@PEAV0@@Z    000000014007e930 f   LIBCMT:undname.obj
 0001:0007da40       ??0DName@@QEAA@W4DNameStatus@@@Z 000000014007ea40 f   LIBCMT:undname.obj
 0001:0007db30       ?isValid@DName@@QEBAHXZ    000000014007eb30 f   LIBCMT:undname.obj
 0001:0007db50       ?isEmpty@DName@@QEBAHXZ    000000014007eb50 f   LIBCMT:undname.obj
 0001:0007db70       ?isUDC@DName@@QEBAHXZ      000000014007eb70 f i LIBCMT:undname.obj
 0001:0007dba0       ?setIsUDC@DName@@QEAAXXZ   000000014007eba0 f i LIBCMT:undname.obj
 0001:0007dbd0       ?isUDTThunk@DName@@QEBAHXZ 000000014007ebd0 f i LIBCMT:undname.obj
 0001:0007dc00       ?length@DName@@QEBAHXZ     000000014007ec00 f   LIBCMT:undname.obj
 0001:0007dc50       ?getLastChar@DName@@QEBADXZ 000000014007ec50 f   LIBCMT:undname.obj
 0001:0007dcc0       ?getString@DName@@QEBAPEADPEADH@Z 000000014007ecc0 f   LIBCMT:undname.obj
 0001:0007de60       ??_5DName@@QEAAAEAV0@AEBV0@@Z 000000014007ee60 f   LIBCMT:undname.obj
 0001:0007de90       ??4DName@@QEAAAEAV0@W4DNameStatus@@@Z 000000014007ee90 f   LIBCMT:undname.obj
 0001:0007dfc0       ??0Replicator@@QEAA@XZ     000000014007efc0 f i LIBCMT:undname.obj
 0001:0007e160       ??YReplicator@@QEAAAEAV0@AEBVDName@@@Z 000000014007f160 f   LIBCMT:undname.obj
 0001:0007e2d0       ?clone@DNameNode@@QEAAPEAV1@XZ 000000014007f2d0 f   LIBCMT:undname.obj
 0001:0007e420       ??0pcharNode@@QEAA@PEBDH@Z 000000014007f420 f   LIBCMT:undname.obj
 0001:0007e580       ?getLastChar@pcharNode@@UEBADXZ 000000014007f580 f i LIBCMT:undname.obj
 0001:0007e5a0       ?getString@pcharNode@@UEBAPEADPEADH@Z 000000014007f5a0 f   LIBCMT:undname.obj
 0001:0007e5e0       ?length@pDNameNode@@UEBAHXZ 000000014007f5e0 f i LIBCMT:undname.obj
 0001:0007e660       ?getLastChar@pDNameNode@@UEBADXZ 000000014007f660 f i LIBCMT:undname.obj
 0001:0007e6f0       ?getString@pDNameNode@@UEBAPEADPEADH@Z 000000014007f6f0 f   LIBCMT:undname.obj
 0001:0007e710       ?getString@DNameStatusNode@@UEBAPEADPEADH@Z 000000014007f710 f   LIBCMT:undname.obj
 0001:0007e760       ??0UnDecorator@@QEAA@PEADPEBDHP6APEADJ@ZK@Z 000000014007f760 f i LIBCMT:undname.obj
 0001:0007e810       ?getReturnType@UnDecorator@@CA?AVDName@@PEAV2@@Z 000000014007f810 f   LIBCMT:undname.obj
 0001:0007e850       ?getStorageConvention@UnDecorator@@CA?AVDName@@XZ 000000014007f850 f i LIBCMT:undname.obj
 0001:0007e8a0       ??YDName@@QEAAAEAV0@W4DNameStatus@@@Z 000000014007f8a0 f   LIBCMT:undname.obj
 0001:0007ea10       ??4DName@@QEAAAEAV0@PEAV0@@Z 000000014007fa10 f   LIBCMT:undname.obj
 0001:0007eb30       ?doPchar@DName@@AEAAXPEBDH@Z 000000014007fb30 f   LIBCMT:undname.obj
 0001:0007ed10       ??0DName@@QEAA@D@Z         000000014007fd10 f   LIBCMT:undname.obj
 0001:0007ee20       ??0DName@@QEAA@PEBD@Z      000000014007fe20 f   LIBCMT:undname.obj
 0001:0007ee60       ??0DName@@QEAA@AEAPEBDD@Z  000000014007fe60 f   LIBCMT:undname.obj
 0001:0007efc0       ??0DName@@QEAA@_K@Z        000000014007ffc0 f   LIBCMT:undname.obj
 0001:0007f060       ??0DName@@QEAA@_J@Z        0000000140080060 f   LIBCMT:undname.obj
 0001:0007f120       ??HDName@@QEBA?AV0@W4DNameStatus@@@Z 0000000140080120 f   LIBCMT:undname.obj
 0001:0007f200       ??YDName@@QEAAAEAV0@AEBV0@@Z 0000000140080200 f   LIBCMT:undname.obj
 0001:0007f360       ??YDName@@QEAAAEAV0@PEAV0@@Z 0000000140080360 f   LIBCMT:undname.obj
 0001:0007f510       ??4DName@@QEAAAEAV0@D@Z    0000000140080510 f   LIBCMT:undname.obj
 0001:0007f620       ??4DName@@QEAAAEAV0@PEBD@Z 0000000140080620 f   LIBCMT:undname.obj
 0001:0007f660       ?getCallingConvention@UnDecorator@@CA?AVDName@@XZ 0000000140080660 f   LIBCMT:undname.obj
 0001:0007fa50       ?getVCallThunkType@UnDecorator@@CA?AVDName@@XZ 0000000140080a50 f i LIBCMT:undname.obj
 0001:0007fc30       ??HDName@@QEBA?AV0@AEBV0@@Z 0000000140080c30 f   LIBCMT:undname.obj
 0001:0007fdb0       ??HDName@@QEBA?AV0@PEAV0@@Z 0000000140080db0 f   LIBCMT:undname.obj
 0001:0007fe90       ??YDName@@QEAAAEAV0@D@Z    0000000140080e90 f   LIBCMT:undname.obj
 0001:0007fff0       ??YDName@@QEAAAEAV0@PEBD@Z 0000000140080ff0 f   LIBCMT:undname.obj
 0001:000801a0       ?getArgumentList@UnDecorator@@CA?AVDName@@XZ 00000001400811a0 f   LIBCMT:undname.obj
 0001:00080500       ?getVdispMapType@UnDecorator@@CA?AVDName@@AEBV2@@Z 0000000140081500 f i LIBCMT:undname.obj
 0001:00080600       ??H@YA?AVDName@@DAEBV0@@Z  0000000140081600 f i LIBCMT:undname.obj
 0001:000806c0       ??H@YA?AVDName@@W4DNameStatus@@AEBV0@@Z 00000001400816c0 f i LIBCMT:undname.obj
 0001:000807f0       ??H@YA?AVDName@@PEBDAEBV0@@Z 00000001400817f0 f i LIBCMT:undname.obj
 0001:00080870       ??HDName@@QEBA?AV0@D@Z     0000000140081870 f   LIBCMT:undname.obj
 0001:00080950       ??HDName@@QEBA?AV0@PEBD@Z  0000000140081950 f   LIBCMT:undname.obj
 0001:00080a60       ?getDimension@UnDecorator@@CA?AVDName@@_N@Z 0000000140081a60 f   LIBCMT:undname.obj
 0001:00081010       ?getEnumType@UnDecorator@@CA?AVDName@@XZ 0000000140082010 f i LIBCMT:undname.obj
 0001:000814e0       ?getArgumentTypes@UnDecorator@@CA?AVDName@@XZ 00000001400824e0 f   LIBCMT:undname.obj
 0001:000816a0       ?getThrowTypes@UnDecorator@@CA?AVDName@@XZ 00000001400826a0 f   LIBCMT:undname.obj
 0001:00081a40       ?getExtendedDataIndirectType@UnDecorator@@CA?AVDName@@AEADAEA_NH@Z 0000000140082a40 f   LIBCMT:undname.obj
 0001:00081e80       ?getArrayType@UnDecorator@@CA?AVDName@@AEBV2@@Z 0000000140082e80 f i LIBCMT:undname.obj
 0001:00083080       ?getLexicalFrame@UnDecorator@@CA?AVDName@@XZ 0000000140084080 f i LIBCMT:undname.obj
 0001:000831b0       ?getDisplacement@UnDecorator@@CA?AVDName@@XZ 00000001400841b0 f i LIBCMT:undname.obj
 0001:000831d0       ?getCallIndex@UnDecorator@@CA?AVDName@@XZ 00000001400841d0 f i LIBCMT:undname.obj
 0001:000831f0       ?getGuardNumber@UnDecorator@@CA?AVDName@@XZ 00000001400841f0 f i LIBCMT:undname.obj
 0001:00083210       ?getVfTableType@UnDecorator@@CA?AVDName@@AEBV2@@Z 0000000140084210 f i LIBCMT:undname.obj
 0001:00083800       ?getStringEncoding@UnDecorator@@CA?AVDName@@PEADH@Z 0000000140084800 f   LIBCMT:undname.obj
 0001:00083ac0       ?getSignedDimension@UnDecorator@@CA?AVDName@@XZ 0000000140084ac0 f   LIBCMT:undname.obj
 0001:00083c90       ?getTemplateConstant@UnDecorator@@CA?AVDName@@XZ 0000000140084c90 f   LIBCMT:undname.obj
 0001:000844f0       ?getPtrRefDataType@UnDecorator@@CA?AVDName@@AEBV2@H@Z 00000001400854f0 f i LIBCMT:undname.obj
 0001:000849d0       ?getVbTableType@UnDecorator@@CA?AVDName@@AEBV2@@Z 00000001400859d0 f i LIBCMT:undname.obj
 0001:000849f0       ?getTemplateArgumentList@UnDecorator@@CA?AVDName@@XZ 00000001400859f0 f   LIBCMT:undname.obj
 0001:00085420       ?getOperatorName@UnDecorator@@CA?AVDName@@_NPEA_N@Z 0000000140086420 f i LIBCMT:undname.obj
 0001:00086330       ?getTemplateName@UnDecorator@@CA?AVDName@@_N@Z 0000000140087330 f   LIBCMT:undname.obj
 0001:00086740       ?getZName@UnDecorator@@CA?AVDName@@_N@Z 0000000140087740 f   LIBCMT:undname.obj
 0001:00086e90       ?getScopedName@UnDecorator@@CA?AVDName@@XZ 0000000140087e90 f   LIBCMT:undname.obj
 0001:00087360       ?getECSUName@UnDecorator@@CA?AVDName@@XZ 0000000140088360 f i LIBCMT:undname.obj
 0001:00087380       ?getECSUDataType@UnDecorator@@CA?AVDName@@XZ 0000000140088380 f   LIBCMT:undname.obj
 0001:00087830       ?getSymbolName@UnDecorator@@CA?AVDName@@XZ 0000000140088830 f i LIBCMT:undname.obj
 0001:00087890       ?getBasedType@UnDecorator@@CA?AVDName@@XZ 0000000140088890 f   LIBCMT:undname.obj
 0001:00087b60       ?composeDeclaration@UnDecorator@@CA?AVDName@@AEBV2@@Z 0000000140088b60 f i LIBCMT:undname.obj
 0001:00089a00       ?getDecoratedName@UnDecorator@@CA?AVDName@@XZ 000000014008aa00 f   LIBCMT:undname.obj
 0001:00089fb0       ?getScope@UnDecorator@@CA?AVDName@@XZ 000000014008afb0 f   LIBCMT:undname.obj
 0001:0008af50       ?getFunctionIndirectType@UnDecorator@@CA?AVDName@@AEBV2@@Z 000000014008bf50 f   LIBCMT:undname.obj
 0001:0008bea0       ?getDataIndirectType@UnDecorator@@CA?AVDName@@AEBV2@D0H@Z 000000014008cea0 f   LIBCMT:undname.obj
 0001:0008d500       ??BUnDecorator@@QEAAPEADXZ 000000014008e500 f i LIBCMT:undname.obj
 0001:0008d880       ?getPtrRefType@UnDecorator@@CA?AVDName@@AEBV2@0D@Z 000000014008e880 f   LIBCMT:undname.obj
 0001:0008db20       ?getPointerType@UnDecorator@@CA?AVDName@@AEBV2@0@Z 000000014008eb20 f i LIBCMT:undname.obj
 0001:0008db40       ?getPointerTypeArray@UnDecorator@@CA?AVDName@@AEBV2@0@Z 000000014008eb40 f i LIBCMT:undname.obj
 0001:0008db60       ?getReferenceType@UnDecorator@@CA?AVDName@@AEBV2@0@Z 000000014008eb60 f i LIBCMT:undname.obj
 0001:0008db80       __unDName                  000000014008eb80 f   LIBCMT:undname.obj
 0001:0008dcb0       __unDNameEx                000000014008ecb0 f   LIBCMT:undname.obj
 0001:0008ddf0       ?getBasicDataType@UnDecorator@@CA?AVDName@@AEBV2@@Z 000000014008edf0 f   LIBCMT:undname.obj
 0001:0008e9a0       ?getPrimaryDataType@UnDecorator@@CA?AVDName@@AEBV2@@Z 000000014008f9a0 f   LIBCMT:undname.obj
 0001:0008ec40       ?getDataType@UnDecorator@@CA?AVDName@@PEAV2@@Z 000000014008fc40 f   LIBCMT:undname.obj
 0001:0008ef80       ?getExternalDataType@UnDecorator@@CA?AVDName@@AEBV2@@Z 000000014008ff80 f i LIBCMT:undname.obj
 0001:0008f1e0       __crtMessageBoxA           00000001400901e0 f   LIBCMT:crtmbox.obj
 0001:0008f440       strcat_s                   0000000140090440 f   LIBCMT:strcat_s.obj
 0001:0008f500       _set_error_mode            0000000140090500 f   LIBCMT:errmode.obj
 0001:0008f560       __set_app_type             0000000140090560 f   LIBCMT:errmode.obj
 0001:0008f570       __get_app_type             0000000140090570 f   LIBCMT:errmode.obj
 0001:0008f760       __crtGetLocaleInfoW        0000000140090760 f   LIBCMT:w_loc.obj
 0001:0008fa60       __crtGetLocaleInfoA        0000000140090a60 f   LIBCMT:a_loc.obj
 0001:0008fb90       _validdrive                0000000140090b90 f   LIBCMT:getcwd.obj
 0001:0008fbe0       _getdcwd_nolock            0000000140090be0 f   LIBCMT:getcwd.obj
 0001:0008fdb0       _getcwd                    0000000140090db0 f   LIBCMT:getcwd.obj
 0001:0008fdb0       getcwd                     0000000140090db0 f   LIBCMT:getcwd.obj
 0001:0008fe20       _getdcwd                   0000000140090e20 f   LIBCMT:getcwd.obj
 0001:0008fe90       _mbsicmp_l                 0000000140090e90 f   LIBCMT:mbsicmp.obj
 0001:000901f0       _mbsicmp                   00000001400911f0 f   LIBCMT:mbsicmp.obj
 0001:00090200       _mbsrchr_l                 0000000140091200 f   LIBCMT:mbsrchr.obj
 0001:00090390       _mbsrchr                   0000000140091390 f   LIBCMT:mbsrchr.obj
 0001:000903a0       _toupper                   00000001400913a0 f   LIBCMT:toupper.obj
 0001:000903b0       _toupper_l                 00000001400913b0 f   LIBCMT:toupper.obj
 0001:00090620       toupper                    0000000140091620 f   LIBCMT:toupper.obj
 0001:00090ba0       __crtLCMapStringA          0000000140091ba0 f   LIBCMT:a_map.obj
 0001:00090d00       strpbrk                    0000000140091d00 f   LIBCMT:strpbrk.obj
 0001:00090dd0       _getbuf                    0000000140091dd0 f   LIBCMT:_getbuf.obj
 0001:00090e30       _isatty                    0000000140091e30 f   LIBCMT:isatty.obj
 0001:00090eb0       _wctomb_s_l                0000000140091eb0 f   LIBCMT:wctomb.obj
 0001:00091160       wctomb_s                   0000000140092160 f   LIBCMT:wctomb.obj
 0001:00091180       _wctomb_l                  0000000140092180 f   LIBCMT:wctomb.obj
 0001:000912d0       wctomb                     00000001400922d0 f   LIBCMT:wctomb.obj
 0001:00091330       _isleadbyte_l              0000000140092330 f i LIBCMT:_wctype.obj
 0001:00091420       isleadbyte                 0000000140092420 f i LIBCMT:_wctype.obj
 0001:000914f0       _iswalpha_l                00000001400924f0 f i LIBCMT:_wctype.obj
 0001:00091500       iswalpha                   0000000140092500 f i LIBCMT:_wctype.obj
 0001:00091510       _iswupper_l                0000000140092510 f i LIBCMT:_wctype.obj
 0001:00091520       iswupper                   0000000140092520 f i LIBCMT:_wctype.obj
 0001:00091530       _iswlower_l                0000000140092530 f i LIBCMT:_wctype.obj
 0001:00091540       iswlower                   0000000140092540 f i LIBCMT:_wctype.obj
 0001:00091550       _iswdigit_l                0000000140092550 f i LIBCMT:_wctype.obj
 0001:00091560       iswdigit                   0000000140092560 f i LIBCMT:_wctype.obj
 0001:00091570       _iswxdigit_l               0000000140092570 f i LIBCMT:_wctype.obj
 0001:00091580       iswxdigit                  0000000140092580 f i LIBCMT:_wctype.obj
 0001:00091590       _iswspace_l                0000000140092590 f i LIBCMT:_wctype.obj
 0001:000915a0       iswspace                   00000001400925a0 f i LIBCMT:_wctype.obj
 0001:000915b0       _iswpunct_l                00000001400925b0 f i LIBCMT:_wctype.obj
 0001:000915c0       iswpunct                   00000001400925c0 f i LIBCMT:_wctype.obj
 0001:000915d0       _iswalnum_l                00000001400925d0 f i LIBCMT:_wctype.obj
 0001:000915e0       iswalnum                   00000001400925e0 f i LIBCMT:_wctype.obj
 0001:000915f0       _iswprint_l                00000001400925f0 f i LIBCMT:_wctype.obj
 0001:00091600       iswprint                   0000000140092600 f i LIBCMT:_wctype.obj
 0001:00091610       _iswgraph_l                0000000140092610 f i LIBCMT:_wctype.obj
 0001:00091620       iswgraph                   0000000140092620 f i LIBCMT:_wctype.obj
 0001:00091630       _iswcntrl_l                0000000140092630 f i LIBCMT:_wctype.obj
 0001:00091640       iswcntrl                   0000000140092640 f i LIBCMT:_wctype.obj
 0001:00091650       iswascii                   0000000140092650 f i LIBCMT:_wctype.obj
 0001:00091660       _iswcsym_l                 0000000140092660 f i LIBCMT:_wctype.obj
 0001:00091690       __iswcsym                  0000000140092690 f i LIBCMT:_wctype.obj
 0001:000916c0       _iswcsymf_l                00000001400926c0 f i LIBCMT:_wctype.obj
 0001:000916f0       __iswcsymf                 00000001400926f0 f i LIBCMT:_wctype.obj
 0001:00091720       _ungetc_nolock             0000000140092720 f   LIBCMT:ungetc.obj
 0001:000918a0       ungetc                     00000001400928a0 f   LIBCMT:ungetc.obj
 0001:00091940       _mbtowc_l                  0000000140092940 f   LIBCMT:mbtowc.obj
 0001:00091ba0       mbtowc                     0000000140092ba0 f   LIBCMT:mbtowc.obj
 0001:00091bb0       _putwch_nolock             0000000140092bb0 f   LIBCMT:putwch.obj
 0001:00091ce0       _cputws                    0000000140092ce0 f   LIBCMT:putwch.obj
 0001:00091dc0       _putwch                    0000000140092dc0 f   LIBCMT:putwch.obj
 0001:00091e20       _raise_exc_ex              0000000140092e20 f   LIBCMT:fpexcept.obj
 0001:00092170       _raise_exc                 0000000140093170 f   LIBCMT:fpexcept.obj
 0001:000921a0       _raise_excf                00000001400931a0 f   LIBCMT:fpexcept.obj
 0001:000921d0       _handle_exc                00000001400931d0 f   LIBCMT:fpexcept.obj
 0001:000924c0       _set_errno_from_matherr    00000001400934c0 f   LIBCMT:fpexcept.obj
 0001:00092530       _errcode                   0000000140093530 f   LIBCMT:fpexcept.obj
 0001:00092570       _umatherr                  0000000140093570 f   LIBCMT:fpexcept.obj
 0001:000926b0       _handle_qnan1              00000001400936b0 f   LIBCMT:fpexcept.obj
 0001:000927f0       _handle_qnan2              00000001400937f0 f   LIBCMT:fpexcept.obj
 0001:00092930       _except1                   0000000140093930 f   LIBCMT:fpexcept.obj
 0001:00092a90       _except2                   0000000140093a90 f   LIBCMT:fpexcept.obj
 0001:00092c20       _matherr                   0000000140093c20 f   LIBCMT:matherr.obj
 0001:00092c30       _statfp                    0000000140093c30 f   LIBCMT:fpctrl.obj
 0001:00092c50       _clrfp                     0000000140093c50 f   LIBCMT:fpctrl.obj
 0001:00092c70       _ctrlfp                    0000000140093c70 f   LIBCMT:fpctrl.obj
 0001:00092d20       _set_statfp                0000000140093d20 f   LIBCMT:fpctrl.obj
 0001:00093240       __crtCompareStringA        0000000140094240 f   LIBCMT:a_cmp.obj
 0001:00093380       _strnicoll_l               0000000140094380 f   LIBCMT:strnicol.obj
 0001:00093560       _strnicoll                 0000000140094560 f   LIBCMT:strnicol.obj
 0001:000936c0       __crtsetenv                00000001400946c0 f   LIBCMT:setenv.obj
 0001:00093c70       __crtGetStringTypeA        0000000140094c70 f   LIBCMT:a_str.obj
 0001:00093dc0       __pwctype_func             0000000140094dc0 f   LIBCMT:ctype.obj
 0001:00093dd0       __pctype_func              0000000140094dd0 f   LIBCMT:ctype.obj
 0001:000944b0       __free_lc_time             00000001400954b0 f   LIBCMT:inittime.obj
 0001:000946a0       __init_time                00000001400956a0 f   LIBCMT:inittime.obj
 0001:000947a0       __free_lconv_num           00000001400957a0 f   LIBCMT:initnum.obj
 0001:000947f0       __init_numeric             00000001400957f0 f   LIBCMT:initnum.obj
 0001:00094aa0       __free_lconv_mon           0000000140095aa0 f   LIBCMT:initmon.obj
 0001:00094b40       __init_monetary            0000000140095b40 f   LIBCMT:initmon.obj
 0001:00094f30       __init_collate             0000000140095f30 f   LIBCMT:initcoll.obj
 0001:00094f40       _Getdays_l                 0000000140095f40 f   LIBCMT:strftime.obj
 0001:00095160       _Getdays                   0000000140096160 f   LIBCMT:strftime.obj
 0001:00095170       _Getmonths_l               0000000140096170 f   LIBCMT:strftime.obj
 0001:000953a0       _Getmonths                 00000001400963a0 f   LIBCMT:strftime.obj
 0001:000953b0       _Gettnames_l               00000001400963b0 f   LIBCMT:strftime.obj
 0001:00095900       _Gettnames                 0000000140096900 f   LIBCMT:strftime.obj
 0001:00096740       _Strftime_l                0000000140097740 f   LIBCMT:strftime.obj
 0001:00096aa0       _strftime_l                0000000140097aa0 f   LIBCMT:strftime.obj
 0001:00096ad0       strftime                   0000000140097ad0 f   LIBCMT:strftime.obj
 0001:00096af0       _Strftime                  0000000140097af0 f   LIBCMT:strftime.obj
 0001:00096b20       localeconv                 0000000140097b20 f   LIBCMT:lconv.obj
 0001:00096b60       strcspn                    0000000140097b60 f   LIBCMT:strcspn.obj
 0001:00097660       __get_qualified_locale     0000000140098660 f   LIBCMT:getqloc.obj
 0001:00097b60       _ismbbkalnum_l             0000000140098b60 f   LIBCMT:ismbbyte.obj
 0001:00097c40       _ismbbkalnum               0000000140098c40 f   LIBCMT:ismbbyte.obj
 0001:00097cf0       _ismbbkprint_l             0000000140098cf0 f   LIBCMT:ismbbyte.obj
 0001:00097de0       _ismbbkprint               0000000140098de0 f   LIBCMT:ismbbyte.obj
 0001:00097ea0       _ismbbkpunct_l             0000000140098ea0 f   LIBCMT:ismbbyte.obj
 0001:00097f80       _ismbbkpunct               0000000140098f80 f   LIBCMT:ismbbyte.obj
 0001:00098030       _ismbbalnum_l              0000000140099030 f   LIBCMT:ismbbyte.obj
 0001:00098140       _ismbbalnum                0000000140099140 f   LIBCMT:ismbbyte.obj
 0001:00098220       _ismbbalpha_l              0000000140099220 f   LIBCMT:ismbbyte.obj
 0001:00098330       _ismbbalpha                0000000140099330 f   LIBCMT:ismbbyte.obj
 0001:00098410       _ismbbgraph_l              0000000140099410 f   LIBCMT:ismbbyte.obj
 0001:00098520       _ismbbgraph                0000000140099520 f   LIBCMT:ismbbyte.obj
 0001:00098600       _ismbbprint_l              0000000140099600 f   LIBCMT:ismbbyte.obj
 0001:00098710       _ismbbprint                0000000140099710 f   LIBCMT:ismbbyte.obj
 0001:000987f0       _ismbbpunct_l              00000001400997f0 f   LIBCMT:ismbbyte.obj
 0001:00098900       _ismbbpunct                0000000140099900 f   LIBCMT:ismbbyte.obj
 0001:000989e0       _ismbblead_l               00000001400999e0 f   LIBCMT:ismbbyte.obj
 0001:00098ac0       _ismbblead                 0000000140099ac0 f   LIBCMT:ismbbyte.obj
 0001:00098b80       _ismbbtrail_l              0000000140099b80 f   LIBCMT:ismbbyte.obj
 0001:00098c60       _ismbbtrail                0000000140099c60 f   LIBCMT:ismbbyte.obj
 0001:00098d20       _ismbbkana_l               0000000140099d20 f   LIBCMT:ismbbyte.obj
 0001:00098e40       _ismbbkana                 0000000140099e40 f   LIBCMT:ismbbyte.obj
 0001:000998c0       _open                      000000014009a8c0 f   LIBCMT:open.obj
 0001:00099a00       _sopen_helper              000000014009aa00 f   LIBCMT:open.obj
 0001:00099ba0       _sopen                     000000014009aba0 f   LIBCMT:open.obj
 0001:00099bf0       _sopen_s                   000000014009abf0 f   LIBCMT:open.obj
 0001:00099c30       _mbsnbcmp_l                000000014009ac30 f   LIBCMT:mbsnbcmp.obj
 0001:00099e40       _mbsnbcmp                  000000014009ae40 f   LIBCMT:mbsnbcmp.obj
 0001:00099e50       __addl                     000000014009ae50 f i LIBCMT:intrncvt.obj
 0001:00099e70       _ZeroTail                  000000014009ae70 f i LIBCMT:intrncvt.obj
 0001:00099ed0       _IncMan                    000000014009aed0 f i LIBCMT:intrncvt.obj
 0001:00099f50       _RoundMan                  000000014009af50 f i LIBCMT:intrncvt.obj
 0001:0009a0b0       _CopyMan                   000000014009b0b0 f i LIBCMT:intrncvt.obj
 0001:0009a0d0       _FillZeroMan               000000014009b0d0 f i LIBCMT:intrncvt.obj
 0001:0009a0e0       _IsZeroMan                 000000014009b0e0 f i LIBCMT:intrncvt.obj
 0001:0009a100       _ShrMan                    000000014009b100 f i LIBCMT:intrncvt.obj
 0001:0009a1b0       _ld12cvt                   000000014009b1b0 f i LIBCMT:intrncvt.obj
 0001:0009a870       _ld12tod                   000000014009b870 f   LIBCMT:intrncvt.obj
 0001:0009af30       _ld12tof                   000000014009bf30 f   LIBCMT:intrncvt.obj
 0001:0009b5f0       _ld12told                  000000014009c5f0 f   LIBCMT:intrncvt.obj
 0001:0009b6c0       __shl_12                   000000014009c6c0 f i LIBCMT:strgtold.obj
 0001:0009b6f0       __shr_12                   000000014009c6f0 f i LIBCMT:strgtold.obj
 0001:0009b720       __ld12mul                  000000014009c720 f i LIBCMT:strgtold.obj
 0001:0009bac0       __multtenpow12             000000014009cac0 f i LIBCMT:strgtold.obj
 0001:0009bf50       __strgtold12_l             000000014009cf50 f   LIBCMT:strgtold.obj
 0001:0009c980       __STRINGTOLD_L             000000014009d980 f   LIBCMT:strgtold.obj
 0001:0009c9f0       __add_12                   000000014009d9f0 f i LIBCMT:x10fout.obj
 0001:0009ca80       $I10_OUTPUT                000000014009da80 f   LIBCMT:x10fout.obj
 0001:0009d880       __ascii_stricmp            000000014009e880 f   LIBCMT:stricmp.obj
 0001:0009d8d0       _stricmp_l                 000000014009e8d0 f   LIBCMT:stricmp.obj
 0001:0009dab0       _stricmp                   000000014009eab0 f   LIBCMT:stricmp.obj
 0001:0009dab0       stricmp                    000000014009eab0 f   LIBCMT:stricmp.obj
 0001:0009db50       __ansicp                   000000014009eb50 f   LIBCMT:convrtcp.obj
 0001:0009dbc0       __convertcp                000000014009ebc0 f   LIBCMT:convrtcp.obj
 0001:0009de50       _iswctype_l                000000014009ee50 f   LIBCMT:iswctype.obj
 0001:0009dfc0       iswctype                   000000014009efc0 f   LIBCMT:iswctype.obj
 0001:0009e060       is_wctype                  000000014009f060 f   LIBCMT:iswctype.obj
 0001:0009e110       _set_exp                   000000014009f110 f   LIBCMT:util.obj
 0001:0009e150       _get_exp                   000000014009f150 f   LIBCMT:util.obj
 0001:0009e170       _add_exp                   000000014009f170 f   LIBCMT:util.obj
 0001:0009e1c0       _set_bexp                  000000014009f1c0 f   LIBCMT:util.obj
 0001:0009e1f0       _sptype                    000000014009f1f0 f   LIBCMT:util.obj
 0001:0009e260       _decomp                    000000014009f260 f   LIBCMT:util.obj
 0001:0009e380       _set_fpsr                  000000014009f380 f   LIBCMT:fpsr.obj
 0001:0009e38a       _fclrf                     000000014009f38a f   LIBCMT:fpsr.obj
 0001:0009e3a0       __ascii_strnicmp           000000014009f3a0 f   LIBCMT:strnicmp.obj
 0001:0009e400       _strnicmp_l                000000014009f400 f   LIBCMT:strnicmp.obj
 0001:0009e600       _strnicmp                  000000014009f600 f   LIBCMT:strnicmp.obj
 0001:0009e6c0       strdup                     000000014009f6c0 f   LIBCMT:strdup.obj
 0001:0009e6c0       _strdup                    000000014009f6c0 f   LIBCMT:strdup.obj
 0001:0009e750       _mbschr_l                  000000014009f750 f   LIBCMT:mbschr.obj
 0001:0009e8f0       _mbschr                    000000014009f8f0 f   LIBCMT:mbschr.obj
 0001:0009ea50       _itoa_s                    000000014009fa50 f   LIBCMT:xtoas.obj
 0001:0009eb80       _ltoa_s                    000000014009fb80 f   LIBCMT:xtoas.obj
 0001:0009ebc0       _ultoa_s                   000000014009fbc0 f   LIBCMT:xtoas.obj
 0001:0009ee20       _i64toa_s                  000000014009fe20 f   LIBCMT:xtoas.obj
 0001:0009ee60       _ui64toa_s                 000000014009fe60 f   LIBCMT:xtoas.obj
 0001:0009ef70       _chsize_nolock             000000014009ff70 f   LIBCMT:chsize.obj
 0001:0009f130       _chsize_s                  00000001400a0130 f   LIBCMT:chsize.obj
 0001:0009f2a0       _chsize                    00000001400a02a0 f   LIBCMT:chsize.obj
 0001:0009f2c0       _setmode_nolock            00000001400a02c0 f   LIBCMT:setmode.obj
 0001:0009f3c0       _set_fmode                 00000001400a03c0 f   LIBCMT:setmode.obj
 0001:0009f420       _get_fmode                 00000001400a0420 f   LIBCMT:setmode.obj
 0001:0009f470       _setmode                   00000001400a0470 f   LIBCMT:setmode.obj
 0001:0009f5f0       __mtold12                  00000001400a05f0 f   LIBCMT:mantold.obj
 0001:0009fb50       __crtGetStringTypeW        00000001400a0b50 f   LIBCMT:w_str.obj
 0001:0009fc8e       GetLocaleInfoA             00000001400a0c8e f   kernel32:KERNEL32.dll
 0001:0009fc94       CreateEventA               00000001400a0c94 f   kernel32:KERNEL32.dll
 0001:0009fc9a       SetEvent                   00000001400a0c9a f   kernel32:KERNEL32.dll
 0001:0009fca0       ResetEvent                 00000001400a0ca0 f   kernel32:KERNEL32.dll
 0001:0009fca6       WaitForMultipleObjects     00000001400a0ca6 f   kernel32:KERNEL32.dll
 0001:0009fcac       GetFileAttributesExA       00000001400a0cac f   kernel32:KERNEL32.dll
 0001:0009fcb2       GetSystemDirectoryA        00000001400a0cb2 f   kernel32:KERNEL32.dll
 0001:0009fcb8       GetWindowsDirectoryA       00000001400a0cb8 f   kernel32:KERNEL32.dll
 0001:0009fcbe       DeleteFileA                00000001400a0cbe f   kernel32:KERNEL32.dll
 0001:0009fcc4       MoveFileA                  00000001400a0cc4 f   kernel32:KERNEL32.dll
 0001:0009fcca       GetTickCount               00000001400a0cca f   kernel32:KERNEL32.dll
 0001:0009fcd0       QueryPerformanceCounter    00000001400a0cd0 f   kernel32:KERNEL32.dll
 0001:0009fcd6       QueryPerformanceFrequency  00000001400a0cd6 f   kernel32:KERNEL32.dll
 0001:0009fcdc       TryEnterCriticalSection    00000001400a0cdc f   kernel32:KERNEL32.dll
 0001:0009fce2       SetThreadPriority          00000001400a0ce2 f   kernel32:KERNEL32.dll
 0001:0009fce8       SetEndOfFile               00000001400a0ce8 f   kernel32:KERNEL32.dll
 0001:0009fcee       SetFilePointer             00000001400a0cee f   kernel32:KERNEL32.dll
 0001:0009fcf4       GetFileAttributesA         00000001400a0cf4 f   kernel32:KERNEL32.dll
 0001:0009fcfa       GetOverlappedResult        00000001400a0cfa f   kernel32:KERNEL32.dll
 0001:0009fd00       CancelIo                   00000001400a0d00 f   kernel32:KERNEL32.dll
 0001:0009fd06       WriteFile                  00000001400a0d06 f   kernel32:KERNEL32.dll
 0001:0009fd0c       DisconnectNamedPipe        00000001400a0d0c f   kernel32:KERNEL32.dll
 0001:0009fd12       UnmapViewOfFile            00000001400a0d12 f   kernel32:KERNEL32.dll
 0001:0009fd18       FindClose                  00000001400a0d18 f   kernel32:KERNEL32.dll
 0001:0009fd1e       FindNextFileA              00000001400a0d1e f   kernel32:KERNEL32.dll
 0001:0009fd24       FindFirstFileA             00000001400a0d24 f   kernel32:KERNEL32.dll
 0001:0009fd2a       FileTimeToSystemTime       00000001400a0d2a f   kernel32:KERNEL32.dll
 0001:0009fd30       FileTimeToLocalFileTime    00000001400a0d30 f   kernel32:KERNEL32.dll
 0001:0009fd36       GetDriveTypeA              00000001400a0d36 f   kernel32:KERNEL32.dll
 0001:0009fd3c       ExitProcess                00000001400a0d3c f   kernel32:KERNEL32.dll
 0001:0009fd42       SetConsoleCtrlHandler      00000001400a0d42 f   kernel32:KERNEL32.dll
 0001:0009fd48       ReadConsoleInputA          00000001400a0d48 f   kernel32:KERNEL32.dll
 0001:0009fd4e       SetConsoleMode             00000001400a0d4e f   kernel32:KERNEL32.dll
 0001:0009fd54       GetConsoleMode             00000001400a0d54 f   kernel32:KERNEL32.dll
 0001:0009fd5a       PeekConsoleInputA          00000001400a0d5a f   kernel32:KERNEL32.dll
 0001:0009fd60       GetNumberOfConsoleInputEvents 00000001400a0d60 f   kernel32:KERNEL32.dll
 0001:0009fd66       GetCommandLineA            00000001400a0d66 f   kernel32:KERNEL32.dll
 0001:0009fd6c       HeapFree                   00000001400a0d6c f   kernel32:KERNEL32.dll
 0001:0009fd72       GetVersionExA              00000001400a0d72 f   kernel32:KERNEL32.dll
 0001:0009fd78       HeapAlloc                  00000001400a0d78 f   kernel32:KERNEL32.dll
 0001:0009fd7e       GetProcessHeap             00000001400a0d7e f   kernel32:KERNEL32.dll
 0001:0009fd84       HeapReAlloc                00000001400a0d84 f   kernel32:KERNEL32.dll
 0001:0009fd8a       GetFileInformationByHandle 00000001400a0d8a f   kernel32:KERNEL32.dll
 0001:0009fd90       PeekNamedPipe              00000001400a0d90 f   kernel32:KERNEL32.dll
 0001:0009fd96       GetFileType                00000001400a0d96 f   kernel32:KERNEL32.dll
 0001:0009fd9c       SetStdHandle               00000001400a0d9c f   kernel32:KERNEL32.dll
 0001:0009fda2       WideCharToMultiByte        00000001400a0da2 f   kernel32:KERNEL32.dll
 0001:0009fda8       GetTimeZoneInformation     00000001400a0da8 f   kernel32:KERNEL32.dll
 0001:0009fdae       UnhandledExceptionFilter   00000001400a0dae f   kernel32:KERNEL32.dll
 0001:0009fdb4       SetUnhandledExceptionFilter 00000001400a0db4 f   kernel32:KERNEL32.dll
 0001:0009fdba       IsDebuggerPresent          00000001400a0dba f   kernel32:KERNEL32.dll
 0001:0009fdc0       RtlCaptureContext          00000001400a0dc0 f   kernel32:KERNEL32.dll
 0001:0009fdc6       ExitThread                 00000001400a0dc6 f   kernel32:KERNEL32.dll
 0001:0009fdcc       ResumeThread               00000001400a0dcc f   kernel32:KERNEL32.dll
 0001:0009fdd2       CreateThread               00000001400a0dd2 f   kernel32:KERNEL32.dll
 0001:0009fdd8       FlushFileBuffers           00000001400a0dd8 f   kernel32:KERNEL32.dll
 0001:0009fdde       GetStdHandle               00000001400a0dde f   kernel32:KERNEL32.dll
 0001:0009fde4       FlsGetValue                00000001400a0de4 f   kernel32:KERNEL32.dll
 0001:0009fdea       TlsAlloc                   00000001400a0dea f   kernel32:KERNEL32.dll
 0001:0009fdf0       FlsSetValue                00000001400a0df0 f   kernel32:KERNEL32.dll
 0001:0009fdf6       TlsFree                    00000001400a0df6 f   kernel32:KERNEL32.dll
 0001:0009fdfc       FlsFree                    00000001400a0dfc f   kernel32:KERNEL32.dll
 0001:0009fe02       TlsSetValue                00000001400a0e02 f   kernel32:KERNEL32.dll
 0001:0009fe08       GetCurrentThread           00000001400a0e08 f   kernel32:KERNEL32.dll
 0001:0009fe0e       FlsAlloc                   00000001400a0e0e f   kernel32:KERNEL32.dll
 0001:0009fe14       GetCurrentDirectoryA       00000001400a0e14 f   kernel32:KERNEL32.dll
 0001:0009fe1a       SetCurrentDirectoryA       00000001400a0e1a f   kernel32:KERNEL32.dll
 0001:0009fe20       RtlVirtualUnwind           00000001400a0e20 f   kernel32:KERNEL32.dll
 0001:0009fe26       RtlLookupFunctionEntry     00000001400a0e26 f   kernel32:KERNEL32.dll
 0001:0009fe2c       RaiseException             00000001400a0e2c f   kernel32:KERNEL32.dll
 0001:0009fe32       RtlPcToFileHeader          00000001400a0e32 f   kernel32:KERNEL32.dll
 0001:0009fe38       RtlUnwindEx                00000001400a0e38 f   kernel32:KERNEL32.dll
 0001:0009fe3e       SetHandleCount             00000001400a0e3e f   kernel32:KERNEL32.dll
 0001:0009fe44       GetStartupInfoA            00000001400a0e44 f   kernel32:KERNEL32.dll
 0001:0009fe4a       FatalAppExitA              00000001400a0e4a f   kernel32:KERNEL32.dll
 0001:0009fe50       GetConsoleCP               00000001400a0e50 f   kernel32:KERNEL32.dll
 0001:0009fe56       FreeLibrary                00000001400a0e56 f   kernel32:KERNEL32.dll
 0001:0009fe5c       LoadLibraryA               00000001400a0e5c f   kernel32:KERNEL32.dll
 0001:0009fe62       GetCPInfo                  00000001400a0e62 f   kernel32:KERNEL32.dll
 0001:0009fe68       GetACP                     00000001400a0e68 f   kernel32:KERNEL32.dll
 0001:0009fe6e       GetOEMCP                   00000001400a0e6e f   kernel32:KERNEL32.dll
 0001:0009fe74       IsValidCodePage            00000001400a0e74 f   kernel32:KERNEL32.dll
 0001:0009fe7a       FreeEnvironmentStringsA    00000001400a0e7a f   kernel32:KERNEL32.dll
 0001:0009fe80       GetEnvironmentStrings      00000001400a0e80 f   kernel32:KERNEL32.dll
 0001:0009fe86       FreeEnvironmentStringsW    00000001400a0e86 f   kernel32:KERNEL32.dll
 0001:0009fe8c       GetEnvironmentStringsW     00000001400a0e8c f   kernel32:KERNEL32.dll
 0001:0009fe92       HeapSetInformation         00000001400a0e92 f   kernel32:KERNEL32.dll
 0001:0009fe98       HeapCreate                 00000001400a0e98 f   kernel32:KERNEL32.dll
 0001:0009fe9e       HeapDestroy                00000001400a0e9e f   kernel32:KERNEL32.dll
 0001:0009fea4       GetCurrentProcessId        00000001400a0ea4 f   kernel32:KERNEL32.dll
 0001:0009feaa       HeapSize                   00000001400a0eaa f   kernel32:KERNEL32.dll
 0001:0009feb0       MultiByteToWideChar        00000001400a0eb0 f   kernel32:KERNEL32.dll
 0001:0009feb6       GetLocaleInfoW             00000001400a0eb6 f   kernel32:KERNEL32.dll
 0001:0009febc       LCMapStringA               00000001400a0ebc f   kernel32:KERNEL32.dll
 0001:0009fec2       LCMapStringW               00000001400a0ec2 f   kernel32:KERNEL32.dll
 0001:0009fec8       WriteConsoleA              00000001400a0ec8 f   kernel32:KERNEL32.dll
 0001:0009fece       GetConsoleOutputCP         00000001400a0ece f   kernel32:KERNEL32.dll
 0001:0009fed4       WriteConsoleW              00000001400a0ed4 f   kernel32:KERNEL32.dll
 0001:0009feda       CompareStringA             00000001400a0eda f   kernel32:KERNEL32.dll
 0001:0009fee0       CompareStringW             00000001400a0ee0 f   kernel32:KERNEL32.dll
 0001:0009fee6       SetEnvironmentVariableA    00000001400a0ee6 f   kernel32:KERNEL32.dll
 0001:0009feec       GetStringTypeA             00000001400a0eec f   kernel32:KERNEL32.dll
 0001:0009fef2       GetStringTypeW             00000001400a0ef2 f   kernel32:KERNEL32.dll
 0001:0009fef8       GetDateFormatA             00000001400a0ef8 f   kernel32:KERNEL32.dll
 0001:0009fefe       GetTimeFormatA             00000001400a0efe f   kernel32:KERNEL32.dll
 0001:0009ff04       GetUserDefaultLCID         00000001400a0f04 f   kernel32:KERNEL32.dll
 0001:0009ff0a       EnumSystemLocalesA         00000001400a0f0a f   kernel32:KERNEL32.dll
 0001:0009ff10       IsValidLocale              00000001400a0f10 f   kernel32:KERNEL32.dll
 0001:0009ff16       SetTimer                   00000001400a0f16 f   user32:USER32.dll
 0001:0009ff1c       KillTimer                  00000001400a0f1c f   user32:USER32.dll
 0001:0009ff22       PeekMessageA               00000001400a0f22 f   user32:USER32.dll
 0001:0009ff28       RegCloseKey                00000001400a0f28 f   advapi32:ADVAPI32.dll
 0001:0009ff2e       RegEnumValueA              00000001400a0f2e f   advapi32:ADVAPI32.dll
 0001:0009ff34       RegOpenKeyExA              00000001400a0f34 f   advapi32:ADVAPI32.dll
 0001:0009ff40       my_inet_ntoa               00000001400a0f40 f   mysys:my_net.obj
 0001:0009ff90       ??$rotlFixed@I@TaoCrypt@@YAIII@Z 00000001400a0f90 f i taocrypt:md5.obj
 0001:0009ffa0       ?Init@MD5@TaoCrypt@@UEAAXXZ 00000001400a0fa0 f   taocrypt:md5.obj
 0001:0009ffd0       ??0MD5@TaoCrypt@@QEAA@AEBV01@@Z 00000001400a0fd0 f   taocrypt:md5.obj
 0001:000a0050       ?Transform@MD5@TaoCrypt@@EEAAXXZ 00000001400a1050 f   taocrypt:md5.obj
 0001:000a07d0       ?Swap@MD5@TaoCrypt@@QEAAXAEAV12@@Z 00000001400a17d0 f   taocrypt:md5.obj
 0001:000a0830       ??4MD5@TaoCrypt@@QEAAAEAV01@AEBV01@@Z 00000001400a1830 f   taocrypt:md5.obj
 0001:000a0860       ??$rotrFixed@I@TaoCrypt@@YAIII@Z 00000001400a1860 f i taocrypt:hash.obj
 0001:000a0870       ?ByteReverse@TaoCrypt@@YAII@Z 00000001400a1870 f i taocrypt:hash.obj
 0001:000a0890       ?GetBitCountLo@HASHwithTransform@TaoCrypt@@QEBAIXZ 00000001400a1890 f i taocrypt:hash.obj
 0001:000a08a0       ?GetBitCountHi@HASHwithTransform@TaoCrypt@@QEBAIXZ 00000001400a18a0 f i taocrypt:hash.obj
 0001:000a08b0       ?GetBitCountLo@HASH64withTransform@TaoCrypt@@QEBAIXZ 00000001400a18b0 f i taocrypt:hash.obj
 0001:000a08c0       ?GetBitCountHi@HASH64withTransform@TaoCrypt@@QEBAIXZ 00000001400a18c0 f i taocrypt:hash.obj
 0001:000a08d0       ??0HASH@TaoCrypt@@QEAA@XZ  00000001400a18d0 f i taocrypt:hash.obj
 0001:000a08e0       ??0HASH64withTransform@TaoCrypt@@QEAA@II@Z 00000001400a18e0 f   taocrypt:hash.obj
 0001:000a08f0       ??1HASH64withTransform@TaoCrypt@@UEAA@XZ 00000001400a18f0 f i taocrypt:hash.obj
 0001:000a0900       ??_GHASH64withTransform@TaoCrypt@@UEAAPEAXI@Z 00000001400a1900 f i taocrypt:hash.obj
 0001:000a0900       ??_EHASH64withTransform@TaoCrypt@@UEAAPEAXI@Z 00000001400a1900 f i taocrypt:hash.obj
 0001:000a0930       ?ToEnum@?$EnumToType@W4ByteOrder@TaoCrypt@@$0A@@TaoCrypt@@SA?AW4ByteOrder@2@XZ 00000001400a1930 f i taocrypt:hash.obj
 0001:000a0940       ??$rotlFixed@_K@TaoCrypt@@YA_K_KI@Z 00000001400a1940 f i taocrypt:hash.obj
 0001:000a0950       ??$ByteReverse@I@TaoCrypt@@YAXPEAIPEBII@Z 00000001400a1950 f i taocrypt:hash.obj
 0001:000a0990       ??$RightShift@I@?$SafeShifter@$00@TaoCrypt@@SAIII@Z 00000001400a1990 f i taocrypt:hash.obj
 0001:000a09a0       ?GetHostByteOrder@TaoCrypt@@YA?AW4ByteOrder@1@XZ 00000001400a19a0 f i taocrypt:hash.obj
 0001:000a09b0       ?HostByteOrderIs@TaoCrypt@@YA_NW4ByteOrder@1@@Z 00000001400a19b0 f i taocrypt:hash.obj
 0001:000a09c0       ?ByteReverse@TaoCrypt@@YA_K_K@Z 00000001400a19c0 f i taocrypt:hash.obj
 0001:000a0a10       ?ByteReverse@TaoCrypt@@YAXPEAEPEBEI@Z 00000001400a1a10 f i taocrypt:hash.obj
 0001:000a0a50       ??0HASHwithTransform@TaoCrypt@@QEAA@II@Z 00000001400a1a50 f   taocrypt:hash.obj
 0001:000a0a60       ??_EHASHwithTransform@TaoCrypt@@UEAAPEAXI@Z 00000001400a1a60 f i taocrypt:hash.obj
 0001:000a0a60       ??_GHASHwithTransform@TaoCrypt@@UEAAPEAXI@Z 00000001400a1a60 f i taocrypt:hash.obj
 0001:000a0a90       ??$SafeRightShift@$0CA@I@TaoCrypt@@YAII@Z 00000001400a1a90 f i taocrypt:hash.obj
 0001:000a0aa0       ??$ByteReverseIf@E@TaoCrypt@@YAXPEAEPEBEIW4ByteOrder@0@@Z 00000001400a1aa0 f i taocrypt:hash.obj
 0001:000a0b00       ??$ByteReverseIf@I@TaoCrypt@@YAXPEAIPEBIIW4ByteOrder@0@@Z 00000001400a1b00 f i taocrypt:hash.obj
 0001:000a0b60       ??$ByteReverse@_K@TaoCrypt@@YAXPEA_KPEB_KI@Z 00000001400a1b60 f i taocrypt:hash.obj
 0001:000a0bf0       ?AddLength@HASHwithTransform@TaoCrypt@@IEAAXI@Z 00000001400a1bf0 f   taocrypt:hash.obj
 0001:000a0c10       ?Update@HASHwithTransform@TaoCrypt@@UEAAXPEBEI@Z 00000001400a1c10 f   taocrypt:hash.obj
 0001:000a0d00       ?Final@HASHwithTransform@TaoCrypt@@UEAAXPEAE@Z 00000001400a1d00 f   taocrypt:hash.obj
 0001:000a0f00       ?AddLength@HASH64withTransform@TaoCrypt@@IEAAXI@Z 00000001400a1f00 f   taocrypt:hash.obj
 0001:000a0f20       ??$ByteReverseIf@_K@TaoCrypt@@YAXPEA_KPEB_KIW4ByteOrder@0@@Z 00000001400a1f20 f i taocrypt:hash.obj
 0001:000a0fd0       ?Update@HASH64withTransform@TaoCrypt@@UEAAXPEBEI@Z 00000001400a1fd0 f   taocrypt:hash.obj
 0001:000a1130       ?Final@HASH64withTransform@TaoCrypt@@UEAAXPEAE@Z 00000001400a2130 f   taocrypt:hash.obj
 0001:000a1430       ?Init@MD4@TaoCrypt@@UEAAXXZ 00000001400a2430 f   taocrypt:md4.obj
 0001:000a1460       ??0MD4@TaoCrypt@@QEAA@AEBV01@@Z 00000001400a2460 f   taocrypt:md4.obj
 0001:000a14e0       ?Transform@MD4@TaoCrypt@@EEAAXXZ 00000001400a24e0 f   taocrypt:md4.obj
 0001:000a1a00       ?Swap@MD4@TaoCrypt@@QEAAXAEAV12@@Z 00000001400a2a00 f   taocrypt:md4.obj
 0001:000a1a60       ??4MD4@TaoCrypt@@QEAAAEAV01@AEBV01@@Z 00000001400a2a60 f   taocrypt:md4.obj
 0001:000a1a90       ?SetError@Error@TaoCrypt@@QEAAXW4ErrorNumber@2@@Z 00000001400a2a90 f i taocrypt:coding.obj
 0001:000a1aa0       ?SetError@Source@TaoCrypt@@QEAAXW4ErrorNumber@2@@Z 00000001400a2aa0 f i taocrypt:coding.obj
 0001:000a1ab0       ??A?$Block@EV?$AllocatorWithCleanup@E@TaoCrypt@@@TaoCrypt@@QEAAAEAEI@Z 00000001400a2ab0 f i taocrypt:coding.obj
 0001:000a1ac0       ?next@Source@TaoCrypt@@QEAAEXZ 00000001400a2ac0 f i taocrypt:coding.obj
 0001:000a1ae0       ?resize@?$Block@EV?$AllocatorWithCleanup@E@TaoCrypt@@@TaoCrypt@@QEAAXI@Z 00000001400a2ae0 f i taocrypt:coding.obj
 0001:000a1b20       ?Encode@HexEncoder@TaoCrypt@@AEAAXXZ 00000001400a2b20 f   taocrypt:coding.obj
 0001:000a1be0       ?Decode@HexDecoder@TaoCrypt@@AEAAXXZ 00000001400a2be0 f   taocrypt:coding.obj
 0001:000a1cb0       ?Encode@Base64Encoder@TaoCrypt@@AEAAXXZ 00000001400a2cb0 f   taocrypt:coding.obj
 0001:000a1ef0       ?Decode@Base64Decoder@TaoCrypt@@AEAAXXZ 00000001400a2ef0 f   taocrypt:coding.obj
 0001:000a2130       ?BytesToWords@TaoCrypt@@YAII@Z 00000001400a3130 f i taocrypt:integer.obj
 0001:000a2140       ?BitsToWords@TaoCrypt@@YAII@Z 00000001400a3140 f i taocrypt:integer.obj
 0001:000a2150       ?CopyWords@TaoCrypt@@YAXPEA_KPEB_KI@Z 00000001400a3150 f i taocrypt:integer.obj
 0001:000a2180       ?CountWords@TaoCrypt@@YAIPEB_KI@Z 00000001400a3180 f i taocrypt:integer.obj
 0001:000a21b0       ?SetWords@TaoCrypt@@YAXPEA_K_KI@Z 00000001400a31b0 f i taocrypt:integer.obj
 0001:000a21d0       ?ShiftWordsLeftByBits@TaoCrypt@@YA_KPEA_KII@Z 00000001400a31d0 f i taocrypt:integer.obj
 0001:000a2240       ?ShiftWordsRightByBits@TaoCrypt@@YA_KPEA_KII@Z 00000001400a3240 f i taocrypt:integer.obj
 0001:000a22a0       ?ShiftWordsLeftByWords@TaoCrypt@@YAXPEA_KII@Z 00000001400a32a0 f i taocrypt:integer.obj
 0001:000a2310       ?ShiftWordsRightByWords@TaoCrypt@@YAXPEA_KII@Z 00000001400a3310 f i taocrypt:integer.obj
 0001:000a2380       ?IsNegative@Integer@TaoCrypt@@QEBA_NXZ 00000001400a3380 f i taocrypt:integer.obj
 0001:000a2390       ?NotNegative@Integer@TaoCrypt@@QEBA_NXZ 00000001400a3390 f i taocrypt:integer.obj
 0001:000a23a0       ??1AbstractGroup@TaoCrypt@@UEAA@XZ 00000001400a33a0 f i taocrypt:integer.obj
 0001:000a23b0       ??0AbstractGroup@TaoCrypt@@QEAA@XZ 00000001400a33b0 f i taocrypt:integer.obj
 0001:000a23c0       ??0MultiplicativeGroupT@AbstractRing@TaoCrypt@@QEAA@XZ 00000001400a33c0 f i taocrypt:integer.obj
 0001:000a23d0       ?InversionIsFast@AbstractGroup@TaoCrypt@@UEBA_NXZ 00000001400a33d0 f i taocrypt:integer.obj
 0001:000a23e0       ?GetRing@MultiplicativeGroupT@AbstractRing@TaoCrypt@@QEBAAEBV23@XZ 00000001400a33e0 f i taocrypt:integer.obj
 0001:000a23f0       ?Equal@MultiplicativeGroupT@AbstractRing@TaoCrypt@@UEBA_NAEBVInteger@3@0@Z 00000001400a33f0 f i taocrypt:integer.obj
 0001:000a2400       ?Identity@MultiplicativeGroupT@AbstractRing@TaoCrypt@@UEBAAEBVInteger@3@XZ 00000001400a3400 f i taocrypt:integer.obj
 0001:000a2410       ?Add@MultiplicativeGroupT@AbstractRing@TaoCrypt@@UEBAAEBVInteger@3@AEBV43@0@Z 00000001400a3410 f i taocrypt:integer.obj
 0001:000a2420       ?Inverse@MultiplicativeGroupT@AbstractRing@TaoCrypt@@UEBAAEBVInteger@3@AEBV43@@Z 00000001400a3420 f i taocrypt:integer.obj
 0001:000a2430       ?Subtract@MultiplicativeGroupT@AbstractRing@TaoCrypt@@UEBAAEBVInteger@3@AEBV43@0@Z 00000001400a3430 f i taocrypt:integer.obj
 0001:000a2440       ?Double@MultiplicativeGroupT@AbstractRing@TaoCrypt@@UEBAAEBVInteger@3@AEBV43@@Z 00000001400a3440 f i taocrypt:integer.obj
 0001:000a2450       ?SimultaneousMultiply@MultiplicativeGroupT@AbstractRing@TaoCrypt@@UEBAXPEAVInteger@3@AEBV43@PEBV43@I@Z 00000001400a3450 f i taocrypt:integer.obj
 0001:000a2470       ??1MultiplicativeGroupT@AbstractRing@TaoCrypt@@UEAA@XZ 00000001400a3470 f i taocrypt:integer.obj
 0001:000a2480       ??1AbstractRing@TaoCrypt@@UEAA@XZ 00000001400a3480 f i taocrypt:integer.obj
 0001:000a2490       ??_GMultiplicativeGroupT@AbstractRing@TaoCrypt@@UEAAPEAXI@Z 00000001400a3490 f i taocrypt:integer.obj
 0001:000a2490       ??_EMultiplicativeGroupT@AbstractRing@TaoCrypt@@UEAAPEAXI@Z 00000001400a3490 f i taocrypt:integer.obj
 0001:000a24b0       ?SimultaneousExponentiate@MontgomeryRepresentation@TaoCrypt@@UEBAXPEAVInteger@2@AEBV32@PEBV32@I@Z 00000001400a34b0 f i taocrypt:integer.obj
 0001:000a24d0       ??0DWord@TaoCrypt@@QEAA@XZ 00000001400a34d0 f i taocrypt:integer.obj
 0001:000a24e0       ??0DWord@TaoCrypt@@QEAA@_K@Z 00000001400a34e0 f i taocrypt:integer.obj
 0001:000a24f0       ??0DWord@TaoCrypt@@QEAA@_K0@Z 00000001400a34f0 f i taocrypt:integer.obj
 0001:000a2500       ?Multiply@DWord@TaoCrypt@@SA?AV12@_K0@Z 00000001400a3500 f i taocrypt:integer.obj
 0001:000a2520       ??YDWord@TaoCrypt@@QEAAAEAV01@_K@Z 00000001400a3520 f i taocrypt:integer.obj
 0001:000a2530       ??HDWord@TaoCrypt@@QEAA?AV01@_K@Z 00000001400a3530 f i taocrypt:integer.obj
 0001:000a2550       ??GDWord@TaoCrypt@@QEAA?AV01@V01@@Z 00000001400a3550 f i taocrypt:integer.obj
 0001:000a2580       ??GDWord@TaoCrypt@@QEAA?AV01@_K@Z 00000001400a3580 f i taocrypt:integer.obj
 0001:000a25b0       ??7DWord@TaoCrypt@@QEBA_NXZ 00000001400a35b0 f i taocrypt:integer.obj
 0001:000a25d0       ?GetLowHalf@DWord@TaoCrypt@@QEBA_KXZ 00000001400a35d0 f i taocrypt:integer.obj
 0001:000a25e0       ?GetHighHalf@DWord@TaoCrypt@@QEBA_KXZ 00000001400a35e0 f i taocrypt:integer.obj
 0001:000a25f0       ?GetHighHalfAsBorrow@DWord@TaoCrypt@@QEBA_KXZ 00000001400a35f0 f i taocrypt:integer.obj
 0001:000a2600       ??0Word@TaoCrypt@@QEAA@XZ  00000001400a3600 f i taocrypt:integer.obj
 0001:000a2610       ??0Word@TaoCrypt@@QEAA@_K@Z 00000001400a3610 f i taocrypt:integer.obj
 0001:000a2620       ??0Word@TaoCrypt@@QEAA@II@Z 00000001400a3620 f i taocrypt:integer.obj
 0001:000a2640       ?Multiply@Word@TaoCrypt@@SA?AV12@II@Z 00000001400a3640 f i taocrypt:integer.obj
 0001:000a2660       ??GWord@TaoCrypt@@QEAA?AV01@V01@@Z 00000001400a3660 f i taocrypt:integer.obj
 0001:000a2670       ??GWord@TaoCrypt@@QEAA?AV01@I@Z 00000001400a3670 f i taocrypt:integer.obj
 0001:000a2680       ??KWord@TaoCrypt@@QEAAII@Z 00000001400a3680 f i taocrypt:integer.obj
 0001:000a2690       ??7Word@TaoCrypt@@QEBA_NXZ 00000001400a3690 f i taocrypt:integer.obj
 0001:000a26a0       ?GetWhole@Word@TaoCrypt@@QEBA_KXZ 00000001400a36a0 f i taocrypt:integer.obj
 0001:000a26b0       ?GetLowHalf@Word@TaoCrypt@@QEBAIXZ 00000001400a36b0 f i taocrypt:integer.obj
 0001:000a26c0       ?GetHighHalf@Word@TaoCrypt@@QEBAIXZ 00000001400a36c0 f i taocrypt:integer.obj
 0001:000a26d0       ?GetHighHalfAsBorrow@Word@TaoCrypt@@QEBAIXZ 00000001400a36d0 f i taocrypt:integer.obj
 0001:000a2890       ?MultiplyRecursionLimit@Portable@TaoCrypt@@SAIXZ 00000001400a3890 f i taocrypt:integer.obj
 0001:000a28a0       ?MultiplyBottomRecursionLimit@Portable@TaoCrypt@@SAIXZ 00000001400a38a0 f i taocrypt:integer.obj
 0001:000a28b0       ?Square8@Portable@TaoCrypt@@SAXPEA_KPEB_K@Z 00000001400a38b0 f i taocrypt:integer.obj
 0001:000a28c0       ?SquareRecursionLimit@Portable@TaoCrypt@@SAIXZ 00000001400a38c0 f i taocrypt:integer.obj
 0001:000a28d0       ?Add@Portable@TaoCrypt@@SA_KPEA_KPEB_K1I@Z 00000001400a38d0 f   taocrypt:integer.obj
 0001:000a29c0       ?Subtract@Portable@TaoCrypt@@SA_KPEA_KPEB_K1I@Z 00000001400a39c0 f   taocrypt:integer.obj
 0001:000a2ac0       ?Multiply2@Portable@TaoCrypt@@SAXPEA_KPEB_K1@Z 00000001400a3ac0 f   taocrypt:integer.obj
 0001:000a2c00       ?Multiply2Bottom@Portable@TaoCrypt@@SAXPEA_KPEB_K1@Z 00000001400a3c00 f   taocrypt:integer.obj
 0001:000a2c30       ?Multiply2Add@Portable@TaoCrypt@@SA_KPEA_KPEB_K1@Z 00000001400a3c30 f   taocrypt:integer.obj
 0001:000a2dd0       ?Add@TaoCrypt@@YA_KPEA_KPEB_K1I@Z 00000001400a3dd0 f i taocrypt:integer.obj
 0001:000a2de0       ?Subtract@TaoCrypt@@YA_KPEA_KPEB_K1I@Z 00000001400a3de0 f i taocrypt:integer.obj
 0001:000a2e20       ?DivideByPower2Mod@TaoCrypt@@YAXPEA_KPEB_KI1I@Z 00000001400a3e20 f   taocrypt:integer.obj
 0001:000a2f20       ?MultiplyByPower2Mod@TaoCrypt@@YAXPEA_KPEB_KI1I@Z 00000001400a3f20 f   taocrypt:integer.obj
 0001:000a2fe0       ??A?$Block@_KV?$AllocatorWithCleanup@_K@TaoCrypt@@@TaoCrypt@@QEAAAEA_KI@Z 00000001400a3fe0 f i taocrypt:integer.obj
 0001:000a2ff0       ??A?$Block@_KV?$AllocatorWithCleanup@_K@TaoCrypt@@@TaoCrypt@@QEBAAEB_KI@Z 00000001400a3ff0 f i taocrypt:integer.obj
 0001:000a3000       ??H?$Block@_KV?$AllocatorWithCleanup@_K@TaoCrypt@@@TaoCrypt@@QEAAPEA_KI@Z 00000001400a4000 f i taocrypt:integer.obj
 0001:000a3010       ??H?$Block@_KV?$AllocatorWithCleanup@_K@TaoCrypt@@@TaoCrypt@@QEBAPEB_KI@Z 00000001400a4010 f i taocrypt:integer.obj
 0001:000a3020       ?size@?$Block@_KV?$AllocatorWithCleanup@_K@TaoCrypt@@@TaoCrypt@@QEBAIXZ 00000001400a4020 f i taocrypt:integer.obj
 0001:000a3030       ?get_buffer@?$Block@_KV?$AllocatorWithCleanup@_K@TaoCrypt@@@TaoCrypt@@QEBAPEA_KXZ 00000001400a4030 f i taocrypt:integer.obj
 0001:000a3040       ?begin@?$Block@_KV?$AllocatorWithCleanup@_K@TaoCrypt@@@TaoCrypt@@QEBAPEA_KXZ 00000001400a4040 f i taocrypt:integer.obj
 0001:000a3050       ?CheckSize@?$AllocatorBase@_K@TaoCrypt@@KAX_K@Z 00000001400a4050 f i taocrypt:integer.obj
 0001:000a3060       ??$swap@PEB_K@mySTL@@YAXAEAPEB_K0@Z 00000001400a4060 f i taocrypt:integer.obj
 0001:000a3070       ??$swap@PEA_K@mySTL@@YAXAEAPEA_K0@Z 00000001400a4070 f i taocrypt:integer.obj
 0001:000a3080       ??$max@I@TaoCrypt@@YAAEBIAEBI0@Z 00000001400a4080 f i taocrypt:integer.obj
 0001:000a3090       ??$swap@W4Sign@Integer@TaoCrypt@@@mySTL@@YAXAEAW4Sign@Integer@TaoCrypt@@0@Z 00000001400a4090 f i taocrypt:integer.obj
 0001:000a30a0       ??$swap@V?$AllocatorWithCleanup@_K@TaoCrypt@@@mySTL@@YAXAEAV?$AllocatorWithCleanup@_K@TaoCrypt@@0@Z 00000001400a40a0 f i taocrypt:integer.obj
 0001:000a30b0       ??$DivideThreeWordsByTwo@IVWord@TaoCrypt@@@TaoCrypt@@YAIPEAIIIPEAVWord@0@@Z 00000001400a40b0 f i taocrypt:integer.obj
 0001:000a3190       ??$RightShift@K@?$SafeShifter@$00@TaoCrypt@@SAKKI@Z 00000001400a4190 f i taocrypt:integer.obj
 0001:000a31a0       ??$LeftShift@K@?$SafeShifter@$00@TaoCrypt@@SAKKI@Z 00000001400a41a0 f i taocrypt:integer.obj
 0001:000a31b0       ?prev@Source@TaoCrypt@@QEAAEXZ 00000001400a41b0 f i taocrypt:integer.obj
 0001:000a31c0       ??0AbstractRing@TaoCrypt@@QEAA@XZ 00000001400a41c0 f i taocrypt:integer.obj
 0001:000a31e0       ?MultiplyAndAdd@DWord@TaoCrypt@@SA?AV12@_K00@Z 00000001400a41e0 f i taocrypt:integer.obj
 0001:000a3270       ?Multiply4@Portable@TaoCrypt@@SAXPEA_KPEB_K1@Z 00000001400a4270 f   taocrypt:integer.obj
 0001:000a34c0       ?Square2@Portable@TaoCrypt@@SAXPEA_KPEB_K@Z 00000001400a44c0 f   taocrypt:integer.obj
 0001:000a3540       ?Square4@Portable@TaoCrypt@@SAXPEA_KPEB_K@Z 00000001400a4540 f   taocrypt:integer.obj
 0001:000a3550       ?Multiply8@Portable@TaoCrypt@@SAXPEA_KPEB_K1@Z 00000001400a4550 f   taocrypt:integer.obj
 0001:000a3e30       ?Multiply4Bottom@Portable@TaoCrypt@@SAXPEA_KPEB_K1@Z 00000001400a4e30 f   taocrypt:integer.obj
 0001:000a3f00       ?Multiply8Bottom@Portable@TaoCrypt@@SAXPEA_KPEB_K1@Z 00000001400a4f00 f   taocrypt:integer.obj
 0001:000a4320       ?RecursiveMultiply@TaoCrypt@@YAXPEA_K0PEB_K1I@Z 00000001400a5320 f   taocrypt:integer.obj
 0001:000a4660       ?RecursiveSquare@TaoCrypt@@YAXPEA_K0PEB_KI@Z 00000001400a5660 f   taocrypt:integer.obj
 0001:000a4790       ?RecursiveMultiplyBottom@TaoCrypt@@YAXPEA_K0PEB_K1I@Z 00000001400a5790 f   taocrypt:integer.obj
 0001:000a4890       ?RecursiveMultiplyTop@TaoCrypt@@YAXPEA_K0PEB_K11I@Z 00000001400a5890 f   taocrypt:integer.obj
 0001:000a4c30       ?Multiply@TaoCrypt@@YAXPEA_K0PEB_K1I@Z 00000001400a5c30 f i taocrypt:integer.obj
 0001:000a4c50       ?Square@TaoCrypt@@YAXPEA_K0PEB_KI@Z 00000001400a5c50 f i taocrypt:integer.obj
 0001:000a4c60       ?AsymmetricMultiply@TaoCrypt@@YAXPEA_K0PEB_KI1I@Z 00000001400a5c60 f   taocrypt:integer.obj
 0001:000a4eb0       ?AlmostInverse@TaoCrypt@@YAIPEA_K0PEB_KI1I@Z 00000001400a5eb0 f   taocrypt:integer.obj
 0001:000a5360       ?GetBit@Integer@TaoCrypt@@QEBA_NI@Z 00000001400a6360 f   taocrypt:integer.obj
 0001:000a5390       ?GetBits@Integer@TaoCrypt@@QEBAKII@Z 00000001400a6390 f   taocrypt:integer.obj
 0001:000a53f0       ?GetByte@Integer@TaoCrypt@@QEBAEI@Z 00000001400a63f0 f   taocrypt:integer.obj
 0001:000a5420       ?WordCount@Integer@TaoCrypt@@QEBAIXZ 00000001400a6420 f   taocrypt:integer.obj
 0001:000a55f0       ?IsUnit@Integer@TaoCrypt@@QEBA_NXZ 00000001400a65f0 f   taocrypt:integer.obj
 0001:000a5620       ?MultiplyBottom@TaoCrypt@@YAXPEA_K0PEB_K1I@Z 00000001400a6620 f i taocrypt:integer.obj
 0001:000a5640       ?MultiplyTop@TaoCrypt@@YAXPEA_K0PEB_K11I@Z 00000001400a6640 f i taocrypt:integer.obj
 0001:000a5660       ?MontgomeryReduce@TaoCrypt@@YAXPEA_K0PEB_K11I@Z 00000001400a6660 f   taocrypt:integer.obj
 0001:000a5740       ?RecursiveInverseModPower2@TaoCrypt@@YAXPEA_K0PEB_KI@Z 00000001400a6740 f   taocrypt:integer.obj
 0001:000a5870       ?Multiply@MontgomeryRepresentation@TaoCrypt@@UEBAAEBVInteger@2@AEBV32@0@Z 00000001400a6870 f   taocrypt:integer.obj
 0001:000a5940       ?Square@MontgomeryRepresentation@TaoCrypt@@UEBAAEBVInteger@2@AEBV32@@Z 00000001400a6940 f   taocrypt:integer.obj
 0001:000a59f0       ?MultiplicativeInverse@MontgomeryRepresentation@TaoCrypt@@UEBAAEBVInteger@2@AEBV32@@Z 00000001400a69f0 f   taocrypt:integer.obj
 0001:000a5b10       ?Swap@?$Block@_KV?$AllocatorWithCleanup@_K@TaoCrypt@@@TaoCrypt@@QEAAXAEAV12@@Z 00000001400a6b10 f i taocrypt:integer.obj
 0001:000a5b30       ?allocate@?$AllocatorWithCleanup@_K@TaoCrypt@@QEAAPEA_K_KPEBX@Z 00000001400a6b30 f i taocrypt:integer.obj
 0001:000a5b60       ??$DivideFourWordsByTwo@IVWord@TaoCrypt@@@TaoCrypt@@YA?AVWord@0@PEAIAEBV10@11@Z 00000001400a6b60 f i taocrypt:integer.obj
 0001:000a5c20       ??$SafeRightShift@$0EA@K@TaoCrypt@@YAKK@Z 00000001400a6c20 f i taocrypt:integer.obj
 0001:000a5c30       ??$SafeLeftShift@$0EA@K@TaoCrypt@@YAKK@Z 00000001400a6c30 f i taocrypt:integer.obj
 0001:000a5c40       ??$StdReallocate@_KV?$AllocatorWithCleanup@_K@TaoCrypt@@@TaoCrypt@@YAPEA_KAEAV?$AllocatorWithCleanup@_K@0@PEA_K_K2_N@Z 00000001400a6c40 f i taocrypt:integer.obj
 0001:000a5d30       ?IsEven@Integer@TaoCrypt@@QEBA_NXZ 00000001400a6d30 f i taocrypt:integer.obj
 0001:000a5d50       ?IsOdd@Integer@TaoCrypt@@QEBA_NXZ 00000001400a6d50 f i taocrypt:integer.obj
 0001:000a5d70       ??KDWord@TaoCrypt@@QEAA_K_K@Z 00000001400a6d70 f i taocrypt:integer.obj
 0001:000a5e10       ??LDWord@TaoCrypt@@QEAA_K_K@Z 00000001400a6e10 f i taocrypt:integer.obj
 0001:000a5ed0       ??7Integer@TaoCrypt@@QEBA_NXZ 00000001400a6ed0 f   taocrypt:integer.obj
 0001:000a5f00       ?PositiveSubtract@TaoCrypt@@YAXAEAVInteger@1@AEBV21@1@Z 00000001400a6f00 f   taocrypt:integer.obj
 0001:000a6080       ?PositiveCompare@Integer@TaoCrypt@@AEBAHAEBV12@@Z 00000001400a7080 f   taocrypt:integer.obj
 0001:000a60d0       ?BitCount@Integer@TaoCrypt@@QEBAIXZ 00000001400a70d0 f   taocrypt:integer.obj
 0001:000a6110       ?ByteCount@Integer@TaoCrypt@@QEBAIXZ 00000001400a7110 f   taocrypt:integer.obj
 0001:000a6150       ?IsConvertableToLong@Integer@TaoCrypt@@QEBA_NXZ 00000001400a7150 f   taocrypt:integer.obj
 0001:000a61a0       ?ConvertToLong@Integer@TaoCrypt@@QEBAJXZ 00000001400a71a0 f   taocrypt:integer.obj
 0001:000a61c0       ?Swap@Integer@TaoCrypt@@QEAAXAEAV12@@Z 00000001400a71c0 f   taocrypt:integer.obj
 0001:000a61f0       ?Modulo@Integer@TaoCrypt@@QEBA_K_K@Z 00000001400a71f0 f   taocrypt:integer.obj
 0001:000a6420       ?Inverse@ModularArithmetic@TaoCrypt@@UEBAAEBVInteger@2@AEBV32@@Z 00000001400a7420 f   taocrypt:integer.obj
 0001:000a64c0       ?reallocate@?$AllocatorWithCleanup@_K@TaoCrypt@@QEAAPEA_KPEA_K_K1_N@Z 00000001400a74c0 f i taocrypt:integer.obj
 0001:000a64e0       ??$DivideThreeWordsByTwo@_KVDWord@TaoCrypt@@@TaoCrypt@@YA_KPEA_K_K1PEAVDWord@0@@Z 00000001400a74e0 f i taocrypt:integer.obj
 0001:000a6680       ?IsZero@Integer@TaoCrypt@@QEBA_NXZ 00000001400a7680 f i taocrypt:integer.obj
 0001:000a6690       ?NotZero@Integer@TaoCrypt@@QEBA_NXZ 00000001400a7690 f i taocrypt:integer.obj
 0001:000a66b0       ?IsPositive@Integer@TaoCrypt@@QEBA_NXZ 00000001400a76b0 f i taocrypt:integer.obj
 0001:000a66e0       ??LTaoCrypt@@YA_KAEBVInteger@0@_K@Z 00000001400a76e0 f i taocrypt:integer.obj
 0001:000a66f0       ?ScalarMultiply@MultiplicativeGroupT@AbstractRing@TaoCrypt@@UEBA?AVInteger@3@AEBV43@0@Z 00000001400a76f0 f i taocrypt:integer.obj
 0001:000a6710       ?CascadeScalarMultiply@MultiplicativeGroupT@AbstractRing@TaoCrypt@@UEBA?AVInteger@3@AEBV43@000@Z 00000001400a7710 f i taocrypt:integer.obj
 0001:000a6750       ??1AbstractEuclideanDomain@TaoCrypt@@UEAA@XZ 00000001400a7750 f i taocrypt:integer.obj
 0001:000a6780       ??1EuclideanDomainOf@TaoCrypt@@UEAA@XZ 00000001400a7780 f i taocrypt:integer.obj
 0001:000a67e0       ??1ModularArithmetic@TaoCrypt@@UEAA@XZ 00000001400a77e0 f i taocrypt:integer.obj
 0001:000a6860       ?CascadeExponentiate@MontgomeryRepresentation@TaoCrypt@@UEBA?AVInteger@2@AEBV32@000@Z 00000001400a7860 f i taocrypt:integer.obj
 0001:000a6890       ?Negate@Integer@TaoCrypt@@QEAAXXZ 00000001400a7890 f   taocrypt:integer.obj
 0001:000a68c0       ?Compare@Integer@TaoCrypt@@QEBAHAEBV12@@Z 00000001400a78c0 f   taocrypt:integer.obj
 0001:000a6900       ?InverseMod@Integer@TaoCrypt@@QEBA_K_K@Z 00000001400a7900 f   taocrypt:integer.obj
 0001:000a6990       ??1MontgomeryRepresentation@TaoCrypt@@UEAA@XZ 00000001400a7990 f i taocrypt:integer.obj
 0001:000a6a50       ?CleanGrow@?$Block@_KV?$AllocatorWithCleanup@_K@TaoCrypt@@@TaoCrypt@@QEAAXI@Z 00000001400a7a50 f i taocrypt:integer.obj
 0001:000a6ab0       ?New@?$Block@_KV?$AllocatorWithCleanup@_K@TaoCrypt@@@TaoCrypt@@QEAAXI@Z 00000001400a7ab0 f i taocrypt:integer.obj
 0001:000a6af0       ?resize@?$Block@_KV?$AllocatorWithCleanup@_K@TaoCrypt@@@TaoCrypt@@QEAAXI@Z 00000001400a7af0 f i taocrypt:integer.obj
 0001:000a6b30       ??$DivideFourWordsByTwo@_KVDWord@TaoCrypt@@@TaoCrypt@@YA?AVDWord@0@PEA_KAEBV10@11@Z 00000001400a7b30 f i taocrypt:integer.obj
 0001:000a6be0       ??_GInteger@TaoCrypt@@QEAAPEAXI@Z 00000001400a7be0 f i taocrypt:integer.obj
 0001:000a6c40       ??8TaoCrypt@@YA_NAEBVInteger@0@0@Z 00000001400a7c40 f i taocrypt:integer.obj
 0001:000a6c60       ??OTaoCrypt@@YA_NAEBVInteger@0@0@Z 00000001400a7c60 f i taocrypt:integer.obj
 0001:000a6c80       ??PTaoCrypt@@YA_NAEBVInteger@0@0@Z 00000001400a7c80 f i taocrypt:integer.obj
 0001:000a6ca0       ??MTaoCrypt@@YA_NAEBVInteger@0@0@Z 00000001400a7ca0 f i taocrypt:integer.obj
 0001:000a6cc0       ?SetBit@Integer@TaoCrypt@@QEAAXI_N@Z 00000001400a7cc0 f   taocrypt:integer.obj
 0001:000a6de0       ?SetByte@Integer@TaoCrypt@@QEAAXIE@Z 00000001400a7de0 f   taocrypt:integer.obj
 0001:000a6ed0       ??4Integer@TaoCrypt@@QEAAAEAV01@AEBV01@@Z 00000001400a7ed0 f   taocrypt:integer.obj
 0001:000a6fb0       ??_3Integer@TaoCrypt@@QEAAAEAV01@I@Z 00000001400a7fb0 f   taocrypt:integer.obj
 0001:000a7160       ?PositiveAdd@TaoCrypt@@YAXAEAVInteger@1@AEBV21@1@Z 00000001400a8160 f   taocrypt:integer.obj
 0001:000a7370       ?Divide@TaoCrypt@@YAXPEA_K00PEB_KI1I@Z 00000001400a8370 f   taocrypt:integer.obj
 0001:000a7790       ?CleanNew@?$Block@_KV?$AllocatorWithCleanup@_K@TaoCrypt@@@TaoCrypt@@QEAAXI@Z 00000001400a8790 f i taocrypt:integer.obj
 0001:000a77f0       ??$tcDelete@VInteger@TaoCrypt@@@TaoCrypt@@YAXPEAVInteger@0@@Z 00000001400a87f0 f i taocrypt:integer.obj
 0001:000a7840       ?Accumulate@MultiplicativeGroupT@AbstractRing@TaoCrypt@@UEBAAEAVInteger@3@AEAV43@AEBV43@@Z 00000001400a8840 f i taocrypt:integer.obj
 0001:000a7870       ?Reduce@MultiplicativeGroupT@AbstractRing@TaoCrypt@@UEBAAEAVInteger@3@AEAV43@AEBV43@@Z 00000001400a8870 f i taocrypt:integer.obj
 0001:000a78a0       ?Decode@Integer@TaoCrypt@@QEAAXAEAVSource@2@@Z 00000001400a88a0 f   taocrypt:integer.obj
 0001:000a7a00       ?Decode@Integer@TaoCrypt@@QEAAXPEBEIW4Signedness@12@@Z 00000001400a8a00 f   taocrypt:integer.obj
 0001:000a7b90       ?CleanUp@TaoCrypt@@YAXXZ   00000001400a8b90 f   taocrypt:integer.obj
 0001:000a7bd0       ?Randomize@Integer@TaoCrypt@@QEAAXAEAVRandomNumberGenerator@2@I@Z 00000001400a8bd0 f   taocrypt:integer.obj
 0001:000a7ca0       ??YInteger@TaoCrypt@@QEAAAEAV01@AEBV01@@Z 00000001400a8ca0 f   taocrypt:integer.obj
 0001:000a7d70       ??ZInteger@TaoCrypt@@QEAAAEAV01@AEBV01@@Z 00000001400a8d70 f   taocrypt:integer.obj
 0001:000a7e40       ?Accumulate@ModularArithmetic@TaoCrypt@@UEBAAEAVInteger@2@AEAV32@AEBV32@@Z 00000001400a8e40 f   taocrypt:integer.obj
 0001:000a7ef0       ?Reduce@ModularArithmetic@TaoCrypt@@UEBAAEAVInteger@2@AEAV32@AEBV32@@Z 00000001400a8ef0 f   taocrypt:integer.obj
 0001:000a7f80       ??0?$Block@_KV?$AllocatorWithCleanup@_K@TaoCrypt@@@TaoCrypt@@QEAA@I@Z 00000001400a8f80 f i taocrypt:integer.obj
 0001:000a8010       ?PositiveMultiply@TaoCrypt@@YAXAEAVInteger@1@AEBV21@1@Z 00000001400a9010 f   taocrypt:integer.obj
 0001:000a81f0       ?Multiply@TaoCrypt@@YAXAEAVInteger@1@AEBV21@1@Z 00000001400a91f0 f   taocrypt:integer.obj
 0001:000a8240       ??0Integer@TaoCrypt@@QEAA@XZ 00000001400a9240 f   taocrypt:integer.obj
 0001:000a82e0       ??0Integer@TaoCrypt@@QEAA@AEBV01@@Z 00000001400a92e0 f   taocrypt:integer.obj
 0001:000a8400       ??0Integer@TaoCrypt@@QEAA@J@Z 00000001400a9400 f   taocrypt:integer.obj
 0001:000a84b0       ??0Integer@TaoCrypt@@QEAA@W4Sign@01@_K1@Z 00000001400a94b0 f   taocrypt:integer.obj
 0001:000a8570       ??0Integer@TaoCrypt@@AEAA@_KI@Z 00000001400a9570 f   taocrypt:integer.obj
 0001:000a8680       ??0Integer@TaoCrypt@@QEAA@PEBEIW4Signedness@01@@Z 00000001400a9680 f   taocrypt:integer.obj
 0001:000a8700       ??0Integer@TaoCrypt@@QEAA@AEAVSource@1@@Z 00000001400a9700 f   taocrypt:integer.obj
 0001:000a87a0       ?Zero@Integer@TaoCrypt@@SAAEBV12@XZ 00000001400a97a0 f   taocrypt:integer.obj
 0001:000a87f0       ?One@Integer@TaoCrypt@@SAAEBV12@XZ 00000001400a97f0 f   taocrypt:integer.obj
 0001:000a8840       ?Power2@Integer@TaoCrypt@@SA?AV12@I@Z 00000001400a9840 f   taocrypt:integer.obj
 0001:000a8880       ??GInteger@TaoCrypt@@QEBA?AV01@XZ 00000001400a9880 f   taocrypt:integer.obj
 0001:000a88b0       ??EInteger@TaoCrypt@@QEAAAEAV01@XZ 00000001400a98b0 f   taocrypt:integer.obj
 0001:000a8980       ??FInteger@TaoCrypt@@QEAAAEAV01@XZ 00000001400a9980 f   taocrypt:integer.obj
 0001:000a8a60       ??_2Integer@TaoCrypt@@QEAAAEAV01@I@Z 00000001400a9a60 f   taocrypt:integer.obj
 0001:000a8b70       ?MinEncodedSize@Integer@TaoCrypt@@QEBAIW4Signedness@12@@Z 00000001400a9b70 f   taocrypt:integer.obj
 0001:000a8c90       ?Plus@Integer@TaoCrypt@@QEBA?AV12@AEBV12@@Z 00000001400a9c90 f   taocrypt:integer.obj
 0001:000a8d50       ?Minus@Integer@TaoCrypt@@QEBA?AV12@AEBV12@@Z 00000001400a9d50 f   taocrypt:integer.obj
 0001:000a8e10       ?Times@Integer@TaoCrypt@@QEBA?AV12@AEBV12@@Z 00000001400a9e10 f   taocrypt:integer.obj
 0001:000a8e60       ?PositiveDivide@TaoCrypt@@YAXAEAVInteger@1@0AEBV21@1@Z 00000001400a9e60 f   taocrypt:integer.obj
 0001:000a90b0       ?AbsoluteValue@Integer@TaoCrypt@@QEBA?AV12@XZ 00000001400aa0b0 f   taocrypt:integer.obj
 0001:000a90e0       ?MultiplicativeInverse@Integer@TaoCrypt@@QEBA?AV12@XZ 00000001400aa0e0 f   taocrypt:integer.obj
 0001:000a9120       ?ConvertOut@MontgomeryRepresentation@TaoCrypt@@UEBA?AVInteger@2@AEBV32@@Z 00000001400aa120 f   taocrypt:integer.obj
 0001:000a91e0       ??5Integer@TaoCrypt@@QEBA?AV01@I@Z 00000001400aa1e0 f i taocrypt:integer.obj
 0001:000a9240       ??6Integer@TaoCrypt@@QEBA?AV01@I@Z 00000001400aa240 f i taocrypt:integer.obj
 0001:000a92a0       ?Squared@Integer@TaoCrypt@@QEBA?AV12@XZ 00000001400aa2a0 f i taocrypt:integer.obj
 0001:000a92c0       ??HTaoCrypt@@YA?AVInteger@0@AEBV10@0@Z 00000001400aa2c0 f i taocrypt:integer.obj
 0001:000a92e0       ??GTaoCrypt@@YA?AVInteger@0@AEBV10@0@Z 00000001400aa2e0 f i taocrypt:integer.obj
 0001:000a9300       ??DTaoCrypt@@YA?AVInteger@0@AEBV10@0@Z 00000001400aa300 f i taocrypt:integer.obj
 0001:000a9320       ??0AbstractEuclideanDomain@TaoCrypt@@QEAA@XZ 00000001400aa320 f i taocrypt:integer.obj
 0001:000a9350       ??0ModularArithmetic@TaoCrypt@@QEAA@AEBVInteger@1@@Z 00000001400aa350 f i taocrypt:integer.obj
 0001:000a93b0       ?MultiplicativeGroup@AbstractRing@TaoCrypt@@UEBAAEBVAbstractGroup@2@XZ 00000001400aa3b0 f i taocrypt:integer.obj
 0001:000a93c0       ?IsMontgomeryRepresentation@ModularArithmetic@TaoCrypt@@UEBA_NXZ 00000001400aa3c0 f i taocrypt:integer.obj
 0001:000a93d0       ?Double@ModularArithmetic@TaoCrypt@@UEBAAEBVInteger@2@AEBV32@@Z 00000001400aa3d0 f i taocrypt:integer.obj
 0001:000a93e0       ?Divide@ModularArithmetic@TaoCrypt@@UEBAAEBVInteger@2@AEBV32@0@Z 00000001400aa3e0 f i taocrypt:integer.obj
 0001:000a9420       ?Equal@ModularArithmetic@TaoCrypt@@UEBA_NAEBVInteger@2@0@Z 00000001400aa420 f i taocrypt:integer.obj
 0001:000a9440       ??_EModularArithmetic@TaoCrypt@@UEAAPEAXI@Z 00000001400aa440 f i taocrypt:integer.obj
 0001:000a9440       ??_GModularArithmetic@TaoCrypt@@UEAAPEAXI@Z 00000001400aa440 f i taocrypt:integer.obj
 0001:000a94d0       ?ConvertOut@ModularArithmetic@TaoCrypt@@UEBA?AVInteger@2@AEBV32@@Z 00000001400aa4d0 f i taocrypt:integer.obj
 0001:000a94f0       ?Identity@ModularArithmetic@TaoCrypt@@UEBAAEBVInteger@2@XZ 00000001400aa4f0 f i taocrypt:integer.obj
 0001:000a9500       ?MultiplicativeIdentity@ModularArithmetic@TaoCrypt@@UEBAAEBVInteger@2@XZ 00000001400aa500 f i taocrypt:integer.obj
 0001:000a9510       ?Encode@Integer@TaoCrypt@@QEBAIPEAEIW4Signedness@12@@Z 00000001400aa510 f   taocrypt:integer.obj
 0001:000a9640       ?Randomize@Integer@TaoCrypt@@QEAAXAEAVRandomNumberGenerator@2@AEBV12@1@Z 00000001400aa640 f   taocrypt:integer.obj
 0001:000a96e0       ?Divide@Integer@TaoCrypt@@SAXAEAV12@0AEBV12@1@Z 00000001400aa6e0 f   taocrypt:integer.obj
 0001:000a97c0       ?DivideByPowerOf2@Integer@TaoCrypt@@SAXAEAV12@0AEBV12@I@Z 00000001400aa7c0 f   taocrypt:integer.obj
 0001:000a9a40       ?DividedBy@Integer@TaoCrypt@@QEBA?AV12@AEBV12@@Z 00000001400aaa40 f   taocrypt:integer.obj
 0001:000a9ab0       ?Modulo@Integer@TaoCrypt@@QEBA?AV12@AEBV12@@Z 00000001400aaab0 f   taocrypt:integer.obj
 0001:000a9b20       ?Divide@Integer@TaoCrypt@@SAXAEA_KAEAV12@AEBV12@_K@Z 00000001400aab20 f   taocrypt:integer.obj
 0001:000a9e20       ?DividedBy@Integer@TaoCrypt@@QEBA?AV12@_K@Z 00000001400aae20 f   taocrypt:integer.obj
 0001:000a9e70       ?a_exp_b_mod_c@TaoCrypt@@YA?AVInteger@1@AEBV21@00@Z 00000001400aae70 f   taocrypt:integer.obj
 0001:000a9f70       ?Half@ModularArithmetic@TaoCrypt@@QEBAAEBVInteger@2@AEBV32@@Z 00000001400aaf70 f   taocrypt:integer.obj
 0001:000aa130       ?Add@ModularArithmetic@TaoCrypt@@UEBAAEBVInteger@2@AEBV32@0@Z 00000001400ab130 f   taocrypt:integer.obj
 0001:000aa220       ?Subtract@ModularArithmetic@TaoCrypt@@UEBAAEBVInteger@2@AEBV32@0@Z 00000001400ab220 f   taocrypt:integer.obj
 0001:000aa2f0       ??0MontgomeryRepresentation@TaoCrypt@@QEAA@AEBVInteger@1@@Z 00000001400ab2f0 f   taocrypt:integer.obj
 0001:000aa410       ?IsMontgomeryRepresentation@MontgomeryRepresentation@TaoCrypt@@UEBA_NXZ 00000001400ab410 f i taocrypt:integer.obj
 0001:000aa420       ??_GMontgomeryRepresentation@TaoCrypt@@UEAAPEAXI@Z 00000001400ab420 f i taocrypt:integer.obj
 0001:000aa420       ??_EMontgomeryRepresentation@TaoCrypt@@UEAAPEAXI@Z 00000001400ab420 f i taocrypt:integer.obj
 0001:000aa500       ??KTaoCrypt@@YA?AVInteger@0@AEBV10@0@Z 00000001400ab500 f i taocrypt:integer.obj
 0001:000aa520       ??LTaoCrypt@@YA?AVInteger@0@AEBV10@0@Z 00000001400ab520 f i taocrypt:integer.obj
 0001:000aa540       ?ModularExponentiation@TaoCrypt@@YA?AVInteger@1@AEBV21@00@Z 00000001400ab540 f i taocrypt:integer.obj
 0001:000aa560       ??0EuclideanDomainOf@TaoCrypt@@QEAA@XZ 00000001400ab560 f i taocrypt:integer.obj
 0001:000aa5a0       ?IsUnit@EuclideanDomainOf@TaoCrypt@@UEBA_NAEBVInteger@2@@Z 00000001400ab5a0 f i taocrypt:integer.obj
 0001:000aa5b0       ?Equal@EuclideanDomainOf@TaoCrypt@@UEBA_NAEBVInteger@2@0@Z 00000001400ab5b0 f i taocrypt:integer.obj
 0001:000aa5d0       ??_EEuclideanDomainOf@TaoCrypt@@UEAAPEAXI@Z 00000001400ab5d0 f i taocrypt:integer.obj
 0001:000aa5d0       ??_GEuclideanDomainOf@TaoCrypt@@UEAAPEAXI@Z 00000001400ab5d0 f i taocrypt:integer.obj
 0001:000aa650       ?Accumulate@EuclideanDomainOf@TaoCrypt@@UEBAAEAVInteger@2@AEAV32@AEBV32@@Z 00000001400ab650 f i taocrypt:integer.obj
 0001:000aa660       ?Reduce@EuclideanDomainOf@TaoCrypt@@UEBAAEAVInteger@2@AEAV32@AEBV32@@Z 00000001400ab660 f i taocrypt:integer.obj
 0001:000aa670       ?Doubled@Integer@TaoCrypt@@QEBA?AV12@XZ 00000001400ab670 f i taocrypt:integer.obj
 0001:000aa690       ?Identity@EuclideanDomainOf@TaoCrypt@@UEBAAEBVInteger@2@XZ 00000001400ab690 f i taocrypt:integer.obj
 0001:000aa6a0       ?Add@EuclideanDomainOf@TaoCrypt@@UEBAAEBVInteger@2@AEBV32@0@Z 00000001400ab6a0 f i taocrypt:integer.obj
 0001:000aa700       ?Inverse@EuclideanDomainOf@TaoCrypt@@UEBAAEBVInteger@2@AEBV32@@Z 00000001400ab700 f i taocrypt:integer.obj
 0001:000aa760       ?Subtract@EuclideanDomainOf@TaoCrypt@@UEBAAEBVInteger@2@AEBV32@0@Z 00000001400ab760 f i taocrypt:integer.obj
 0001:000aa7c0       ?Double@EuclideanDomainOf@TaoCrypt@@UEBAAEBVInteger@2@AEBV32@@Z 00000001400ab7c0 f i taocrypt:integer.obj
 0001:000aa820       ?MultiplicativeIdentity@EuclideanDomainOf@TaoCrypt@@UEBAAEBVInteger@2@XZ 00000001400ab820 f i taocrypt:integer.obj
 0001:000aa830       ?Multiply@EuclideanDomainOf@TaoCrypt@@UEBAAEBVInteger@2@AEBV32@0@Z 00000001400ab830 f i taocrypt:integer.obj
 0001:000aa890       ?Square@EuclideanDomainOf@TaoCrypt@@UEBAAEBVInteger@2@AEBV32@@Z 00000001400ab890 f i taocrypt:integer.obj
 0001:000aa8f0       ?MultiplicativeInverse@EuclideanDomainOf@TaoCrypt@@UEBAAEBVInteger@2@AEBV32@@Z 00000001400ab8f0 f i taocrypt:integer.obj
 0001:000aa950       ?Divide@EuclideanDomainOf@TaoCrypt@@UEBAAEBVInteger@2@AEBV32@0@Z 00000001400ab950 f i taocrypt:integer.obj
 0001:000aa9b0       ?Mod@EuclideanDomainOf@TaoCrypt@@UEBAAEBVInteger@2@AEBV32@0@Z 00000001400ab9b0 f i taocrypt:integer.obj
 0001:000aaa10       ?DivisionAlgorithm@EuclideanDomainOf@TaoCrypt@@UEBAXAEAVInteger@2@0AEBV32@1@Z 00000001400aba10 f i taocrypt:integer.obj
 0001:000aaa30       ?ConvertIn@ModularArithmetic@TaoCrypt@@UEBA?AVInteger@2@AEBV32@@Z 00000001400aba30 f i taocrypt:integer.obj
 0001:000aaa60       ?Multiply@ModularArithmetic@TaoCrypt@@UEBAAEBVInteger@2@AEBV32@0@Z 00000001400aba60 f i taocrypt:integer.obj
 0001:000aaaf0       ?Square@ModularArithmetic@TaoCrypt@@UEBAAEBVInteger@2@AEBV32@@Z 00000001400abaf0 f i taocrypt:integer.obj
 0001:000aab90       ?ConvertIn@MontgomeryRepresentation@TaoCrypt@@UEBA?AVInteger@2@AEBV32@@Z 00000001400abb90 f i taocrypt:integer.obj
 0001:000aac40       ?MultiplicativeIdentity@MontgomeryRepresentation@TaoCrypt@@UEBAAEBVInteger@2@XZ 00000001400abc40 f i taocrypt:integer.obj
 0001:000aacd0       ??0Integer@TaoCrypt@@QEAA@AEAVRandomNumberGenerator@1@AEBV01@1@Z 00000001400abcd0 f   taocrypt:integer.obj
 0001:000aad50       ?SquareRoot@Integer@TaoCrypt@@QEBA?AV12@XZ 00000001400abd50 f   taocrypt:integer.obj
 0001:000aaf50       ?IsSquare@Integer@TaoCrypt@@QEBA_NXZ 00000001400abf50 f   taocrypt:integer.obj
 0001:000aafe0       ?a_times_b_mod_c@TaoCrypt@@YA?AVInteger@1@AEBV21@00@Z 00000001400abfe0 f   taocrypt:integer.obj
 0001:000ab040       ?Gcd@Integer@TaoCrypt@@SA?AV12@AEBV12@0@Z 00000001400ac040 f   taocrypt:integer.obj
 0001:000ab110       ?InverseMod@Integer@TaoCrypt@@QEBA?AV12@AEBV12@@Z 00000001400ac110 f   taocrypt:integer.obj
 0001:000ab4b0       ?CascadeExponentiate@ModularArithmetic@TaoCrypt@@UEBA?AVInteger@2@AEBV32@000@Z 00000001400ac4b0 f   taocrypt:integer.obj
 0001:000ab7e0       ?SimultaneousExponentiate@ModularArithmetic@TaoCrypt@@UEBAXPEAVInteger@2@AEBV32@PEBV32@I@Z 00000001400ac7e0 f   taocrypt:integer.obj
 0001:000aba40       ?CRT@TaoCrypt@@YA?AVInteger@1@AEBV21@0000@Z 00000001400aca40 f   taocrypt:integer.obj
 0001:000abb60       ?IsUnit@ModularArithmetic@TaoCrypt@@UEBA_NAEBVInteger@2@@Z 00000001400acb60 f i taocrypt:integer.obj
 0001:000abbc0       ?MultiplicativeInverse@ModularArithmetic@TaoCrypt@@UEBAAEBVInteger@2@AEBV32@@Z 00000001400acbc0 f i taocrypt:integer.obj
 0001:000abc20       ?ModularRoot@TaoCrypt@@YA?AVInteger@1@AEBV21@00000@Z 00000001400acc20 f   taocrypt:integer.obj
 0001:000abd80       ??1SHA256@TaoCrypt@@UEAA@XZ 00000001400acd80 f i taocrypt:sha.obj
 0001:000abd90       ??1SHA224@TaoCrypt@@UEAA@XZ 00000001400acd90 f i taocrypt:sha.obj
 0001:000abda0       ??1SHA512@TaoCrypt@@UEAA@XZ 00000001400acda0 f i taocrypt:sha.obj
 0001:000abdb0       ??1SHA384@TaoCrypt@@UEAA@XZ 00000001400acdb0 f i taocrypt:sha.obj
 0001:000abdc0       ?Init@SHA@TaoCrypt@@UEAAXXZ 00000001400acdc0 f   taocrypt:sha.obj
 0001:000abdf0       ?Init@SHA256@TaoCrypt@@UEAAXXZ 00000001400acdf0 f   taocrypt:sha.obj
 0001:000abe40       ?Init@SHA224@TaoCrypt@@UEAAXXZ 00000001400ace40 f   taocrypt:sha.obj
 0001:000abe90       ?Init@SHA512@TaoCrypt@@UEAAXXZ 00000001400ace90 f   taocrypt:sha.obj
 0001:000abf10       ?Init@SHA384@TaoCrypt@@UEAAXXZ 00000001400acf10 f   taocrypt:sha.obj
 0001:000abf90       ??0SHA@TaoCrypt@@QEAA@AEBV01@@Z 00000001400acf90 f   taocrypt:sha.obj
 0001:000ac010       ??0SHA256@TaoCrypt@@QEAA@AEBV01@@Z 00000001400ad010 f   taocrypt:sha.obj
 0001:000ac0a0       ?getByteOrder@SHA256@TaoCrypt@@UEBA?AW4ByteOrder@2@XZ 00000001400ad0a0 f i taocrypt:sha.obj
 0001:000ac0b0       ?getBlockSize@SHA256@TaoCrypt@@UEBAIXZ 00000001400ad0b0 f i taocrypt:sha.obj
 0001:000ac0c0       ?getDigestSize@SHA256@TaoCrypt@@UEBAIXZ 00000001400ad0c0 f i taocrypt:sha.obj
 0001:000ac0d0       ?getPadSize@SHA256@TaoCrypt@@UEBAIXZ 00000001400ad0d0 f i taocrypt:sha.obj
 0001:000ac0e0       ??0SHA224@TaoCrypt@@QEAA@AEBV01@@Z 00000001400ad0e0 f   taocrypt:sha.obj
 0001:000ac170       ?getByteOrder@SHA224@TaoCrypt@@UEBA?AW4ByteOrder@2@XZ 00000001400ad170 f i taocrypt:sha.obj
 0001:000ac180       ?getBlockSize@SHA224@TaoCrypt@@UEBAIXZ 00000001400ad180 f i taocrypt:sha.obj
 0001:000ac190       ?getDigestSize@SHA224@TaoCrypt@@UEBAIXZ 00000001400ad190 f i taocrypt:sha.obj
 0001:000ac1a0       ?getPadSize@SHA224@TaoCrypt@@UEBAIXZ 00000001400ad1a0 f i taocrypt:sha.obj
 0001:000ac1b0       ??0SHA512@TaoCrypt@@QEAA@AEBV01@@Z 00000001400ad1b0 f   taocrypt:sha.obj
 0001:000ac250       ?getByteOrder@SHA512@TaoCrypt@@UEBA?AW4ByteOrder@2@XZ 00000001400ad250 f i taocrypt:sha.obj
 0001:000ac260       ?getBlockSize@SHA512@TaoCrypt@@UEBAIXZ 00000001400ad260 f i taocrypt:sha.obj
 0001:000ac270       ?getDigestSize@SHA512@TaoCrypt@@UEBAIXZ 00000001400ad270 f i taocrypt:sha.obj
 0001:000ac280       ?getPadSize@SHA512@TaoCrypt@@UEBAIXZ 00000001400ad280 f i taocrypt:sha.obj
 0001:000ac290       ??0SHA384@TaoCrypt@@QEAA@AEBV01@@Z 00000001400ad290 f   taocrypt:sha.obj
 0001:000ac320       ?getByteOrder@SHA384@TaoCrypt@@UEBA?AW4ByteOrder@2@XZ 00000001400ad320 f i taocrypt:sha.obj
 0001:000ac330       ?getBlockSize@SHA384@TaoCrypt@@UEBAIXZ 00000001400ad330 f i taocrypt:sha.obj
 0001:000ac340       ?getDigestSize@SHA384@TaoCrypt@@UEBAIXZ 00000001400ad340 f i taocrypt:sha.obj
 0001:000ac350       ?getPadSize@SHA384@TaoCrypt@@UEBAIXZ 00000001400ad350 f i taocrypt:sha.obj
 0001:000ac360       ?Transform@SHA@TaoCrypt@@EEAAXXZ 00000001400ad360 f   taocrypt:sha.obj
 0001:000ae110       ?Transform@SHA256@TaoCrypt@@EEAAXXZ 00000001400af110 f   taocrypt:sha.obj
 0001:000ae120       ?Transform@SHA224@TaoCrypt@@EEAAXXZ 00000001400af120 f   taocrypt:sha.obj
 0001:000ae130       ??$rotrFixed@_K@TaoCrypt@@YA_K_KI@Z 00000001400af130 f i taocrypt:sha.obj
 0001:000ae140       ??_GSHA256@TaoCrypt@@UEAAPEAXI@Z 00000001400af140 f i taocrypt:sha.obj
 0001:000ae140       ??_ESHA256@TaoCrypt@@UEAAPEAXI@Z 00000001400af140 f i taocrypt:sha.obj
 0001:000ae170       ??_GSHA224@TaoCrypt@@UEAAPEAXI@Z 00000001400af170 f i taocrypt:sha.obj
 0001:000ae170       ??_ESHA224@TaoCrypt@@UEAAPEAXI@Z 00000001400af170 f i taocrypt:sha.obj
 0001:000ae1a0       ??_ESHA512@TaoCrypt@@UEAAPEAXI@Z 00000001400af1a0 f i taocrypt:sha.obj
 0001:000ae1a0       ??_GSHA512@TaoCrypt@@UEAAPEAXI@Z 00000001400af1a0 f i taocrypt:sha.obj
 0001:000ae1d0       ??_ESHA384@TaoCrypt@@UEAAPEAXI@Z 00000001400af1d0 f i taocrypt:sha.obj
 0001:000ae1d0       ??_GSHA384@TaoCrypt@@UEAAPEAXI@Z 00000001400af1d0 f i taocrypt:sha.obj
 0001:000ae200       ?Swap@SHA@TaoCrypt@@QEAAXAEAV12@@Z 00000001400af200 f   taocrypt:sha.obj
 0001:000ae270       ?Swap@SHA256@TaoCrypt@@QEAAXAEAV12@@Z 00000001400af270 f   taocrypt:sha.obj
 0001:000ae2f0       ?Swap@SHA224@TaoCrypt@@QEAAXAEAV12@@Z 00000001400af2f0 f   taocrypt:sha.obj
 0001:000ae360       ?Swap@SHA512@TaoCrypt@@QEAAXAEAV12@@Z 00000001400af360 f   taocrypt:sha.obj
 0001:000ae3e0       ?Swap@SHA384@TaoCrypt@@QEAAXAEAV12@@Z 00000001400af3e0 f   taocrypt:sha.obj
 0001:000af360       ?Transform@SHA512@TaoCrypt@@EEAAXXZ 00000001400b0360 f   taocrypt:sha.obj
 0001:000af370       ?Transform@SHA384@TaoCrypt@@EEAAXXZ 00000001400b0370 f   taocrypt:sha.obj
 0001:000af380       ??4SHA@TaoCrypt@@QEAAAEAV01@AEBV01@@Z 00000001400b0380 f   taocrypt:sha.obj
 0001:000af3b0       ??4SHA256@TaoCrypt@@QEAAAEAV01@AEBV01@@Z 00000001400b03b0 f   taocrypt:sha.obj
 0001:000af3e0       ??4SHA224@TaoCrypt@@QEAAAEAV01@AEBV01@@Z 00000001400b03e0 f   taocrypt:sha.obj
 0001:000af410       ??4SHA512@TaoCrypt@@QEAAAEAV01@AEBV01@@Z 00000001400b0410 f   taocrypt:sha.obj
 0001:000af440       ??4SHA384@TaoCrypt@@QEAAAEAV01@AEBV01@@Z 00000001400b0440 f   taocrypt:sha.obj
 0001:000af470       ?Init@RIPEMD160@TaoCrypt@@UEAAXXZ 00000001400b0470 f   taocrypt:ripemd.obj
 0001:000af4a0       ??0RIPEMD160@TaoCrypt@@QEAA@AEBV01@@Z 00000001400b04a0 f   taocrypt:ripemd.obj
 0001:000af520       ?Transform@RIPEMD160@TaoCrypt@@EEAAXXZ 00000001400b0520 f   taocrypt:ripemd.obj
 0001:000b09c0       ?Swap@RIPEMD160@TaoCrypt@@QEAAXAEAV12@@Z 00000001400b19c0 f   taocrypt:ripemd.obj
 0001:000b0a30       ??4RIPEMD160@TaoCrypt@@QEAAAEAV01@AEBV01@@Z 00000001400b1a30 f   taocrypt:ripemd.obj
 0001:000b0a60       ?XorWords@TaoCrypt@@YAXPEA_KPEB_KI@Z 00000001400b1a60 f i taocrypt:misc.obj
 0001:000b0a90       ?xorbuf@TaoCrypt@@YAXPEAEPEBEI@Z 00000001400b1a90 f   taocrypt:misc.obj
 0001:000b0af0       ?BytePrecision@TaoCrypt@@YAI_K@Z 00000001400b1af0 f   taocrypt:misc.obj
 0001:000b0b20       ?BitPrecision@TaoCrypt@@YAI_K@Z 00000001400b1b20 f   taocrypt:misc.obj
 0001:000b0b70       ?Crop@TaoCrypt@@YA_K_KI@Z  00000001400b1b70 f   taocrypt:misc.obj
 0001:000b0b90       ?ReverseDir@TaoCrypt@@YA?AW4CipherDir@1@W421@@Z 00000001400b1b90 f i taocrypt:des.obj
 0001:000b0ba0       ?UnalignedGetWordNonTemplate@TaoCrypt@@YAIW4ByteOrder@1@PEBEPEAI@Z 00000001400b1ba0 f i taocrypt:des.obj
 0001:000b0bf0       ?UnalignedPutWord@TaoCrypt@@YAXW4ByteOrder@1@PEAEIPEBE@Z 00000001400b1bf0 f i taocrypt:des.obj
 0001:000b0d90       ?RawProcessBlock@BasicDES@TaoCrypt@@QEBAXAEAI0@Z 00000001400b1d90 f   taocrypt:des.obj
 0001:000b0f10       ??0?$PutBlock@IU?$EnumToType@W4ByteOrder@TaoCrypt@@$00@TaoCrypt@@$00@TaoCrypt@@QEAA@PEBXPEAX@Z 00000001400b1f10 f i taocrypt:des.obj
 0001:000b0f20       ??0?$GetBlock@IU?$EnumToType@W4ByteOrder@TaoCrypt@@$00@TaoCrypt@@$00@TaoCrypt@@QEAA@PEBX@Z 00000001400b1f20 f i taocrypt:des.obj
 0001:000b0f30       ?ToEnum@?$EnumToType@W4ByteOrder@TaoCrypt@@$00@TaoCrypt@@SA?AW4ByteOrder@2@XZ 00000001400b1f30 f i taocrypt:des.obj
 0001:000b0f40       ??$UnalignedGetWord@I@TaoCrypt@@YAIW4ByteOrder@0@PEBEPEAI@Z 00000001400b1f40 f i taocrypt:des.obj
 0001:000b0f90       ?SetKey@BasicDES@TaoCrypt@@QEAAXPEBEIW4CipherDir@2@@Z 00000001400b1f90 f   taocrypt:des.obj
 0001:000b1220       ?SetKey@DES_EDE2@TaoCrypt@@QEAAXPEBEIW4CipherDir@2@@Z 00000001400b2220 f   taocrypt:des.obj
 0001:000b1280       ?SetKey@DES_EDE3@TaoCrypt@@QEAAXPEBEIW4CipherDir@2@@Z 00000001400b2280 f   taocrypt:des.obj
 0001:000b1320       ?Get@?$BlockGetAndPut@IU?$EnumToType@W4ByteOrder@TaoCrypt@@$00@TaoCrypt@@$00@TaoCrypt@@SA?AV?$GetBlock@IU?$EnumToType@W4ByteOrder@TaoCrypt@@$00@TaoCrypt@@$00@2@PEBX@Z 00000001400b2320 f i taocrypt:des.obj
 0001:000b1330       ??$ByteReverseIf@I@TaoCrypt@@YAIIW4ByteOrder@0@@Z 00000001400b2330 f i taocrypt:des.obj
 0001:000b1350       ??$GetWord@I@TaoCrypt@@YAI_NW4ByteOrder@0@PEBE@Z 00000001400b2350 f i taocrypt:des.obj
 0001:000b13d0       ??$PutWord@I@TaoCrypt@@YAX_NW4ByteOrder@0@PEAEIPEBE@Z 00000001400b23d0 f i taocrypt:des.obj
 0001:000b1490       ??$?RI@?$GetBlock@IU?$EnumToType@W4ByteOrder@TaoCrypt@@$00@TaoCrypt@@$00@TaoCrypt@@QEAAAEAV01@AEAI@Z 00000001400b2490 f i taocrypt:des.obj
 0001:000b14c0       ??$?RI@?$PutBlock@IU?$EnumToType@W4ByteOrder@TaoCrypt@@$00@TaoCrypt@@$00@TaoCrypt@@QEAAAEAV01@I@Z 00000001400b24c0 f i taocrypt:des.obj
 0001:000b1500       ?ProcessAndXorBlock@DES@TaoCrypt@@EEBAXPEBE0PEAE@Z 00000001400b2500 f   taocrypt:des.obj
 0001:000b16a0       ?ProcessAndXorBlock@DES_EDE2@TaoCrypt@@EEBAXPEBE0PEAE@Z 00000001400b26a0 f   taocrypt:des.obj
 0001:000b1870       ?ProcessAndXorBlock@DES_EDE3@TaoCrypt@@EEBAXPEBE0PEAE@Z 00000001400b2870 f   taocrypt:des.obj
 0001:000b1a50       ??$IsPowerOf2@I@TaoCrypt@@YA_NI@Z 00000001400b2a50 f i taocrypt:aes.obj
 0001:000b1a70       ??$ModPowerOf2@II@TaoCrypt@@YAIII@Z 00000001400b2a70 f i taocrypt:aes.obj
 0001:000b1a80       ??$RoundDownToMultipleOf@I@TaoCrypt@@YAIII@Z 00000001400b2a80 f i taocrypt:aes.obj
 0001:000b1ab0       ??$RoundUpToMultipleOf@I@TaoCrypt@@YAIII@Z 00000001400b2ab0 f i taocrypt:aes.obj
 0001:000b1ae0       ??$GetUserKey@I@TaoCrypt@@YAXW4ByteOrder@0@PEAIIPEBEI@Z 00000001400b2ae0 f i taocrypt:aes.obj
 0001:000b1b90       ?SetKey@AES@TaoCrypt@@QEAAXPEBEIW4CipherDir@2@@Z 00000001400b2b90 f   taocrypt:aes.obj
 0001:000b22b0       ?encrypt@AES@TaoCrypt@@AEBAXPEBE0PEAE@Z 00000001400b32b0 f   taocrypt:aes.obj
 0001:000b2860       ?decrypt@AES@TaoCrypt@@AEBAXPEBE0PEAE@Z 00000001400b3860 f   taocrypt:aes.obj
 0001:000b2e10       ?ProcessAndXorBlock@AES@TaoCrypt@@EEBAXPEBE0PEAE@Z 00000001400b3e10 f   taocrypt:aes.obj
 0001:000b2e20       ?GenerateBlock@RandomNumberGenerator@TaoCrypt@@QEAAXPEAEI@Z 00000001400b3e20 f   taocrypt:random.obj
 0001:000b2e70       ?GenerateByte@RandomNumberGenerator@TaoCrypt@@QEAAEXZ 00000001400b3e70 f   taocrypt:random.obj
 0001:000b2e90       ??0OS_Seed@TaoCrypt@@QEAA@XZ 00000001400b3e90 f   taocrypt:random.obj
 0001:000b2ed0       ??1OS_Seed@TaoCrypt@@QEAA@XZ 00000001400b3ed0 f   taocrypt:random.obj
 0001:000b2ee0       ?GenerateSeed@OS_Seed@TaoCrypt@@QEAAXPEAEI@Z 00000001400b3ee0 f   taocrypt:random.obj
 0001:000b2f10       ??0RandomNumberGenerator@TaoCrypt@@QEAA@XZ 00000001400b3f10 f   taocrypt:random.obj
 0001:000b2f90       ?SetKey@ARC4@TaoCrypt@@QEAAXPEBEI@Z 00000001400b3f90 f   taocrypt:arc4.obj
 0001:000b3030       ?MakeByte@?A0xf4e6cea9@TaoCrypt@@YAIAEAI0PEAE@Z 00000001400b4030 f i taocrypt:arc4.obj
 0001:000b3070       ?Process@ARC4@TaoCrypt@@QEAAXPEAEPEBEI@Z 00000001400b4070 f   taocrypt:arc4.obj
 0001:000b3150       ??0BER_Decoder@TaoCrypt@@QEAA@AEAVSource@1@@Z 00000001400b4150 f i taocrypt:dsa.obj
 0001:000b3170       ??1BER_Decoder@TaoCrypt@@UEAA@XZ 00000001400b4170 f i taocrypt:dsa.obj
 0001:000b3180       ??_GBER_Decoder@TaoCrypt@@UEAAPEAXI@Z 00000001400b4180 f i taocrypt:dsa.obj
 0001:000b3180       ??_EBER_Decoder@TaoCrypt@@UEAAPEAXI@Z 00000001400b4180 f i taocrypt:dsa.obj
 0001:000b31b0       ??0DSA_Private_Decoder@TaoCrypt@@QEAA@AEAVSource@1@@Z 00000001400b41b0 f i taocrypt:dsa.obj
 0001:000b31d0       ??1DSA_Private_Decoder@TaoCrypt@@UEAA@XZ 00000001400b41d0 f i taocrypt:dsa.obj
 0001:000b31e0       ??0DSA_Public_Decoder@TaoCrypt@@QEAA@AEAVSource@1@@Z 00000001400b41e0 f i taocrypt:dsa.obj
 0001:000b3200       ??1DSA_Public_Decoder@TaoCrypt@@UEAA@XZ 00000001400b4200 f i taocrypt:dsa.obj
 0001:000b3210       ?Swap@DSA_PublicKey@TaoCrypt@@QEAAXAEAV12@@Z 00000001400b4210 f   taocrypt:dsa.obj
 0001:000b3260       ?Initialize@DSA_PublicKey@TaoCrypt@@QEAAXAEAVSource@2@@Z 00000001400b4260 f   taocrypt:dsa.obj
 0001:000b3290       ?Initialize@DSA_PublicKey@TaoCrypt@@QEAAXAEBVInteger@2@000@Z 00000001400b4290 f   taocrypt:dsa.obj
 0001:000b32f0       ?GetModulus@DSA_PublicKey@TaoCrypt@@QEBAAEBVInteger@2@XZ 00000001400b42f0 f   taocrypt:dsa.obj
 0001:000b3300       ?GetSubGroupOrder@DSA_PublicKey@TaoCrypt@@QEBAAEBVInteger@2@XZ 00000001400b4300 f   taocrypt:dsa.obj
 0001:000b3310       ?GetSubGroupGenerator@DSA_PublicKey@TaoCrypt@@QEBAAEBVInteger@2@XZ 00000001400b4310 f   taocrypt:dsa.obj
 0001:000b3320       ?GetPublicPart@DSA_PublicKey@TaoCrypt@@QEBAAEBVInteger@2@XZ 00000001400b4320 f   taocrypt:dsa.obj
 0001:000b3330       ?SetModulus@DSA_PublicKey@TaoCrypt@@QEAAXAEBVInteger@2@@Z 00000001400b4330 f   taocrypt:dsa.obj
 0001:000b3340       ?SetSubGroupOrder@DSA_PublicKey@TaoCrypt@@QEAAXAEBVInteger@2@@Z 00000001400b4340 f   taocrypt:dsa.obj
 0001:000b3350       ?SetSubGroupGenerator@DSA_PublicKey@TaoCrypt@@QEAAXAEBVInteger@2@@Z 00000001400b4350 f   taocrypt:dsa.obj
 0001:000b3360       ?SetPublicPart@DSA_PublicKey@TaoCrypt@@QEAAXAEBVInteger@2@@Z 00000001400b4360 f   taocrypt:dsa.obj
 0001:000b3370       ?SignatureLength@DSA_PublicKey@TaoCrypt@@QEBAIXZ 00000001400b4370 f   taocrypt:dsa.obj
 0001:000b3390       ?Initialize@DSA_PrivateKey@TaoCrypt@@QEAAXAEAVSource@2@@Z 00000001400b4390 f   taocrypt:dsa.obj
 0001:000b33c0       ?Initialize@DSA_PrivateKey@TaoCrypt@@QEAAXAEBVInteger@2@0000@Z 00000001400b43c0 f   taocrypt:dsa.obj
 0001:000b33f0       ?GetPrivatePart@DSA_PrivateKey@TaoCrypt@@QEBAAEBVInteger@2@XZ 00000001400b43f0 f   taocrypt:dsa.obj
 0001:000b3400       ?SetPrivatePart@DSA_PrivateKey@TaoCrypt@@QEAAXAEBVInteger@2@@Z 00000001400b4400 f   taocrypt:dsa.obj
 0001:000b3410       ?GetR@DSA_Signer@TaoCrypt@@QEBAAEBVInteger@2@XZ 00000001400b4410 f   taocrypt:dsa.obj
 0001:000b3420       ?GetS@DSA_Signer@TaoCrypt@@QEBAAEBVInteger@2@XZ 00000001400b4420 f   taocrypt:dsa.obj
 0001:000b3430       ?GetR@DSA_Verifier@TaoCrypt@@QEBAAEBVInteger@2@XZ 00000001400b4430 f   taocrypt:dsa.obj
 0001:000b3440       ?GetS@DSA_Verifier@TaoCrypt@@QEBAAEBVInteger@2@XZ 00000001400b4440 f   taocrypt:dsa.obj
 0001:000b3450       ??_GDSA_Private_Decoder@TaoCrypt@@UEAAPEAXI@Z 00000001400b4450 f i taocrypt:dsa.obj
 0001:000b3450       ??_EDSA_Private_Decoder@TaoCrypt@@UEAAPEAXI@Z 00000001400b4450 f i taocrypt:dsa.obj
 0001:000b3480       ??_GDSA_Public_Decoder@TaoCrypt@@UEAAPEAXI@Z 00000001400b4480 f i taocrypt:dsa.obj
 0001:000b3480       ??_EDSA_Public_Decoder@TaoCrypt@@UEAAPEAXI@Z 00000001400b4480 f i taocrypt:dsa.obj
 0001:000b34b0       ??_1Integer@TaoCrypt@@QEAAAEAV01@AEBV01@@Z 00000001400b44b0 f i taocrypt:dsa.obj
 0001:000b3510       ??0DSA_PublicKey@TaoCrypt@@QEAA@AEBV01@@Z 00000001400b4510 f   taocrypt:dsa.obj
 0001:000b3560       ??4DSA_PublicKey@TaoCrypt@@QEAAAEAV01@AEBV01@@Z 00000001400b4560 f   taocrypt:dsa.obj
 0001:000b3630       ??0DSA_PublicKey@TaoCrypt@@QEAA@AEAVSource@1@@Z 00000001400b4630 f   taocrypt:dsa.obj
 0001:000b3680       ??0DSA_PrivateKey@TaoCrypt@@QEAA@AEAVSource@1@@Z 00000001400b4680 f   taocrypt:dsa.obj
 0001:000b36e0       ??0DSA_Signer@TaoCrypt@@QEAA@AEBVDSA_PrivateKey@1@@Z 00000001400b46e0 f   taocrypt:dsa.obj
 0001:000b3710       ?Sign@DSA_Signer@TaoCrypt@@QEAAIPEBEPEAEAEAVRandomNumberGenerator@2@@Z 00000001400b4710 f   taocrypt:dsa.obj
 0001:000b3aa0       ??0DSA_Verifier@TaoCrypt@@QEAA@AEBVDSA_PublicKey@1@@Z 00000001400b4aa0 f   taocrypt:dsa.obj
 0001:000b3ad0       ?Verify@DSA_Verifier@TaoCrypt@@QEAA_NPEBE0@Z 00000001400b4ad0 f   taocrypt:dsa.obj
 0001:000b3f20       ??0DH_Decoder@TaoCrypt@@QEAA@AEAVSource@1@@Z 00000001400b4f20 f i taocrypt:dh.obj
 0001:000b3f40       ??1DH_Decoder@TaoCrypt@@UEAA@XZ 00000001400b4f40 f i taocrypt:dh.obj
 0001:000b3f50       ?DiscreteLogWorkFactor@?A0xf29063f1@TaoCrypt@@YAII@Z 00000001400b4f50 f   taocrypt:dh.obj
 0001:000b3fd0       ?Initialize@DH@TaoCrypt@@QEAAXAEAVSource@2@@Z 00000001400b4fd0 f   taocrypt:dh.obj
 0001:000b4000       ??$min@VInteger@TaoCrypt@@@TaoCrypt@@YAAEBVInteger@0@AEBV10@0@Z 00000001400b5000 f i taocrypt:dh.obj
 0001:000b4030       ??_GDH_Decoder@TaoCrypt@@UEAAPEAXI@Z 00000001400b5030 f i taocrypt:dh.obj
 0001:000b4030       ??_EDH_Decoder@TaoCrypt@@UEAAPEAXI@Z 00000001400b5030 f i taocrypt:dh.obj
 0001:000b4060       ?GeneratePrivate@DH@TaoCrypt@@AEAAXAEAVRandomNumberGenerator@2@PEAE@Z 00000001400b5060 f   taocrypt:dh.obj
 0001:000b41c0       ?GeneratePublic@DH@TaoCrypt@@AEAAXPEBEPEAE@Z 00000001400b51c0 f   taocrypt:dh.obj
 0001:000b4280       ?Agree@DH@TaoCrypt@@QEAAXPEAEPEBE1I@Z 00000001400b5280 f   taocrypt:dh.obj
 0001:000b43a0       ??0DH@TaoCrypt@@QEAA@AEAVSource@1@@Z 00000001400b53a0 f   taocrypt:dh.obj
 0001:000b43e0       ?GenerateKeyPair@DH@TaoCrypt@@QEAAXAEAVRandomNumberGenerator@2@PEAE1@Z 00000001400b53e0 f   taocrypt:dh.obj
 0001:000b4420       ??0RSA_Private_Decoder@TaoCrypt@@QEAA@AEAVSource@1@@Z 00000001400b5420 f i taocrypt:rsa.obj
 0001:000b4440       ??1RSA_Private_Decoder@TaoCrypt@@UEAA@XZ 00000001400b5440 f i taocrypt:rsa.obj
 0001:000b4450       ??0RSA_Public_Decoder@TaoCrypt@@QEAA@AEAVSource@1@@Z 00000001400b5450 f i taocrypt:rsa.obj
 0001:000b4470       ??1RSA_Public_Decoder@TaoCrypt@@UEAA@XZ 00000001400b5470 f i taocrypt:rsa.obj
 0001:000b4480       ?Initialize@RSA_PublicKey@TaoCrypt@@QEAAXAEAVSource@2@@Z 00000001400b5480 f   taocrypt:rsa.obj
 0001:000b44b0       ?Initialize@RSA_PrivateKey@TaoCrypt@@QEAAXAEAVSource@2@@Z 00000001400b54b0 f   taocrypt:rsa.obj
 0001:000b44e0       ?Pad@RSA_BlockType2@TaoCrypt@@QEBAXPEBEIPEAEIAEAVRandomNumberGenerator@2@@Z 00000001400b54e0 f   taocrypt:rsa.obj
 0001:000b4590       ?Pad@RSA_BlockType1@TaoCrypt@@QEBAXPEBEIPEAEIAEAVRandomNumberGenerator@2@@Z 00000001400b5590 f   taocrypt:rsa.obj
 0001:000b4620       ??_ERSA_Private_Decoder@TaoCrypt@@UEAAPEAXI@Z 00000001400b5620 f i taocrypt:rsa.obj
 0001:000b4620       ??_GRSA_Private_Decoder@TaoCrypt@@UEAAPEAXI@Z 00000001400b5620 f i taocrypt:rsa.obj
 0001:000b4650       ??_ERSA_Public_Decoder@TaoCrypt@@UEAAPEAXI@Z 00000001400b5650 f i taocrypt:rsa.obj
 0001:000b4650       ??_GRSA_Public_Decoder@TaoCrypt@@UEAAPEAXI@Z 00000001400b5650 f i taocrypt:rsa.obj
 0001:000b4680       ?UnPad@RSA_BlockType2@TaoCrypt@@QEBAIPEBEIPEAE@Z 00000001400b5680 f   taocrypt:rsa.obj
 0001:000b4710       ?UnPad@RSA_BlockType1@TaoCrypt@@QEBAIPEBEIPEAE@Z 00000001400b5710 f   taocrypt:rsa.obj
 0001:000b47a0       ?ApplyFunction@RSA_PublicKey@TaoCrypt@@QEBA?AVInteger@2@AEBV32@@Z 00000001400b57a0 f   taocrypt:rsa.obj
 0001:000b47d0       ??0RSA_PublicKey@TaoCrypt@@QEAA@AEAVSource@1@@Z 00000001400b57d0 f   taocrypt:rsa.obj
 0001:000b4810       ?CalculateInverse@RSA_PrivateKey@TaoCrypt@@QEBA?AVInteger@2@AEAVRandomNumberGenerator@2@AEBV32@@Z 00000001400b5810 f   taocrypt:rsa.obj
 0001:000b4ae0       ??0RSA_PrivateKey@TaoCrypt@@QEAA@AEAVSource@1@@Z 00000001400b5ae0 f   taocrypt:rsa.obj
 0001:000b4b60       ?SSL_Decrypt@TaoCrypt@@YAIAEBVRSA_PublicKey@1@PEBEPEAE@Z 00000001400b5b60 f   taocrypt:rsa.obj
 0001:000b4cc0       ??0PKCS12_Decoder@TaoCrypt@@QEAA@AEAVSource@1@@Z 00000001400b5cc0 f i taocrypt:asn.obj
 0001:000b4ce0       ??1PKCS12_Decoder@TaoCrypt@@UEAA@XZ 00000001400b5ce0 f i taocrypt:asn.obj
 0001:000b4cf0       ?GetPublicKey@Signer@TaoCrypt@@QEBAAEBVPublicKey@2@XZ 00000001400b5cf0 f i taocrypt:asn.obj
 0001:000b4d00       ?GetHash@Signer@TaoCrypt@@QEBAPEBEXZ 00000001400b5d00 f i taocrypt:asn.obj
 0001:000b4d10       ??0DER_Encoder@TaoCrypt@@QEAA@XZ 00000001400b5d10 f i taocrypt:asn.obj
 0001:000b4d30       ??1DER_Encoder@TaoCrypt@@UEAA@XZ 00000001400b5d30 f i taocrypt:asn.obj
 0001:000b4d40       ??_GDER_Encoder@TaoCrypt@@UEAAPEAXI@Z 00000001400b5d40 f i taocrypt:asn.obj
 0001:000b4d40       ??_EDER_Encoder@TaoCrypt@@UEAAPEAXI@Z 00000001400b5d40 f i taocrypt:asn.obj
 0001:000b4d70       ?get_index@Source@TaoCrypt@@QEBAIXZ 00000001400b5d70 f i taocrypt:asn.obj
 0001:000b4d80       ?set_index@Source@TaoCrypt@@QEAAXI@Z 00000001400b5d80 f i taocrypt:asn.obj
 0001:000b4d90       ?advance@Source@TaoCrypt@@QEAAXI@Z 00000001400b5d90 f i taocrypt:asn.obj
 0001:000b4da0       ?GetError@Source@TaoCrypt@@QEAA?AUError@2@XZ 00000001400b5da0 f i taocrypt:asn.obj
 0001:000b4db0       ?SetModulus@RSA_PublicKey@TaoCrypt@@QEAAXAEBVInteger@2@@Z 00000001400b5db0 f i taocrypt:asn.obj
 0001:000b4dc0       ?SetPublicExponent@RSA_PublicKey@TaoCrypt@@QEAAXAEBVInteger@2@@Z 00000001400b5dc0 f i taocrypt:asn.obj
 0001:000b4dd0       ?SetPrime1@RSA_PrivateKey@TaoCrypt@@QEAAXAEBVInteger@2@@Z 00000001400b5dd0 f i taocrypt:asn.obj
 0001:000b4de0       ?SetPrime2@RSA_PrivateKey@TaoCrypt@@QEAAXAEBVInteger@2@@Z 00000001400b5de0 f i taocrypt:asn.obj
 0001:000b4df0       ?SetPrivateExponent@RSA_PrivateKey@TaoCrypt@@QEAAXAEBVInteger@2@@Z 00000001400b5df0 f i taocrypt:asn.obj
 0001:000b4e00       ?SetModPrime1PrivateExponent@RSA_PrivateKey@TaoCrypt@@QEAAXAEBVInteger@2@@Z 00000001400b5e00 f i taocrypt:asn.obj
 0001:000b4e10       ?SetModPrime2PrivateExponent@RSA_PrivateKey@TaoCrypt@@QEAAXAEBVInteger@2@@Z 00000001400b5e10 f i taocrypt:asn.obj
 0001:000b4e20       ?SetMultiplicativeInverseOfPrime2ModPrime1@RSA_PrivateKey@TaoCrypt@@QEAAXAEBVInteger@2@@Z 00000001400b5e20 f i taocrypt:asn.obj
 0001:000b4e50       ??O?A0x25d983aa@TaoCrypt@@YA_NAEAUtm@@0@Z 00000001400b5e50 f   taocrypt:asn.obj
 0001:000b4ed0       ??M?A0x25d983aa@TaoCrypt@@YA_NAEAUtm@@0@Z 00000001400b5ed0 f   taocrypt:asn.obj
 0001:000b4ef0       ?btoi@?A0x25d983aa@TaoCrypt@@YAIE@Z 00000001400b5ef0 f   taocrypt:asn.obj
 0001:000b4f00       ?GetTime@?A0x25d983aa@TaoCrypt@@YAXAEAHPEBE0@Z 00000001400b5f00 f   taocrypt:asn.obj
 0001:000b4f50       ?ValidateDate@?A0x25d983aa@TaoCrypt@@YA_NPEBEEW4DateType@CertDecoder@2@@Z 00000001400b5f50 f   taocrypt:asn.obj
 0001:000b50b0       ?SetLength@TaoCrypt@@YAIIPEAE@Z 00000001400b60b0 f   taocrypt:asn.obj
 0001:000b5140       ?SetSize@PublicKey@TaoCrypt@@QEAAXI@Z 00000001400b6140 f   taocrypt:asn.obj
 0001:000b5160       ?SetKey@PublicKey@TaoCrypt@@QEAAXPEBE@Z 00000001400b6160 f   taocrypt:asn.obj
 0001:000b5170       ?GetError@BER_Decoder@TaoCrypt@@QEAA?AUError@2@XZ 00000001400b6170 f   taocrypt:asn.obj
 0001:000b5180       ?GetInteger@BER_Decoder@TaoCrypt@@QEAAAEAVInteger@2@AEAV32@@Z 00000001400b6180 f   taocrypt:asn.obj
 0001:000b51b0       ??1Signature_Encoder@TaoCrypt@@UEAA@XZ 00000001400b61b0 f i taocrypt:asn.obj
 0001:000b51c0       ?SetDigest@Signature_Encoder@TaoCrypt@@AEAAIPEBEIPEAE@Z 00000001400b61c0 f   taocrypt:asn.obj
 0001:000b51f0       ?SetSequence@TaoCrypt@@YAIIPEAE@Z 00000001400b61f0 f   taocrypt:asn.obj
 0001:000b5210       ?EncodeDSA_Signature@TaoCrypt@@YAIAEBVInteger@1@0PEAE@Z 00000001400b6210 f   taocrypt:asn.obj
 0001:000b5350       ??A?$Block@EV?$AllocatorWithCleanup@E@TaoCrypt@@@TaoCrypt@@QEBAAEBEI@Z 00000001400b6350 f i taocrypt:asn.obj
 0001:000b5360       ??0?$auto_ptr@VHASH@TaoCrypt@@@mySTL@@QEAA@PEAVHASH@TaoCrypt@@@Z 00000001400b6360 f i taocrypt:asn.obj
 0001:000b5370       ??C?$auto_ptr@VHASH@TaoCrypt@@@mySTL@@QEBAPEAVHASH@TaoCrypt@@XZ 00000001400b6370 f i taocrypt:asn.obj
 0001:000b5380       ??$tcDelete@VHASH@TaoCrypt@@@TaoCrypt@@YAXPEAVHASH@0@@Z 00000001400b6380 f i taocrypt:asn.obj
 0001:000b53a0       ??_EPKCS12_Decoder@TaoCrypt@@UEAAPEAXI@Z 00000001400b63a0 f i taocrypt:asn.obj
 0001:000b53a0       ??_GPKCS12_Decoder@TaoCrypt@@UEAAPEAXI@Z 00000001400b63a0 f i taocrypt:asn.obj
 0001:000b53d0       ??1PublicKey@TaoCrypt@@QEAA@XZ 00000001400b63d0 f i taocrypt:asn.obj
 0001:000b53e0       ?get_current@Source@TaoCrypt@@QEBAPEBEXZ 00000001400b63e0 f i taocrypt:asn.obj
 0001:000b53f0       ?add@Source@TaoCrypt@@QEAAXPEBEI@Z 00000001400b63f0 f i taocrypt:asn.obj
 0001:000b5420       ?GetLength@TaoCrypt@@YAIAEAVSource@1@@Z 00000001400b6420 f   taocrypt:asn.obj
 0001:000b5480       ??0PublicKey@TaoCrypt@@QEAA@PEBEI@Z 00000001400b6480 f   taocrypt:asn.obj
 0001:000b54c0       ??0Signer@TaoCrypt@@QEAA@PEBEIPEBD0@Z 00000001400b64c0 f   taocrypt:asn.obj
 0001:000b5540       ??1Signer@TaoCrypt@@QEAA@XZ 00000001400b6540 f   taocrypt:asn.obj
 0001:000b5550       ?GetSequence@BER_Decoder@TaoCrypt@@QEAAIXZ 00000001400b6550 f   taocrypt:asn.obj
 0001:000b5590       ?GetSet@BER_Decoder@TaoCrypt@@QEAAIXZ 00000001400b6590 f   taocrypt:asn.obj
 0001:000b55d0       ?GetVersion@BER_Decoder@TaoCrypt@@QEAAIXZ 00000001400b65d0 f   taocrypt:asn.obj
 0001:000b5640       ?GetExplicitVersion@BER_Decoder@TaoCrypt@@QEAAIXZ 00000001400b6640 f   taocrypt:asn.obj
 0001:000b5680       ?ReadHeader@RSA_Private_Decoder@TaoCrypt@@EEAAXXZ 00000001400b6680 f   taocrypt:asn.obj
 0001:000b56a0       ?ReadHeader@DSA_Private_Decoder@TaoCrypt@@EEAAXXZ 00000001400b66a0 f   taocrypt:asn.obj
 0001:000b56c0       ?ReadHeader@RSA_Public_Decoder@TaoCrypt@@EEAAXXZ 00000001400b66c0 f   taocrypt:asn.obj
 0001:000b56d0       ?ReadHeader@DSA_Public_Decoder@TaoCrypt@@EEAAXXZ 00000001400b66d0 f   taocrypt:asn.obj
 0001:000b56e0       ?ReadHeader@DH_Decoder@TaoCrypt@@EEAAXXZ 00000001400b66e0 f   taocrypt:asn.obj
 0001:000b56f0       ??1CertDecoder@TaoCrypt@@UEAA@XZ 00000001400b66f0 f   taocrypt:asn.obj
 0001:000b5730       ?StoreKey@CertDecoder@TaoCrypt@@AEAAXXZ 00000001400b6730 f   taocrypt:asn.obj
 0001:000b57c0       ?GetAlgoId@CertDecoder@TaoCrypt@@AEAAIXZ 00000001400b67c0 f   taocrypt:asn.obj
 0001:000b58b0       ?GetSignature@CertDecoder@TaoCrypt@@AEAAIXZ 00000001400b68b0 f   taocrypt:asn.obj
 0001:000b5960       ?GetDigest@CertDecoder@TaoCrypt@@AEAAIXZ 00000001400b6960 f   taocrypt:asn.obj
 0001:000b59e0       ?AddTag@CertDecoder@TaoCrypt@@AEAAPEADPEADPEBD1II@Z 00000001400b69e0 f   taocrypt:asn.obj
 0001:000b5a60       ?GetName@CertDecoder@TaoCrypt@@AEAAXW4NameType@12@@Z 00000001400b6a60 f   taocrypt:asn.obj
 0001:000b5e60       ?GetDate@CertDecoder@TaoCrypt@@AEAAXW4DateType@12@@Z 00000001400b6e60 f   taocrypt:asn.obj
 0001:000b5fc0       ?GetValidity@CertDecoder@TaoCrypt@@AEAAXXZ 00000001400b6fc0 f   taocrypt:asn.obj
 0001:000b6000       ?SetAlgoID@DER_Encoder@TaoCrypt@@QEAAIW4HashType@2@PEAE@Z 00000001400b7000 f   taocrypt:asn.obj
 0001:000b6120       ?Decode@PKCS12_Decoder@TaoCrypt@@QEAAXXZ 00000001400b7120 f   taocrypt:asn.obj
 0001:000b61a0       ?ReadHeader@PKCS12_Decoder@TaoCrypt@@EEAAXXZ 00000001400b71a0 f   taocrypt:asn.obj
 0001:000b61c0       ?GetPKCS_Cert@TaoCrypt@@YAHPEBDAEAVSource@1@@Z 00000001400b71c0 f   taocrypt:asn.obj
 0001:000b61f0       ?Swap@?$Block@EV?$AllocatorWithCleanup@E@TaoCrypt@@@TaoCrypt@@QEAAXAEAV12@@Z 00000001400b71f0 f i taocrypt:asn.obj
 0001:000b6210       ?Destroy@?$auto_ptr@VHASH@TaoCrypt@@@mySTL@@AEAAXXZ 00000001400b7210 f i taocrypt:asn.obj
 0001:000b6220       ?Swap@Source@TaoCrypt@@QEAAXAEAV12@@Z 00000001400b7220 f i taocrypt:asn.obj
 0001:000b6250       ??_GCertDecoder@TaoCrypt@@UEAAPEAXI@Z 00000001400b7250 f i taocrypt:asn.obj
 0001:000b6250       ??_ECertDecoder@TaoCrypt@@UEAAPEAXI@Z 00000001400b7250 f i taocrypt:asn.obj
 0001:000b6280       ??1?$auto_ptr@VHASH@TaoCrypt@@@mySTL@@QEAA@XZ 00000001400b7280 f i taocrypt:asn.obj
 0001:000b6290       ?reset@?$auto_ptr@VHASH@TaoCrypt@@@mySTL@@QEAAXPEAVHASH@TaoCrypt@@@Z 00000001400b7290 f i taocrypt:asn.obj
 0001:000b62c0       ?AddToEnd@PublicKey@TaoCrypt@@QEAAXPEBEI@Z 00000001400b72c0 f   taocrypt:asn.obj
 0001:000b6340       ?Decode@RSA_Private_Decoder@TaoCrypt@@QEAAXAEAVRSA_PrivateKey@2@@Z 00000001400b7340 f   taocrypt:asn.obj
 0001:000b6590       ?Decode@DSA_Private_Decoder@TaoCrypt@@QEAAXAEAVDSA_PrivateKey@2@@Z 00000001400b7590 f   taocrypt:asn.obj
 0001:000b6710       ?Decode@RSA_Public_Decoder@TaoCrypt@@QEAAXAEAVRSA_PublicKey@2@@Z 00000001400b7710 f   taocrypt:asn.obj
 0001:000b67d0       ?Decode@DSA_Public_Decoder@TaoCrypt@@QEAAXAEAVDSA_PublicKey@2@@Z 00000001400b77d0 f   taocrypt:asn.obj
 0001:000b6910       ?Decode@DH_Decoder@TaoCrypt@@QEAAXAEAVDH@2@@Z 00000001400b7910 f   taocrypt:asn.obj
 0001:000b69d0       ?ReadHeader@CertDecoder@TaoCrypt@@EEAAXXZ 00000001400b79d0 f   taocrypt:asn.obj
 0001:000b6a50       ?AddDSA@CertDecoder@TaoCrypt@@AEAAXXZ 00000001400b7a50 f   taocrypt:asn.obj
 0001:000b6b30       ?EncodeDSA_Signature@TaoCrypt@@YAIPEBEPEAE@Z 00000001400b7b30 f   taocrypt:asn.obj
 0001:000b6bd0       ?DecodeDSA_Signature@TaoCrypt@@YAIPEAEPEBEI@Z 00000001400b7bd0 f   taocrypt:asn.obj
 0001:000b6dd0       ?GetCert@TaoCrypt@@YAHAEAVSource@1@@Z 00000001400b7dd0 f   taocrypt:asn.obj
 0001:000b6f40       ?CleanGrow@?$Block@EV?$AllocatorWithCleanup@E@TaoCrypt@@@TaoCrypt@@QEAAXI@Z 00000001400b7f40 f i taocrypt:asn.obj
 0001:000b6f90       ?grow@Source@TaoCrypt@@QEAAXI@Z 00000001400b7f90 f i taocrypt:asn.obj
 0001:000b6fe0       ?GetKey@CertDecoder@TaoCrypt@@AEAAXXZ 00000001400b7fe0 f   taocrypt:asn.obj
 0001:000b70a0       ??0Signature_Encoder@TaoCrypt@@QEAA@PEBEIW4HashType@1@AEAVSource@1@@Z 00000001400b80a0 f   taocrypt:asn.obj
 0001:000b71b0       ??_ESignature_Encoder@TaoCrypt@@UEAAPEAXI@Z 00000001400b81b0 f i taocrypt:asn.obj
 0001:000b71b0       ??_GSignature_Encoder@TaoCrypt@@UEAAPEAXI@Z 00000001400b81b0 f i taocrypt:asn.obj
 0001:000b71e0       ??0Source@TaoCrypt@@QEAA@I@Z 00000001400b81e0 f i taocrypt:asn.obj
 0001:000b7260       ?DecodeToKey@CertDecoder@TaoCrypt@@QEAAXXZ 00000001400b8260 f   taocrypt:asn.obj
 0001:000b72b0       ?ConfirmSignature@CertDecoder@TaoCrypt@@AEAA_NAEAVSource@2@@Z 00000001400b82b0 f   taocrypt:asn.obj
 0001:000b7690       ?ValidateSelfSignature@CertDecoder@TaoCrypt@@AEAA_NXZ 00000001400b8690 f   taocrypt:asn.obj
 0001:000b7720       ?ValidateSignature@CertDecoder@TaoCrypt@@AEAA_NPEAV?$list@PEAVSigner@TaoCrypt@@@mySTL@@@Z 00000001400b8720 f   taocrypt:asn.obj
 0001:000b7800       ?Decode@CertDecoder@TaoCrypt@@AEAAXPEAV?$list@PEAVSigner@TaoCrypt@@@mySTL@@W4CertType@12@@Z 00000001400b8800 f   taocrypt:asn.obj
 0001:000b78b0       ??0CertDecoder@TaoCrypt@@QEAA@AEAVSource@1@_NPEAV?$list@PEAVSigner@TaoCrypt@@@mySTL@@1W4CertType@01@@Z 00000001400b88b0 f   taocrypt:asn.obj
 0001:000b7940       ?GetCompareHash@CertDecoder@TaoCrypt@@AEAAXPEBEIPEAEI@Z 00000001400b8940 f   taocrypt:asn.obj
 0001:000b7a70       ??1FileSource@TaoCrypt@@QEAA@XZ 00000001400b8a70 f   taocrypt:file.obj
 0001:000b7a90       ?size@FileSource@TaoCrypt@@QEAAI_N@Z 00000001400b8a90 f   taocrypt:file.obj
 0001:000b7b10       ?size_left@FileSource@TaoCrypt@@AEAAIXZ 00000001400b8b10 f   taocrypt:file.obj
 0001:000b7b20       ??1FileSink@TaoCrypt@@QEAA@XZ 00000001400b8b20 f   taocrypt:file.obj
 0001:000b7b40       ?put@FileSink@TaoCrypt@@AEAAXAEAVSource@2@@Z 00000001400b8b40 f   taocrypt:file.obj
 0001:000b7b60       ??0FileSink@TaoCrypt@@QEAA@PEBDAEAVSource@1@@Z 00000001400b8b60 f   taocrypt:file.obj
 0001:000b7bb0       ?reset@Source@TaoCrypt@@QEAAXAEAV?$Block@EV?$AllocatorWithCleanup@E@TaoCrypt@@@2@@Z 00000001400b8bb0 f   taocrypt:file.obj
 0001:000b7be0       ?get@FileSource@TaoCrypt@@AEAAIAEAVSource@2@@Z 00000001400b8be0 f   taocrypt:file.obj
 0001:000b7c70       ??0FileSource@TaoCrypt@@QEAA@PEBDAEAVSource@1@@Z 00000001400b8c70 f   taocrypt:file.obj
 0001:000b7cc0       ?Double@AbstractGroup@TaoCrypt@@UEBAAEBVInteger@2@AEBV32@@Z 00000001400b8cc0 f   taocrypt:algebra.obj
 0001:000b7cd0       ?Accumulate@AbstractGroup@TaoCrypt@@UEBAAEAVInteger@2@AEAV32@AEBV32@@Z 00000001400b8cd0 f   taocrypt:algebra.obj
 0001:000b7cf0       ?Reduce@AbstractGroup@TaoCrypt@@UEBAAEAVInteger@2@AEAV32@AEBV32@@Z 00000001400b8cf0 f   taocrypt:algebra.obj
 0001:000b7d10       ?Square@AbstractRing@TaoCrypt@@UEBAAEBVInteger@2@AEBV32@@Z 00000001400b8d10 f   taocrypt:algebra.obj
 0001:000b7d20       ?FindNextWindow@WindowSlider@TaoCrypt@@QEAAXXZ 00000001400b8d20 f i taocrypt:algebra.obj
 0001:000b7e10       ?size@?$vector@VInteger@TaoCrypt@@@mySTL@@QEBA_KXZ 00000001400b8e10 f i taocrypt:algebra.obj
 0001:000b7e20       ??A?$vector@VInteger@TaoCrypt@@@mySTL@@QEAAAEAVInteger@TaoCrypt@@_K@Z 00000001400b8e20 f i taocrypt:algebra.obj
 0001:000b7e30       ??A?$vector@V?$vector@VInteger@TaoCrypt@@@mySTL@@@mySTL@@QEAAAEAV?$vector@VInteger@TaoCrypt@@@1@_K@Z 00000001400b8e30 f i taocrypt:algebra.obj
 0001:000b7e40       ??A?$vector@UWindowSlider@TaoCrypt@@@mySTL@@QEAAAEAUWindowSlider@TaoCrypt@@_K@Z 00000001400b8e40 f i taocrypt:algebra.obj
 0001:000b7e50       ?capacity@?$vector@UWindowSlider@TaoCrypt@@@mySTL@@QEBA_KXZ 00000001400b8e50 f i taocrypt:algebra.obj
 0001:000b7e80       ?size@?$vector@UWindowSlider@TaoCrypt@@@mySTL@@QEBA_KXZ 00000001400b8e80 f i taocrypt:algebra.obj
 0001:000b7eb0       ??0?$vector_base@UWindowSlider@TaoCrypt@@@mySTL@@QEAA@XZ 00000001400b8eb0 f i taocrypt:algebra.obj
 0001:000b7ed0       ??0?$vector_base@VInteger@TaoCrypt@@@mySTL@@QEAA@XZ 00000001400b8ed0 f i taocrypt:algebra.obj
 0001:000b7ef0       ??$GetArrayMemory@VInteger@TaoCrypt@@@mySTL@@YAPEAVInteger@TaoCrypt@@_K@Z 00000001400b8ef0 f i taocrypt:algebra.obj
 0001:000b7f00       ??$FreeArrayMemory@VInteger@TaoCrypt@@@mySTL@@YAXPEAVInteger@TaoCrypt@@@Z 00000001400b8f00 f i taocrypt:algebra.obj
 0001:000b7f10       ??$GetArrayMemory@V?$vector@VInteger@TaoCrypt@@@mySTL@@@mySTL@@YAPEAV?$vector@VInteger@TaoCrypt@@@0@_K@Z 00000001400b8f10 f i taocrypt:algebra.obj
 0001:000b7f20       ??$FreeArrayMemory@V?$vector@VInteger@TaoCrypt@@@mySTL@@@mySTL@@YAXPEAV?$vector@VInteger@TaoCrypt@@@0@@Z 00000001400b8f20 f i taocrypt:algebra.obj
 0001:000b7f30       ??$FreeArrayMemory@UWindowSlider@TaoCrypt@@@mySTL@@YAXPEAUWindowSlider@TaoCrypt@@@Z 00000001400b8f30 f i taocrypt:algebra.obj
 0001:000b7f40       ??$swap@PEAVInteger@TaoCrypt@@@mySTL@@YAXAEAPEAVInteger@TaoCrypt@@0@Z 00000001400b8f40 f i taocrypt:algebra.obj
 0001:000b7f50       ??$GetArrayMemory@UWindowSlider@TaoCrypt@@@mySTL@@YAPEAUWindowSlider@TaoCrypt@@_K@Z 00000001400b8f50 f i taocrypt:algebra.obj
 0001:000b7f60       ??$swap@PEAUWindowSlider@TaoCrypt@@@mySTL@@YAXAEAPEAUWindowSlider@TaoCrypt@@0@Z 00000001400b8f60 f i taocrypt:algebra.obj
 0001:000b7f70       ??$construct@VInteger@TaoCrypt@@V12@@mySTL@@YAXPEAVInteger@TaoCrypt@@AEBV12@@Z 00000001400b8f70 f i taocrypt:algebra.obj
 0001:000b7f90       ??0?$vector_base@VInteger@TaoCrypt@@@mySTL@@QEAA@_K@Z 00000001400b8f90 f i taocrypt:algebra.obj
 0001:000b7fd0       ??1?$vector_base@VInteger@TaoCrypt@@@mySTL@@QEAA@XZ 00000001400b8fd0 f i taocrypt:algebra.obj
 0001:000b7fe0       ??0?$vector_base@V?$vector@VInteger@TaoCrypt@@@mySTL@@@mySTL@@QEAA@_K@Z 00000001400b8fe0 f i taocrypt:algebra.obj
 0001:000b8020       ??1?$vector_base@V?$vector@VInteger@TaoCrypt@@@mySTL@@@mySTL@@QEAA@XZ 00000001400b9020 f i taocrypt:algebra.obj
 0001:000b8030       ??1?$vector_base@UWindowSlider@TaoCrypt@@@mySTL@@QEAA@XZ 00000001400b9030 f i taocrypt:algebra.obj
 0001:000b8040       ?Swap@?$vector_base@VInteger@TaoCrypt@@@mySTL@@QEAAXAEAU12@@Z 00000001400b9040 f i taocrypt:algebra.obj
 0001:000b8070       ??0?$vector_base@UWindowSlider@TaoCrypt@@@mySTL@@QEAA@_K@Z 00000001400b9070 f i taocrypt:algebra.obj
 0001:000b80b0       ?Swap@?$vector_base@UWindowSlider@TaoCrypt@@@mySTL@@QEAAXAEAU12@@Z 00000001400b90b0 f i taocrypt:algebra.obj
 0001:000b80e0       ??$uninit_fill_n@PEAVInteger@TaoCrypt@@_KV12@@mySTL@@YAPEAVInteger@TaoCrypt@@PEAV12@_KAEBV12@@Z 00000001400b90e0 f i taocrypt:algebra.obj
 0001:000b8130       ??$uninit_copy@PEAVInteger@TaoCrypt@@PEAV12@@mySTL@@YAPEAVInteger@TaoCrypt@@PEAV12@00@Z 00000001400b9130 f i taocrypt:algebra.obj
 0001:000b8180       ??0?$vector@VInteger@TaoCrypt@@@mySTL@@QEAA@AEBV01@@Z 00000001400b9180 f i taocrypt:algebra.obj
 0001:000b81e0       ??0?$vector@UWindowSlider@TaoCrypt@@@mySTL@@QEAA@XZ 00000001400b91e0 f i taocrypt:algebra.obj
 0001:000b8200       ??0?$vector@VInteger@TaoCrypt@@@mySTL@@QEAA@XZ 00000001400b9200 f i taocrypt:algebra.obj
 0001:000b8220       ?Swap@?$vector@VInteger@TaoCrypt@@@mySTL@@QEAAXAEAV12@@Z 00000001400b9220 f i taocrypt:algebra.obj
 0001:000b8250       ??0?$vector@VInteger@TaoCrypt@@@mySTL@@AEAA@_KAEBV01@@Z 00000001400b9250 f i taocrypt:algebra.obj
 0001:000b82e0       ?Swap@?$vector@UWindowSlider@TaoCrypt@@@mySTL@@QEAAXAEAV12@@Z 00000001400b92e0 f i taocrypt:algebra.obj
 0001:000b8310       ??$construct@V?$vector@VInteger@TaoCrypt@@@mySTL@@V12@@mySTL@@YAXPEAV?$vector@VInteger@TaoCrypt@@@0@AEBV10@@Z 00000001400b9310 f i taocrypt:algebra.obj
 0001:000b8380       ?Subtract@AbstractGroup@TaoCrypt@@UEBAAEBVInteger@2@AEBV32@0@Z 00000001400b9380 f   taocrypt:algebra.obj
 0001:000b83f0       ?Divide@AbstractRing@TaoCrypt@@UEBAAEBVInteger@2@AEBV32@0@Z 00000001400b93f0 f   taocrypt:algebra.obj
 0001:000b8470       ?Mod@AbstractEuclideanDomain@TaoCrypt@@UEBAAEBVInteger@2@AEBV32@0@Z 00000001400b9470 f   taocrypt:algebra.obj
 0001:000b84f0       ?ScalarMultiply@AbstractGroup@TaoCrypt@@UEBA?AVInteger@2@AEBV32@0@Z 00000001400b94f0 f   taocrypt:algebra.obj
 0001:000b8550       ??0WindowSlider@TaoCrypt@@QEAA@AEBVInteger@1@_NI@Z 00000001400b9550 f i taocrypt:algebra.obj
 0001:000b8620       ??1WindowSlider@TaoCrypt@@QEAA@XZ 00000001400b9620 f i taocrypt:algebra.obj
 0001:000b8680       ?Exponentiate@AbstractRing@TaoCrypt@@UEBA?AVInteger@2@AEBV32@0@Z 00000001400b9680 f   taocrypt:algebra.obj
 0001:000b86e0       ??0?$vector@VInteger@TaoCrypt@@@mySTL@@QEAA@_K@Z 00000001400b96e0 f i taocrypt:algebra.obj
 0001:000b8760       ??$uninit_fill_n@PEAV?$vector@VInteger@TaoCrypt@@@mySTL@@_KV12@@mySTL@@YAPEAV?$vector@VInteger@TaoCrypt@@@0@PEAV10@_KAEBV10@@Z 00000001400b9760 f i taocrypt:algebra.obj
 0001:000b87f0       ??0WindowSlider@TaoCrypt@@QEAA@AEBU01@@Z 00000001400b97f0 f i taocrypt:algebra.obj
 0001:000b8850       ??_GWindowSlider@TaoCrypt@@QEAAPEAXI@Z 00000001400b9850 f i taocrypt:algebra.obj
 0001:000b88c0       ??$construct@UWindowSlider@TaoCrypt@@U12@@mySTL@@YAXPEAUWindowSlider@TaoCrypt@@AEBU12@@Z 00000001400b98c0 f i taocrypt:algebra.obj
 0001:000b8930       ??$uninit_copy@PEAUWindowSlider@TaoCrypt@@PEAU12@@mySTL@@YAPEAUWindowSlider@TaoCrypt@@PEAU12@00@Z 00000001400b9930 f i taocrypt:algebra.obj
 0001:000b89c0       ??$destroy@VInteger@TaoCrypt@@@mySTL@@YAXPEAVInteger@TaoCrypt@@@Z 00000001400b99c0 f i taocrypt:algebra.obj
 0001:000b89f0       ??$destroy@UWindowSlider@TaoCrypt@@@mySTL@@YAXPEAUWindowSlider@TaoCrypt@@@Z 00000001400b99f0 f i taocrypt:algebra.obj
 0001:000b8a50       ??0?$vector@UWindowSlider@TaoCrypt@@@mySTL@@AEAA@_KAEBV01@@Z 00000001400b9a50 f i taocrypt:algebra.obj
 0001:000b8af0       ??$destroy@PEAVInteger@TaoCrypt@@@mySTL@@YAXPEAVInteger@TaoCrypt@@0@Z 00000001400b9af0 f i taocrypt:algebra.obj
 0001:000b8b50       ??$destroy@PEAUWindowSlider@TaoCrypt@@@mySTL@@YAXPEAUWindowSlider@TaoCrypt@@0@Z 00000001400b9b50 f i taocrypt:algebra.obj
 0001:000b8bd0       ??1?$vector@VInteger@TaoCrypt@@@mySTL@@QEAA@XZ 00000001400b9bd0 f i taocrypt:algebra.obj
 0001:000b8c00       ?resize@?$vector@VInteger@TaoCrypt@@@mySTL@@QEAAX_KAEBVInteger@TaoCrypt@@@Z 00000001400b9c00 f i taocrypt:algebra.obj
 0001:000b8d20       ??0?$vector@V?$vector@VInteger@TaoCrypt@@@mySTL@@@mySTL@@QEAA@_K@Z 00000001400b9d20 f i taocrypt:algebra.obj
 0001:000b8d90       ??1?$vector@UWindowSlider@TaoCrypt@@@mySTL@@QEAA@XZ 00000001400b9d90 f i taocrypt:algebra.obj
 0001:000b8dc0       ?push_back@?$vector@UWindowSlider@TaoCrypt@@@mySTL@@QEAAXAEBUWindowSlider@TaoCrypt@@@Z 00000001400b9dc0 f i taocrypt:algebra.obj
 0001:000b8f50       ?reserve@?$vector@UWindowSlider@TaoCrypt@@@mySTL@@QEAAX_K@Z 00000001400b9f50 f i taocrypt:algebra.obj
 0001:000b9040       ??_G?$vector@VInteger@TaoCrypt@@@mySTL@@QEAAPEAXI@Z 00000001400ba040 f i taocrypt:algebra.obj
 0001:000b9080       ?Gcd@AbstractEuclideanDomain@TaoCrypt@@UEBAAEBVInteger@2@AEBV32@0@Z 00000001400ba080 f   taocrypt:algebra.obj
 0001:000b91e0       ?CascadeScalarMultiply@AbstractGroup@TaoCrypt@@UEBA?AVInteger@2@AEBV32@000@Z 00000001400ba1e0 f   taocrypt:algebra.obj
 0001:000b96c0       ?CascadeExponentiate@AbstractRing@TaoCrypt@@UEBA?AVInteger@2@AEBV32@000@Z 00000001400ba6c0 f   taocrypt:algebra.obj
 0001:000b9720       ??$destroy@V?$vector@VInteger@TaoCrypt@@@mySTL@@@mySTL@@YAXPEAV?$vector@VInteger@TaoCrypt@@@0@@Z 00000001400ba720 f i taocrypt:algebra.obj
 0001:000b9750       ??$destroy@PEAV?$vector@VInteger@TaoCrypt@@@mySTL@@@mySTL@@YAXPEAV?$vector@VInteger@TaoCrypt@@@0@0@Z 00000001400ba750 f i taocrypt:algebra.obj
 0001:000b97a0       ??1?$vector@V?$vector@VInteger@TaoCrypt@@@mySTL@@@mySTL@@QEAA@XZ 00000001400ba7a0 f i taocrypt:algebra.obj
 0001:000b97d0       ?SimultaneousMultiply@AbstractGroup@TaoCrypt@@UEBAXPEAVInteger@2@AEBV32@PEBV32@I@Z 00000001400ba7d0 f   taocrypt:algebra.obj
 0001:000b9f60       ?SimultaneousExponentiate@AbstractRing@TaoCrypt@@UEBAXPEAVInteger@2@AEBV32@PEBV32@I@Z 00000001400baf60 f   taocrypt:algebra.obj
 0001:000b9fb0       ?Init@MD2@TaoCrypt@@UEAAXXZ 00000001400bafb0 f   taocrypt:md2.obj
 0001:000b9ff0       ?Update@MD2@TaoCrypt@@UEAAXPEBEI@Z 00000001400baff0 f   taocrypt:md2.obj
 0001:000ba1d0       ?Final@MD2@TaoCrypt@@UEAAXPEAE@Z 00000001400bb1d0 f   taocrypt:md2.obj
 0001:000ba270       ??0MD2@TaoCrypt@@QEAA@XZ   00000001400bb270 f   taocrypt:md2.obj
 0001:000ba380       ?getBlockSize@MD2@TaoCrypt@@UEBAIXZ 00000001400bb380 f i taocrypt:md2.obj
 0001:000ba390       ?getDigestSize@MD2@TaoCrypt@@UEBAIXZ 00000001400bb390 f i taocrypt:md2.obj
 0001:000ba3a0       ??1MD2@TaoCrypt@@UEAA@XZ   00000001400bb3a0 f i taocrypt:md2.obj
 0001:000ba410       ??_EMD2@TaoCrypt@@UEAAPEAXI@Z 00000001400bb410 f i taocrypt:md2.obj
 0001:000ba410       ??_GMD2@TaoCrypt@@UEAAPEAXI@Z 00000001400bb410 f i taocrypt:md2.obj
 0001:000ba49e       inet_ntoa                  00000001400bb49e f   wsock32:WSOCK32.dll
 0001:000ba4b0       remove                     00000001400bb4b0 f   LIBCMT:unlink.obj
 0001:000ba4e0       unlink                     00000001400bb4e0 f   LIBCMT:unlink.obj
 0001:000ba4e0       _unlink                    00000001400bb4e0 f   LIBCMT:unlink.obj
 0001:000ba510       fdopen                     00000001400bb510 f   LIBCMT:fdopen.obj
 0001:000ba510       _fdopen                    00000001400bb510 f   LIBCMT:fdopen.obj
 0001:000bab80       _putenv                    00000001400bbb80 f   LIBCMT:putenv.obj
 0001:000bab80       putenv                     00000001400bbb80 f   LIBCMT:putenv.obj
 0001:000babe0       _putenv_s                  00000001400bbbe0 f   LIBCMT:putenv.obj
 0001:000bac90       _chdir                     00000001400bbc90 f   LIBCMT:chdir.obj
 0001:000bac90       chdir                      00000001400bbc90 f   LIBCMT:chdir.obj
 0001:000bade0       log                        00000001400bbde0 f   LIBCMT:log.obj
 0001:000bb0f0       pow                        00000001400bc0f0 f   LIBCMT:pow.obj
 0001:000bb6da       __clear_x87_state          00000001400bc6da f   LIBCMT:pow.obj
 0001:000bb6e0       _invoke_watson_if_oneof    00000001400bc6e0 f i LIBCMT:wassert.obj
 0001:000bb760       _wassert                   00000001400bc760 f   LIBCMT:wassert.obj
 0001:000bc350       __crtwsetenv               00000001400bd350 f   LIBCMT:wsetenv.obj
 0001:000bc840       _mbctoupper_l              00000001400bd840 f   LIBCMT:mbtoupr.obj
 0001:000bca00       _mbctoupper                00000001400bda00 f   LIBCMT:mbtoupr.obj
 0001:000bca10       __pow_error                00000001400bda10 f   LIBCMT:pow_error.obj
 0001:000bcd50       _vswprintf_helper          00000001400bdd50 f   LIBCMT:vswprnc.obj
 0001:000bcea0       _vswprintf_c               00000001400bdea0 f   LIBCMT:vswprnc.obj
 0001:000bcee0       _vswprintf_c_l             00000001400bdee0 f   LIBCMT:vswprnc.obj
 0001:000bcf20       _vswprintf_s_l             00000001400bdf20 f   LIBCMT:vswprnc.obj
 0001:000bcfb0       vswprintf_s                00000001400bdfb0 f   LIBCMT:vswprnc.obj
 0001:000bd040       _vsnwprintf_s_l            00000001400be040 f   LIBCMT:vswprnc.obj
 0001:000bd1b0       _vsnwprintf_s              00000001400be1b0 f   LIBCMT:vswprnc.obj
 0001:000bd1e0       _vswprintf_p               00000001400be1e0 f   LIBCMT:vswprnc.obj
 0001:000bd220       _vswprintf_p_l             00000001400be220 f   LIBCMT:vswprnc.obj
 0001:000bd260       fwprintf                   00000001400be260 f   LIBCMT:fwprintf.obj
 0001:000bd350       _fwprintf_l                00000001400be350 f   LIBCMT:fwprintf.obj
 0001:000bd370       _fwprintf_s_l              00000001400be370 f   LIBCMT:fwprintf.obj
 0001:000bd390       fwprintf_s                 00000001400be390 f   LIBCMT:fwprintf.obj
 0001:000bd3c0       _fwprintf_p_l              00000001400be3c0 f   LIBCMT:fwprintf.obj
 0001:000bd3e0       _fwprintf_p                00000001400be3e0 f   LIBCMT:fwprintf.obj
 0001:000bd410       __crtMessageBoxW           00000001400be410 f   LIBCMT:crtmboxw.obj
 0001:000bd7c0       _itow_s                    00000001400be7c0 f   LIBCMT:xtows.obj
 0001:000bd8f0       _ltow_s                    00000001400be8f0 f   LIBCMT:xtows.obj
 0001:000bd930       _ultow_s                   00000001400be930 f   LIBCMT:xtows.obj
 0001:000bdb90       _i64tow_s                  00000001400beb90 f   LIBCMT:xtows.obj
 0001:000bdbd0       _ui64tow_s                 00000001400bebd0 f   LIBCMT:xtows.obj
 0001:000bdcf0       wcsncat_s                  00000001400becf0 f   LIBCMT:wcsncat_s.obj
 0001:000bde30       wcsncpy_s                  00000001400bee30 f   LIBCMT:wcsncpy_s.obj
 0001:000bdf50       wcscat_s                   00000001400bef50 f   LIBCMT:wcscat_s.obj
 0001:000be020       wcscpy_s                   00000001400bf020 f   LIBCMT:wcscpy_s.obj
 0001:000be0d0       _assert                    00000001400bf0d0 f   LIBCMT:assert.obj
 0001:000be950       _wcstombs_l_helper         00000001400bf950 f   LIBCMT:wcstombs.obj
 0001:000bed50       _wcstombs_l                00000001400bfd50 f   LIBCMT:wcstombs.obj
 0001:000bed60       wcstombs                   00000001400bfd60 f   LIBCMT:wcstombs.obj
 0001:000bed70       _wcstombs_s_l              00000001400bfd70 f   LIBCMT:wcstombs.obj
 0001:000bee80       wcstombs_s                 00000001400bfe80 f   LIBCMT:wcstombs.obj
 0001:000beeb0       _wcsnicoll_l               00000001400bfeb0 f   LIBCMT:wcsnicol.obj
 0001:000bf020       _wcsnicoll                 00000001400c0020 f   LIBCMT:wcsnicol.obj
 0001:000bf0d0       _wcsdup                    00000001400c00d0 f   LIBCMT:wcsdup.obj
 0001:000bf170       __mbtow_environ            00000001400c0170 f   LIBCMT:mbtowenv.obj
 0001:000bf270       _wsetenvp                  00000001400c0270 f   LIBCMT:wstdenvp.obj
 0001:000bf3e0       __crtGetEnvironmentStringsW 00000001400c03e0 f   LIBCMT:w_env.obj
 0001:000bf5e0       wcschr                     00000001400c05e0 f   LIBCMT:wcschr.obj
 0001:000bf790       _woutput_l                 00000001400c0790 f   LIBCMT:woutput.obj
 0001:000c0850       _woutput_s_l               00000001400c1850 f   LIBCMT:woutputs.obj
 0001:000c1810       _validate_param_reuseW     00000001400c2810 f   LIBCMT:woutputp.obj
 0001:000c1b20       _woutput_p_l               00000001400c2b20 f   LIBCMT:woutputp.obj
 0001:000c3810       vfwprintf_helper           00000001400c4810 f   LIBCMT:vfwprint.obj
 0001:000c3910       _vfwprintf_l               00000001400c4910 f   LIBCMT:vfwprint.obj
 0001:000c3940       _vfwprintf_s_l             00000001400c4940 f   LIBCMT:vfwprint.obj
 0001:000c3970       _vfwprintf_p_l             00000001400c4970 f   LIBCMT:vfwprint.obj
 0001:000c39a0       vfwprintf                  00000001400c49a0 f   LIBCMT:vfwprint.obj
 0001:000c39d0       vfwprintf_s                00000001400c49d0 f   LIBCMT:vfwprint.obj
 0001:000c3a00       _vfwprintf_p               00000001400c4a00 f   LIBCMT:vfwprint.obj
 0001:000c3a30       _mbsnbcat_s                00000001400c4a30 f   LIBCMT:mbsnbcat_s.obj
 0001:000c3a50       _mbsnbcpy_s                00000001400c4a50 f   LIBCMT:mbsnbcpy_s.obj
 0001:000c3e20       __crtCompareStringW        00000001400c4e20 f   LIBCMT:w_cmp.obj
 0001:000c3f70       _fputwc_nolock             00000001400c4f70 f   LIBCMT:fputwc.obj
 0001:000c41e0       fputwc                     00000001400c51e0 f   LIBCMT:fputwc.obj
 0001:000c4280       putwc                      00000001400c5280 f   LIBCMT:fputwc.obj
 0001:000c4600       wcstol                     00000001400c5600 f   LIBCMT:wcstol.obj
 0001:000c4640       _wcstol_l                  00000001400c5640 f   LIBCMT:wcstol.obj
 0001:000c4670       wcstoul                    00000001400c5670 f   LIBCMT:wcstol.obj
 0001:000c46b0       _wcstoul_l                 00000001400c56b0 f   LIBCMT:wcstol.obj
 0001:000c46e0       _mbsnbcat_s_l              00000001400c56e0 f   LIBCMT:mbsnbcat_s_l.obj
 0001:000c4b40       _mbsnbcpy_s_l              00000001400c5b40 f   LIBCMT:mbsnbcpy_s_l.obj
 0001:000c4ee0       _flswbuf                   00000001400c5ee0 f   LIBCMT:_flswbuf.obj
 0001:000c50a0       _wchartodigit              00000001400c60a0 f   LIBCMT:wchtodig.obj
 0001:000c5280       strncat_s                  00000001400c6280 f   LIBCMT:strncat_s.obj
 0001:000c53a4       DebugBreak                 00000001400c63a4 f   kernel32:KERNEL32.dll
 0001:000c53aa       GetModuleFileNameW         00000001400c63aa f   kernel32:KERNEL32.dll
 0001:000c53b0       SetEnvironmentVariableW    00000001400c63b0 f   kernel32:KERNEL32.dll
 0001:000c53b6       LoadLibraryW               00000001400c63b6 f   kernel32:KERNEL32.dll
 0001:000c53bc       CryptAcquireContextA       00000001400c63bc f   advapi32:ADVAPI32.dll
 0001:000c53c2       CryptReleaseContext        00000001400c63c2 f   advapi32:ADVAPI32.dll
 0001:000c53c8       CryptGenRandom             00000001400c63c8 f   advapi32:ADVAPI32.dll
 0001:000f1e60       _frnd                      00000001400f2e60 f   LIBCMT:fpsr.obj
 0001:000f2ea0       __chkstk                   00000001400f3ea0 f   LIBCMT:chkstk.obj
 0001:000f2ea0       _alloca_probe              00000001400f3ea0     LIBCMT:chkstk.obj
 0001:000f2f00       _get_fpsr                  00000001400f3f00 f   LIBCMT:fpsr.obj
 0002:00000000       __xc_a                     00000001400f6000     LIBCMT:crt0init.obj
 0002:00000110       __xc_z                     00000001400f6110     LIBCMT:crt0init.obj
 0002:00000220       __xi_a                     00000001400f6220     LIBCMT:crt0init.obj
 0002:00000560       __xi_z                     00000001400f6560     LIBCMT:crt0init.obj
 0002:00000670       __xl_a                     00000001400f6670     LIBCMT:tlssup.obj
 0002:00000678       __xl_z                     00000001400f6678     LIBCMT:tlssup.obj
 0002:00000680       __xp_a                     00000001400f6680     LIBCMT:crt0init.obj
 0002:000009b0       __xp_z                     00000001400f69b0     LIBCMT:crt0init.obj
 0002:00000ac0       __xt_a                     00000001400f6ac0     LIBCMT:crt0init.obj
 0002:00000bd0       __xt_z                     00000001400f6bd0     LIBCMT:crt0init.obj
 0002:00000d00       ??_C@_0P@GHFPNOJB@bad?5allocation?$AA@ 00000001400f6d00     buffer.obj
 0002:00000d14       ?BUFFER_INITIAL_SIZE@Buffer@@0IB 00000001400f6d14     buffer.obj
 0002:00000d18       ?MAX_BUFFER_SIZE@Buffer@@0IB 00000001400f6d18     buffer.obj
 0002:00000d20       __real@43e0000000000000    00000001400f6d20     buffer.obj
 0002:00000d30       __real@3ff8000000000000    00000001400f6d30     buffer.obj
 0002:00000d40       __real@43f0000000000000    00000001400f6d40     buffer.obj
 0002:00000d58       ??_7Command@@6B@           00000001400f6d58     command.obj
 0002:00000d80       ??_C@_05HDBKIDE@state?$AA@ 00000001400f6d80     commands.obj
 0002:00000d88       ??_C@_0O@MIFOIHFB@instance_name?$AA@ 00000001400f6d88     commands.obj
 0002:00000da0       ??_7Instance_cmd@@6B@      00000001400f6da0     commands.obj
 0002:00000dc0       ??_7Abstract_instance_cmd@@6B@ 00000001400f6dc0     commands.obj
 0002:00000df0       ??_7Show_instance_status@@6B@ 00000001400f6df0     commands.obj
 0002:00000e18       ??_C@_0BC@OPJMMHIK@mysqld_compatible?$AA@ 00000001400f6e18     commands.obj
 0002:00000e30       ??_C@_0P@LNKEPANE@version_number?$AA@ 00000001400f6e30     commands.obj
 0002:00000e48       ??_C@_07CPCPJPKL@version?$AA@ 00000001400f6e48     commands.obj
 0002:00000e58       ??_C@_07CIFAGBMG@unknown?$AA@ 00000001400f6e58     commands.obj
 0002:00000e64       ??_C@_03ICICOMAL@yes?$AA@  00000001400f6e64     commands.obj
 0002:00000e68       ??_C@_02KAJCLHKP@no?$AA@   00000001400f6e68     commands.obj
 0002:00000e78       ??_7Show_instance_options@@6B@ 00000001400f6e78     commands.obj
 0002:00000ea0       ??_C@_05MFEJDJP@value?$AA@ 00000001400f6ea0     commands.obj
 0002:00000ea8       ??_C@_0M@PNCLCLFB@option_name?$AA@ 00000001400f6ea8     commands.obj
 0002:00000eb6       ??_C@_00CNPNBAHC@?$AA@     00000001400f6eb6     commands.obj
 0002:00000ec0       ??_7Start_instance@@6B@    00000001400f6ec0     commands.obj
 0002:00000ee8       ??_C@_0BB@EIFMIEBH@Instance?5started?$AA@ 00000001400f6ee8     commands.obj
 0002:00000f08       ??_7Stop_instance@@6B@     00000001400f6f08     commands.obj
 0002:00000f38       ??_7Create_instance@@6B@   00000001400f6f38     commands.obj
 0002:00000f58       ??_7Drop_instance@@6B@     00000001400f6f58     commands.obj
 0002:00000f70       ??_C@_0BB@JCFKCMFI@Instance?5dropped?$AA@ 00000001400f6f70     commands.obj
 0002:00000f90       ??_C@_0EP@PLHCCCFH@Can?5not?5remove?5instance?5?8?$CFs?8?5fro@ 00000001400f6f90     commands.obj
 0002:00000ff8       ??_7Show_instance_log@@6B@ 00000001400f6ff8     commands.obj
 0002:00001020       ??_C@_03GGEOLGBL@Log?$AA@  00000001400f7020     commands.obj
 0002:00001030       ??_7Show_instance_log_files@@6B@ 00000001400f7030     commands.obj
 0002:00001058       ??_C@_09JPMHFEOD@File?5size?$AA@ 00000001400f7058     commands.obj
 0002:00001064       ??_C@_04HMIIHGGM@Path?$AA@ 00000001400f7064     commands.obj
 0002:00001070       ??_C@_07IFPLGDBI@Logfile?$AA@ 00000001400f7070     commands.obj
 0002:0000107c       ??_C@_01GBGANLPD@0?$AA@    00000001400f707c     commands.obj
 0002:00001080       ??_C@_08FLCOKHCB@SLOW?5LOG?$AA@ 00000001400f7080     commands.obj
 0002:00001090       ??_C@_0M@CKKADIMG@GENERAL?5LOG?$AA@ 00000001400f7090     commands.obj
 0002:000010a0       ??_C@_09ILJLBPE@ERROR?5LOG?$AA@ 00000001400f70a0     commands.obj
 0002:000010b8       ??_7Abstract_option_cmd@@6B@ 00000001400f70b8     commands.obj
 0002:000010e0       ??_C@_0EL@PIIKGIKP@Can?5not?5modify?5option?5?$CI?$CFs?$CJ?5in?5de@ 00000001400f70e0     commands.obj
 0002:00001140       ??_C@_0FI@JJBPOGGF@IM?9option?5?$CI?$CFs?$CJ?5can?5not?5be?5used?5i@ 00000001400f7140     commands.obj
 0002:000011b8       ??_7Thread@@6B@            00000001400f71b8     guardian.obj
 0002:000011d8       ??_7Guardian@@6B@          00000001400f71d8     guardian.obj
 0002:000011f0       ??_C@_0EC@CLDPELEC@Guardian?3?5can?5not?5start?5?8?$CFs?8?4?5Ab@ 00000001400f71f0     guardian.obj
 0002:00001240       ??_C@_0BN@IMGFCJPE@Guardian?3?5restarting?5?8?$CFs?8?4?4?4?$AA@ 00000001400f7240     guardian.obj
 0002:00001268       ??_C@_0BL@EJNFPJD@Guardian?3?5starting?5?8?$CFs?8?4?4?4?$AA@ 00000001400f7268     guardian.obj
 0002:00001288       ??_C@_0DB@OHKMODAF@Guardian?3?5?8?$CFs?8?5is?5running?0?5set?5s@ 00000001400f7288     guardian.obj
 0002:000012c8       ??_C@_0DD@DICFGDLN@Guardian?3?5waiting?5for?5?8?$CFs?8?5to?5st@ 00000001400f72c8     guardian.obj
 0002:00001308       ??_C@_0CH@GBMAPFMH@Guardian?3?5pretend?5that?5?8?$CFs?8?5is?5k@ 00000001400f7308     guardian.obj
 0002:00001338       ??_C@_0CO@NHFJHJAE@Guardian?3?5?8?$CFs?8?5hasn?8t?5stopped?5wi@ 00000001400f7338     guardian.obj
 0002:00001370       ??_C@_0BI@LPKFLOPI@Guardian?3?5?8?$CFs?8?5stopped?4?$AA@ 00000001400f7370     guardian.obj
 0002:00001390       ??_C@_0BE@FBJMCIE@Guardian?3?5finished?4?$AA@ 00000001400f7390     guardian.obj
 0002:000013a8       ??_C@_0BD@PIJKIOJO@Guardian?3?5stopped?4?$AA@ 00000001400f73a8     guardian.obj
 0002:000013c0       ??_C@_0CH@FBNFGIEG@Guardian?3?5all?5guarded?5mysqlds?5st@ 00000001400f73c0     guardian.obj
 0002:000013f0       ??_C@_0BD@BAONPCAI@Guardian?3?5started?4?$AA@ 00000001400f73f0     guardian.obj
 0002:00001408       ??_C@_06IJHCJAKM@mysqld?$AA@ 00000001400f7408     instance.obj
 0002:00001410       ?DFLT_INSTANCE_NAME@Instance@@2Ust_mysql_lex_string@@B 00000001400f7410     instance.obj
 0002:00001424       ??_C@_02KOPDJAMB@?$CC?5?$AA@ 00000001400f7424     instance.obj
 0002:00001428       ??_C@_01BJJEKLCA@?$CC?$AA@ 00000001400f7428     instance.obj
 0002:00001430       ??_C@_0M@LPAKIOHO@ExitProcess?$AA@ 00000001400f7430     instance.obj
 0002:00001440       ??_C@_08HPEMMIEC@Kernel32?$AA@ 00000001400f7440     instance.obj
 0002:00001458       ??_7Instance_monitor@@6B@  00000001400f7458     instance.obj
 0002:00001470       ??_C@_08FJBHPJOK@stopping?$AA@ 00000001400f7470     instance.obj
 0002:00001480       ??_C@_09ILHOEMPA@abandoned?$AA@ 00000001400f7480     instance.obj
 0002:00001490       ??_C@_07HDILHIKI@crashed?$AA@ 00000001400f7490     instance.obj
 0002:0000149c       ??_C@_06ODACHPEO@failed?$AA@ 00000001400f749c     instance.obj
 0002:000014a4       ??_C@_06GNLMCJKK@online?$AA@ 00000001400f74a4     instance.obj
 0002:000014b0       ??_C@_08LBGAIFHM@starting?$AA@ 00000001400f74b0     instance.obj
 0002:000014c0       ??_C@_0M@CKKENOIB@not?5started?$AA@ 00000001400f74c0     instance.obj
 0002:000014d0       ??_C@_07OFPCFMBE@offline?$AA@ 00000001400f74d0     instance.obj
 0002:000014e0       ??_C@_0BN@LLJOCMEH@Instance?5?8?$CFs?8?3?5destroying?4?4?4?$AA@ 00000001400f74e0     instance.obj
 0002:00001508       ??_C@_0CM@DPCAKKPD@Instance?5?8?$CFs?8?3?5was?5able?5to?5log?5i@ 00000001400f7508     instance.obj
 0002:00001540       ??_C@_09IPAEKDAI@localhost?$AA@ 00000001400f7540     instance.obj
 0002:00001550       ??_C@_0BB@GHJAIMGF@check_connection?$AA@ 00000001400f7550     instance.obj
 0002:00001568       ??_C@_0BH@JBEJIMON@MySQL_Instance_Manager?$AA@ 00000001400f7568     instance.obj
 0002:00001588       ??_C@_0BH@KOCPJDOG@Access?5denied?5for?5user?$AA@ 00000001400f7588     instance.obj
 0002:000015a8       ??_C@_0BH@BODLLCCJ@Instance?5?8?$CFs?8?3?5killed?4?$AA@ 00000001400f75a8     instance.obj
 0002:000015c8       ??_C@_0BO@NFBHCDDC@Instance?5?8?$CFs?8?3?5kill?$CI?$CJ?5failed?4?$AA@ 00000001400f75c8     instance.obj
 0002:000015f0       ??_C@_0CD@JCNDMOGD@Instance?5?8?$CFs?8?3?5sending?5?$CFd?5to?5?$CFd?4@ 00000001400f75f0     instance.obj
 0002:00001620       ??_C@_0DC@GDKOGIBB@Instance?5?8?$CFs?8?3?5no?5pid?5file?5to?5se@ 00000001400f7620     instance.obj
 0002:00001660       ??_C@_0CI@JALABLCD@Instance?5?8?$CFs?8?3?5can?5not?5unlink?5pi@ 00000001400f7660     instance.obj
 0002:00001690       ??_C@_0ED@MIOJFHEA@Instance?5?8?$CFs?8?3?5waiting?5for?5mysql@ 00000001400f7690     instance.obj
 0002:000016e0       ??_C@_0CC@GLHGGNBE@Instance?5?8?$CFs?8?3?5Monitor?3?5finished@ 00000001400f76e0     instance.obj
 0002:00001708       ??_C@_0CI@BFKLPFHJ@Instance?5?8?$CFs?8?3?5Monitor?3?5mysqld?5s@ 00000001400f7708     instance.obj
 0002:00001738       ??_C@_0DG@CDAEBOCG@Instance?5?8?$CFs?8?3?5Monitor?3?5waiting?5@ 00000001400f7738     instance.obj
 0002:00001778       ??_C@_0CL@GDLMAENG@Instance?5?8?$CFs?8?3?5Monitor?3?5starting@ 00000001400f7778     instance.obj
 0002:000017b0       ??_C@_0CB@BEEEIFJP@Instance?5?8?$CFs?8?3?5Monitor?3?5started?4@ 00000001400f77b0     instance.obj
 0002:000017d8       ??_C@_0DH@FCHALOJO@Instance?5?8?$CFs?8?3?5can?5not?5create?5in@ 00000001400f77d8     instance.obj
 0002:00001820       ??_C@_0DG@MAGOENIF@Instance?5?8?$CFs?8?3?5can?5not?5kill?5mysq@ 00000001400f7820     instance.obj
 0002:00001860       ??_C@_0CH@BOIKBMHP@Instance?5?8?$CFs?8?3?5mysqld?5has?5been?5k@ 00000001400f7860     instance.obj
 0002:00001890       ??_C@_0CA@KEBKADIL@Instance?8?$CFs?8?3?5killing?5mysqld?4?4?4?$AA@ 00000001400f7890     instance.obj
 0002:000018c0       ??_C@_0ED@EDMKKIGO@Instance?5?8?$CFs?8?3?5mysqld?5failed?5to?5@ 00000001400f78c0     instance.obj
 0002:00001910       ??_C@_0CK@DAICMCAL@Instance?5?8?$CFs?8?3?5mysqld?5stopped?5gr@ 00000001400f7910     instance.obj
 0002:00001948       ??_C@_0CC@LKFDENEP@Instance?5?8?$CFs?8?3?5stopping?5mysqld?4?4@ 00000001400f7948     instance.obj
 0002:00001970       ??_C@_0O@BAHIDACC@misconfigured?$AA@ 00000001400f7970     instance.obj
 0002:00001980       ??_C@_0CI@NKEBMEMH@Can?5not?5allocate?5instance?5?$CIname?3@ 00000001400f7980     instance_map.obj
 0002:000019b0       ??_C@_0CI@LIHMLOA@Can?5not?5register?5instance?5?$CIname?3@ 00000001400f79b0     instance_map.obj
 0002:000019e0       ??_C@_0DK@JKJGICIL@Can?5not?5complete?5initialization?5@ 00000001400f79e0     instance_map.obj
 0002:00001a28       ??_C@_0DC@CFEOAIDM@Warning?3?5instance?5name?5?8?$CFs?8?5is?5m@ 00000001400f7a28     instance_map.obj
 0002:00001a70       ??_C@_0FE@IILGJPJC@IM?9option?5?$CI?$CFs?$CJ?5can?5not?5be?5used?5i@ 00000001400f7a70     instance_map.obj
 0002:00001ad8       ??_C@_0CK@EBEJNCOF@Can?5not?5initialize?5instance?5?$CInam@ 00000001400f7ad8     instance_map.obj
 0002:00001b10       ??_C@_0CO@MDKJDFNJ@Can?5not?5write?5to?5configuration?5f@ 00000001400f7b10     instance_map.obj
 0002:00001b48       ??_C@_01NEMOKFLO@?$DN?$AA@ 00000001400f7b48     instance_map.obj
 0002:00001b4c       ??_C@_01LBDDMOBJ@?$FN?$AA@ 00000001400f7b4c     instance_map.obj
 0002:00001b50       ??_C@_01OHGJGJJP@?$FL?$AA@ 00000001400f7b50     instance_map.obj
 0002:00001b54       ??_C@_02PCIJFNDE@?$AN?6?$AA@ 00000001400f7b54     instance_map.obj
 0002:00001b58       ??_C@_0CK@ENFIMMHO@Can?5not?5open?5configuration?5file?5@ 00000001400f7b58     instance_map.obj
 0002:00001b90       ??_C@_0CI@OFOLHJNB@Configuration?5file?5?$CI?$CFs?$CJ?5does?5not@ 00000001400f7b90     instance_map.obj
 0002:00001bc0       ??_C@_0JL@ENGJPKOG@Warning?3?5configuration?5of?5mysqld@ 00000001400f7bc0     instance_map.obj
 0002:00001c80       ??_C@_0DC@EOJCNNLG@mysqld?5instance?5?8?$CFs?8?5has?5been?5ad@ 00000001400f7c80     instance_map.obj
 0002:00001cc0       ??_C@_0DB@ODOAOEAB@Can?5not?5add?5default?5instance?5to?5@ 00000001400f7cc0     instance_map.obj
 0002:00001d00       ??_C@_0CB@FAMGEAGB@Can?5not?5create?5default?5instance?4@ 00000001400f7d00     instance_map.obj
 0002:00001d28       ??_C@_0CG@MMPIFPAN@Falling?5back?5to?5compiled?9in?5defa@ 00000001400f7d28     instance_map.obj
 0002:00001d58       ??_C@_0BD@BMHFPFCK@?9?9defaults?9file?$DN?$CFs?$AA@ 00000001400f7d58     instance_map.obj
 0002:00001d70       ??_C@_0N@MBMMAPDF@mysqlmanager?$AA@ 00000001400f7d70     instance_map.obj
 0002:00001d80       ??_C@_0L@PNJKAIKE@nonguarded?$AA@ 00000001400f7d80     instance_options.obj
 0002:00001d90       ??_C@_0M@IKAFELGN@mysqld?9path?$AA@ 00000001400f7d90     instance_options.obj
 0002:00001da0       ??_C@_0P@DLJJMICC@shutdown?9delay?$AA@ 00000001400f7da0     instance_options.obj
 0002:00001db8       ??_C@_0CA@PNOFEODE@?5?9?9no?9defaults?5?9?9verbose?5?9?9help?$AA@ 00000001400f7db8     instance_options.obj
 0002:00001de0       ??_C@_0CO@ILMIHJFJ@Failed?5to?5get?5version?5of?5?8?$CFs?8?3?5o@ 00000001400f7de0     instance_options.obj
 0002:00001e18       ??_C@_0DC@HCHGLGMH@Failed?5to?5get?5version?5of?5?8?$CFs?8?3?5u@ 00000001400f7e18     instance_options.obj
 0002:00001e54       ??_C@_03GDMIGCCC@Ver?$AA@  00000001400f7e54     instance_options.obj
 0002:00001e58       ??_C@_0BJ@HDFDNOPO@?5?9?9no?9defaults?5?9?9version?$AA@ 00000001400f7e58     instance_options.obj
 0002:00001e78       ??_C@_0DA@BCPJGHBA@Failed?5to?5get?5real?5path?5of?5?8?$CFs?8?3@ 00000001400f7e78     instance_options.obj
 0002:00001eb8       ??_C@_09DGMGBAEA@?$FLOPTIONS?$FN?$AA@ 00000001400f7eb8     instance_options.obj
 0002:00001ec8       ??_C@_0DE@MNFMADFI@Failed?5to?5get?5real?5path?5of?5?8?$CFs?8?3@ 00000001400f7ec8     instance_options.obj
 0002:00001f08       ??_C@_07CKBCDPF@Usage?3?5?$AA@ 00000001400f7f08     instance_options.obj
 0002:00001f18       ??_C@_0BG@FCNLNJKD@?5?9?9no?9defaults?5?9?9help?$AA@ 00000001400f7f18     instance_options.obj
 0002:00001f34       ??_C@_05OLGEOJNI@mysql?$AA@ 00000001400f7f34     instance_options.obj
 0002:00001f40       ??_C@_09HGKCAJKI@?9?9datadir?$AA@ 00000001400f7f40     instance_options.obj
 0002:00001f50       ??_C@_09OFFDPMNL@?9slow?4log?$AA@ 00000001400f7f50     instance_options.obj
 0002:00001f60       ??_C@_0BD@OPICEAGD@?9?9log?9slow?9queries?$AA@ 00000001400f7f60     instance_options.obj
 0002:00001f78       ??_C@_04FPOLKAEB@?4log?$AA@ 00000001400f7f78     instance_options.obj
 0002:00001f80       ??_C@_05NEJJJKMH@?9?9log?$AA@ 00000001400f7f80     instance_options.obj
 0002:00001f88       ??_C@_04BKIDJPM@?4err?$AA@ 00000001400f7f88     instance_options.obj
 0002:00001f90       ??_C@_0M@DHGGKIBL@?9?9log?9error?$AA@ 00000001400f7f90     instance_options.obj
 0002:00001fa0       ??_C@_01KMDKNFGN@?1?$AA@   00000001400f7fa0     instance_options.obj
 0002:00001fa4       ??_C@_02IKAHHCAI@?$CFi?$AA@ 00000001400f7fa4     instance_options.obj
 0002:00001fa8       ??_C@_08OLCBHKMI@pid?9file?$AA@ 00000001400f7fa8     instance_options.obj
 0002:00001fb8       ??_C@_07DJBHFDCD@datadir?$AA@ 00000001400f7fb8     instance_options.obj
 0002:00001fc4       ??_C@_04LPGMAPLE@port?$AA@ 00000001400f7fc4     instance_options.obj
 0002:00001fcc       ??_C@_06HBELJPBO@socket?$AA@ 00000001400f7fcc     instance_options.obj
 0002:00001fd8       ??_C@_09PGAHDFGH@argv?3?5?$CFs?6?$AA@ 00000001400f7fd8     instance_options.obj
 0002:00001fe8       ??_C@_0CD@NLOANHMJ@printing?5out?5an?5instance?5?$CFs?5argv@ 00000001400f7fe8     instance_options.obj
 0002:00002014       ??_C@_02BAABKJLB@?9?9?$AA@ 00000001400f8014     instance_options.obj
 0002:00002018       ??_C@_01JOAMLHOP@?9?$AA@   00000001400f8018     instance_options.obj
 0002:0000201c       ??_C@_04GKIEGHBH@?4pid?$AA@ 00000001400f801c     instance_options.obj
 0002:00002028       ??_C@_0O@LNAGOGFC@?9?9no?9defaults?$AA@ 00000001400f8028     instance_options.obj
 0002:00002038       ?LISTEN_BACK_LOG_SIZE@Listener@@0HB 00000001400f8038     listener.obj
 0002:00002048       ??_7Listener@@6B@          00000001400f8048     listener.obj
 0002:00002060       ??_C@_0DL@FELBGCJL@Listener?3?5accepting?5connections?5@ 00000001400f8060     listener.obj
 0002:000020a8       ??_C@_0CI@EFCGJAL@Listener?3?5listen?$CIip?5socket?$CJ?5fail@ 00000001400f80a8     listener.obj
 0002:000020d8       ??_C@_0CG@DAMMONNM@Listener?3?5bind?$CIip?5socket?$CJ?5failed@ 00000001400f80d8     listener.obj
 0002:00002108       ??_C@_0CG@KCNJHJFG@Listener?3?5socket?$CIAF_INET?$CJ?5failed@ 00000001400f8108     listener.obj
 0002:00002138       ??_C@_0CM@GIBNOMBE@Listener?3?5can?5not?5start?5connecti@ 00000001400f8138     listener.obj
 0002:00002170       ??_C@_0BE@EKNLPMLD@Listener?3?5finished?4?$AA@ 00000001400f8170     listener.obj
 0002:00002188       ??_C@_0CJ@GKEKOOEG@Listener?3?5shutdown?5requested?0?5ex@ 00000001400f8188     listener.obj
 0002:000021c0       ??_C@_0BP@HLLAMEBI@Listener?3?5select?$CI?$CJ?5failed?3?5?$CFs?4?$AA@ 00000001400f81c0     listener.obj
 0002:000021e8       ??_C@_0DF@HKOKJDHM@Listener?3?5failed?5to?5initialize?4?5@ 00000001400f81e8     listener.obj
 0002:00002228       ??_C@_0BD@NCBJHKL@Listener?3?5started?4?$AA@ 00000001400f8228     listener.obj
 0002:00002240       ??_C@_05JMJKDBEJ@?$CFs?$CFs?6?$AA@ 00000001400f8240     log.obj
 0002:00002248       ??_C@_0CO@EMDKHBOI@log?$CI?$CJ?3?5message?5is?5too?5big?0?5my_ma@ 00000001400f8248     log.obj
 0002:00002280       ??_C@_0CP@LMPLHIIL@?$FL?$CFd?1?$CFlu?$FN?5?$FL?$CF02d?1?$CF02d?1?$CF02d?5?$CF02d?3?$CF0@ 00000001400f8280     log.obj
 0002:000022b8       ??_C@_05MBDEGLCK@ERROR?$AA@ 00000001400f82b8     log.obj
 0002:000022c0       ??_C@_04BEADLPGM@INFO?$AA@ 00000001400f82c0     log.obj
 0002:000022c8       ??_C@_01EEMJAFIK@?6?$AA@   00000001400f82c8     log.obj
 0002:000022cc       ??_C@_04PFAOODAA@?$CFs?3?5?$AA@ 00000001400f82cc     log.obj
 0002:000022e0       ??_7ThreadModelChecker@?A0xfeba5fb5@@6B@ 00000001400f82e0     manager.obj
 0002:000022f8       ??_C@_0N@PANILCOJ@Manager?3?5?$CFs?4?$AA@ 00000001400f82f8     manager.obj
 0002:00002310       ??_C@_0FL@OFDAGJKP@Warning?3?5password?5file?5does?5not?5@ 00000001400f8310     manager.obj
 0002:00002380       ??_C@_0DG@DJAIBBOJ@Manager?3?5can?5not?5initialize?5user@ 00000001400f8380     manager.obj
 0002:000023c0       ??_C@_0BK@PKMPDDGP@Manager?3?5sigwait?$CI?$CJ?5failed?$AA@ 00000001400f83c0     manager.obj
 0002:000023e0       ??_C@_0BD@BKGNGCAN@Manager?3?5finished?4?$AA@ 00000001400f83e0     manager.obj
 0002:000023f8       ??_C@_0BO@MKKBBAKA@Manager?3?5got?5shutdown?5signal?4?$AA@ 00000001400f83f8     manager.obj
 0002:00002420       ??_C@_0BC@LOMOBFNL@Manager?3?5started?4?$AA@ 00000001400f8420     manager.obj
 0002:00002438       ??_C@_0CI@KODGBOEG@Manager?3?5can?5not?5start?5Listener?5@ 00000001400f8438     manager.obj
 0002:00002468       ??_C@_0CM@OPLHEMPM@Manager?3?5can?5not?5init?5instances?5@ 00000001400f8468     manager.obj
 0002:000024a0       ??_C@_0CI@GKNKKAIM@Manager?3?5can?5not?5start?5Guardian?5@ 00000001400f84a0     manager.obj
 0002:000024d0       ??_C@_0CA@EMIOCEBB@Manager?3?5pid?5file?5?$CI?$CFs?$CJ?5created?4?$AA@ 00000001400f84d0     manager.obj
 0002:000024f8       ??_C@_0DK@KJHDPGIO@Manager?3?5can?5not?5initialize?5inst@ 00000001400f84f8     manager.obj
 0002:00002540       ??_C@_0BJ@DLDDEGPM@Manager?3?5initializing?4?4?4?$AA@ 00000001400f8540     manager.obj
 0002:00002560       ??_C@_0CC@IOEEFNGH@Configuration?5file?5does?5not?5exis@ 00000001400f8560     messages.obj
 0002:00002590       ??_C@_0HF@JDADLGEN@Instance?5Manager?9specific?5option@ 00000001400f8590     messages.obj
 0002:00002620       ??_C@_0DK@EOPGDEKG@At?5least?5one?5instance?5is?5active?4@ 00000001400f8620     messages.obj
 0002:00002668       ??_C@_0DA@NKPLOLCO@The?5instance?5is?5active?4?5Stop?5the@ 00000001400f8668     messages.obj
 0002:000026a8       ??_C@_0BJ@PGDOFGBC@Malformed?5instance?5name?4?$AA@ 00000001400f86a8     messages.obj
 0002:000026c8       ??_C@_0CL@HILCLIIH@Instance?5is?5misconfigured?4?5Canno@ 00000001400f86c8     messages.obj
 0002:00002700       ??_C@_0BI@FMHOLMKL@Instance?5already?5exists?$AA@ 00000001400f8700     messages.obj
 0002:00002720       ??_C@_0DJ@PMBEDDFP@Cannot?5drop?5an?5active?5instance?4?5@ 00000001400f8720     messages.obj
 0002:00002768       ??_C@_0DH@OLEIDFFJ@Cannot?5open?5the?5option?5file?5to?5e@ 00000001400f8768     messages.obj
 0002:000027b0       ??_C@_0FE@PBJNMGMK@Cannot?5guess?5the?5log?5filename?4?5T@ 00000001400f87b0     messages.obj
 0002:00002818       ??_C@_0BF@CCAMAPAA@Cannot?5open?5log?5file?$AA@ 00000001400f8818     messages.obj
 0002:00002838       ??_C@_0CF@HGFDHMPH@The?5instance?5has?5no?5such?5log?5ena@ 00000001400f8838     messages.obj
 0002:00002868       ??_C@_0CK@BDCIGLMK@Cannot?5read?5requested?5part?5of?5th@ 00000001400f8868     messages.obj
 0002:000028a0       ??_C@_0BF@BOFNNLAC@Cannot?5stop?5instance?$AA@ 00000001400f88a0     messages.obj
 0002:000028c0       ??_C@_0CF@EPBEMJMO@Cannot?5read?5negative?5number?5of?5b@ 00000001400f88c0     messages.obj
 0002:000028f0       ??_C@_0FJ@FAEFAGFE@Cannot?5start?5instance?4?5Possible?5@ 00000001400f88f0     messages.obj
 0002:00002960       ??_C@_0CA@OIEOKEDL@The?5instance?5is?5already?5started?$AA@ 00000001400f8960     messages.obj
 0002:00002990       ??_C@_0HD@GGDAMBEA@Cannot?5stop?5instance?4?5Perhaps?5th@ 00000001400f8990     messages.obj
 0002:00002a20       ??_C@_0BG@PFHNHGMA@Unknown?5instance?5name?$AA@ 00000001400f8a20     messages.obj
 0002:00002a40       ??_C@_0IP@BELLFNGA@You?5have?5an?5error?5in?5your?5comman@ 00000001400f8a40     messages.obj
 0002:00002af0       ??_C@_0BA@MPOJHAMO@Unknown?5command?$AA@ 00000001400f8af0     messages.obj
 0002:00002b10       ??_C@_0GF@CPHLBCPM@Client?5does?5not?5support?5authenti@ 00000001400f8b10     messages.obj
 0002:00002b90       ??_C@_0CK@DOCEONGH@Access?5denied?4?5Bad?5username?1pass@ 00000001400f8b90     messages.obj
 0002:00002bd0       ??_C@_0LH@OBGNHNPK@Out?5of?5memory?$DL?5?5Check?5if?5mysqld?5@ 00000001400f8bd0     messages.obj
 0002:00002cb0       ??_C@_0O@DIOIANKF@Bad?5handshake?$AA@ 00000001400f8cb0     messages.obj
 0002:00002cc8       ??_7Mysql_connection@@6B@  00000001400f8cc8     mysql_connection.obj
 0002:00002ce0       ??_C@_0CH@OOGLBEGM@Connection?5?$CFlu?3?5received?5QUIT?5co@ 00000001400f8ce0     mysql_connection.obj
 0002:00002d10       ??_C@_0DH@OALJBMIN@Connection?5?$CFlu?3?5can?5not?5parse?5qu@ 00000001400f8d10     mysql_connection.obj
 0002:00002d58       ??_C@_0DD@KJLKCFKC@Connection?5?$CFlu?3?5can?5not?5execute?5@ 00000001400f8d58     mysql_connection.obj
 0002:00002d98       ??_C@_0CM@PGHKHOAF@Connection?5?$CFlu?3?5query?5executed?5s@ 00000001400f8d98     mysql_connection.obj
 0002:00002dd0       ??_C@_0CL@FBNOCNOF@Connection?5?$CFlu?3?5query?5parsed?5suc@ 00000001400f8dd0     mysql_connection.obj
 0002:00002e08       ??_C@_0CO@JFCMKLJ@Connection?5?$CFlu?3?5received?5QUERY?5c@ 00000001400f8e08     mysql_connection.obj
 0002:00002e40       ??_C@_0CH@BOFFKBHO@Connection?5?$CFlu?3?5received?5PING?5co@ 00000001400f8e40     mysql_connection.obj
 0002:00002e70       ??_C@_0DD@BEOBPCHN@Connection?5?$CFlu?3?5received?5unsuppo@ 00000001400f8e70     mysql_connection.obj
 0002:00002eb0       ??_C@_0DM@LEFAKPBA@Connection?5?$CFlu?3?5received?5packet?5@ 00000001400f8eb0     mysql_connection.obj
 0002:00002ef8       ??_C@_0DG@MHMJEMMF@Connection?5?$CFlu?3?5the?5user?5was?5aut@ 00000001400f8ef8     mysql_connection.obj
 0002:00002f38       ??_C@_0CO@GLLPLBF@Connection?5?$CFlu?3?5failed?5to?5author@ 00000001400f8f38     mysql_connection.obj
 0002:00002f70       ??_C@_0BK@JPCGKMIE@Connection?5?$CFlu?3?5accepted?4?$AA@ 00000001400f8f70     mysql_connection.obj
 0002:00002f90       ??_C@_0CG@IGHBHBKI@Connection?5?$CFlu?3?5can?5not?5init?5han@ 00000001400f8f90     mysql_connection.obj
 0002:00002fc0       ??_C@_0O@NICLPIJL@IM?3?5finished?4?$AA@ 00000001400f8fc0     mysqlmanager.obj
 0002:00002fd0       ??_C@_0N@CPKLCEGH@IM?3?5started?4?$AA@ 00000001400f8fd0     mysqlmanager.obj
 0002:00002fe0       ??_C@_0EC@PKPNDGNL@?6WARNING?3?5This?5program?5is?5deprec@ 00000001400f8fe0     mysqlmanager.obj
 0002:00003030       ??_C@_07JPLKDPHP@manager?$AA@ 00000001400f9030     options.obj
 0002:00003040       ??_C@_0EP@PDDIBNOH@The?5number?5of?5seconds?5IM?5waits?5f@ 00000001400f9040     options.obj
 0002:000030a0       ??_C@_0N@IKNOIIJE@wait?9timeout?$AA@ 00000001400f90a0     options.obj
 0002:000030b0       ??_C@_0CF@PMNNCCFJ@Output?5version?5information?5and?5e@ 00000001400f90b0     options.obj
 0002:000030e0       ??_C@_0CG@JBFFICBH@Username?5to?5update?5the?5password?5@ 00000001400f90e0     options.obj
 0002:00003110       ??_C@_08ODGEKKOL@username?$AA@ 00000001400f9110     options.obj
 0002:00003120       ??_C@_0CJ@IONBCKIB@Run?5the?5application?5in?5stand?5alo@ 00000001400f9120     options.obj
 0002:00003158       ??_C@_0L@FLHGMILF@standalone?$AA@ 00000001400f9158     options.obj
 0002:00003168       ??_C@_0BH@DMOGDMLA@Remove?5system?5service?4?$AA@ 00000001400f9168     options.obj
 0002:00003184       ??_C@_06LEMKAMD@remove?$AA@ 00000001400f9184     options.obj
 0002:00003190       ??_C@_0CE@NDMNFMGO@Port?5number?5to?5use?5for?5connectio@ 00000001400f9190     options.obj
 0002:000031c0       ??_C@_0BB@DGOMPFMC@Pid?5file?5to?5use?4?$AA@ 00000001400f91c0     options.obj
 0002:000031d8       ??_C@_0DE@HMCHLBBP@Look?5for?5Instance?5Manager?5users?5@ 00000001400f91d8     options.obj
 0002:00003218       ??_C@_0O@JHLAPOPF@password?9file?$AA@ 00000001400f9218     options.obj
 0002:00003228       ??_C@_0CG@HEHNPAHK@Password?5to?5update?5the?5password?5@ 00000001400f9228     options.obj
 0002:00003258       ??_C@_08NLHBPEGP@password?$AA@ 00000001400f9258     options.obj
 0002:00003270       ??_C@_0EB@EPMGEMEG@Print?5out?5a?5user?5entry?5as?5a?5line@ 00000001400f9270     options.obj
 0002:000032c0       ??_C@_0BE@JBMHOAKG@print?9password?9line?$AA@ 00000001400f92c0     options.obj
 0002:000032d8       ??_C@_0DJ@HPGBHOCK@Start?5Instance?5Manager?5in?5mysqld@ 00000001400f92d8     options.obj
 0002:00003320       ??_C@_0BH@BDEONKFN@mysqld?9safe?9compatible?$AA@ 00000001400f9320     options.obj
 0002:00003340       ??_C@_0CK@FMEHMJFO@Interval?5to?5monitor?5instances?5in@ 00000001400f9340     options.obj
 0002:00003378       ??_C@_0BE@INENLLN@monitoring?9interval?$AA@ 00000001400f9378     options.obj
 0002:00003390       ??_C@_0CG@GMJENMHO@Print?5out?5a?5list?5of?5registered?5u@ 00000001400f9390     options.obj
 0002:000033c0       ??_C@_0L@BGBIMKCH@list?9users?$AA@ 00000001400f93c0     options.obj
 0002:000033d0       ??_C@_0BL@KHPAFIOP@Install?5as?5system?5service?4?$AA@ 00000001400f93d0     options.obj
 0002:000033f0       ??_C@_07EALBDFH@install?$AA@ 00000001400f93f0     options.obj
 0002:00003400       ??_C@_0CJ@PAHCHFBH@Edit?5existing?5user?5in?5the?5passwo@ 00000001400f9400     options.obj
 0002:00003438       ??_C@_09FNCIKDCH@edit?9user?$AA@ 00000001400f9438     options.obj
 0002:00003448       ??_C@_0CL@GCDDJALK@Drop?5existing?5user?5from?5the?5pass@ 00000001400f9448     options.obj
 0002:00003480       ??_C@_09FPBANOHG@drop?9user?$AA@ 00000001400f9480     options.obj
 0002:00003490       ??_C@_0CH@LIAINEMB@Where?5to?5look?5for?5MySQL?5Server?5b@ 00000001400f9490     options.obj
 0002:000034c0       ??_C@_0BE@HCHLGHAI@default?9mysqld?9path?$AA@ 00000001400f94c0     options.obj
 0002:000034d8       ??_C@_0BJ@OGOGONKD@Clean?5the?5password?5file?4?$AA@ 00000001400f94d8     options.obj
 0002:000034f8       ??_C@_0BE@NIEMCJHH@clean?9password?9file?$AA@ 00000001400f94f8     options.obj
 0002:00003510       ??_C@_0CJ@LHJCNMMI@Check?5the?5password?5file?5for?5cons@ 00000001400f9510     options.obj
 0002:00003548       ??_C@_0BE@JPEBGJEE@check?9password?9file?$AA@ 00000001400f9548     options.obj
 0002:00003560       ??_C@_0CE@LKPLDHBK@Bind?5address?5to?5use?5for?5connecti@ 00000001400f9560     options.obj
 0002:00003590       ??_C@_0N@KPFNDBAM@bind?9address?$AA@ 00000001400f9590     options.obj
 0002:000035a0       ??_C@_0CB@PCBIIIIC@Add?5a?5user?5to?5the?5password?5file?4@ 00000001400f95a0     options.obj
 0002:000035c8       ??_C@_08NJCJNMJL@add?9user?$AA@ 00000001400f95c8     options.obj
 0002:000035d8       ??_C@_0BM@BKPKLHCC@Display?5this?5help?5and?5exit?4?$AA@ 00000001400f95d8     options.obj
 0002:000035fc       ??_C@_04PCJFHION@help?$AA@ 00000001400f95fc     options.obj
 0002:00003608       ??_C@_0L@MFNJLFIO@?4angel?4pid?$AA@ 00000001400f9608     options.obj
 0002:00003630       ??_7User_management_cmd@@6B@ 00000001400f9630     options.obj
 0002:00003650       ??_7Print_password_line_cmd@@6B@ 00000001400f9650     options.obj
 0002:00003670       ??_7Add_user_cmd@@6B@      00000001400f9670     options.obj
 0002:00003690       ??_7Drop_user_cmd@@6B@     00000001400f9690     options.obj
 0002:000036b0       ??_7Edit_user_cmd@@6B@     00000001400f96b0     options.obj
 0002:000036d0       ??_7Clean_db_cmd@@6B@      00000001400f96d0     options.obj
 0002:000036f0       ??_7Check_db_cmd@@6B@      00000001400f96f0     options.obj
 0002:00003710       ??_7List_users_cmd@@6B@    00000001400f9710     options.obj
 0002:00003728       ??_C@_0BI@DFCIJINN@?$CFs?5Ver?5?$CFs?5for?5?$CFs?5on?5?$CFs?6?$AA@ 00000001400f9728     options.obj
 0002:00003744       ??_C@_05ILKBJJMK@Win64?$AA@ 00000001400f9744     options.obj
 0002:00003750       ??_C@_0BHO@MDEOLIO@?6The?5following?5options?5may?5be?5gi@ 00000001400f9750     options.obj
 0002:00003920       ??_C@_0BG@GNEAPHGE@Usage?3?5?$CFs?5?$FLOPTIONS?$FN?5?6?$AA@ 00000001400f9920     options.obj
 0002:00003940       ??_C@_0LF@NDONKEHG@Copyright?5?$CIC?$CJ?52003?0?52004?5MySQL?5A@ 00000001400f9940     options.obj
 0002:00003a20       ??_C@_0EJ@JCDHKOH@Error?3?5only?5one?5password?9managem@ 00000001400f9a20     options.obj
 0002:00003a78       ??_C@_07MODGBJDN@?4passwd?$AA@ 00000001400f9a78     options.obj
 0002:00003a84       ??_C@_06GKHGEOIF@my?4ini?$AA@ 00000001400f9a84     options.obj
 0002:00003a90       ??_C@_0GO@DAKIGMAO@?9?9username?5and?1or?5?9?9password?5opt@ 00000001400f9a90     options.obj
 0002:00003b18       ??_C@_0BM@PFCLOIKI@Loading?5config?5file?5?8?$CFs?8?4?4?4?$AA@ 00000001400f9b18     options.obj
 0002:00003b40       ??_C@_0DB@FPDBENAF@Internal?5error?3?5could?5not?5setup?5@ 00000001400f9b40     options.obj
 0002:00003b80       ??_C@_0GN@NBIDIJLJ@The?5?9?9defaults?9extra?9file?5and?5?9?9@ 00000001400f9b80     options.obj
 0002:00003c08       ??_C@_0BH@HNKMCPPG@?9?9defaults?9extra?9file?$DN?$AA@ 00000001400f9c08     options.obj
 0002:00003c28       ??_C@_0BB@LDHKPEKC@?9?9defaults?9file?$DN?$AA@ 00000001400f9c28     options.obj
 0002:00003c3c       ??_C@_05IEIDFGAH@UNSET?$AA@ 00000001400f9c3c     parse.obj
 0002:00003c44       ??_C@_04JGPCMMEF@SHOW?$AA@ 00000001400f9c44     parse.obj
 0002:00003c4c       ??_C@_04MDHMLCKF@STOP?$AA@ 00000001400f9c4c     parse.obj
 0002:00003c54       ??_C@_06DNKMJCIK@STATUS?$AA@ 00000001400f9c54     parse.obj
 0002:00003c5c       ??_C@_05JLPDBANI@START?$AA@ 00000001400f9c5c     parse.obj
 0002:00003c64       ??_C@_04BJJAFLBC@SLOW?$AA@ 00000001400f9c64     parse.obj
 0002:00003c6c       ??_C@_03KPIFFHNE@SET?$AA@  00000001400f9c6c     parse.obj
 0002:00003c70       ??_C@_07KDKMIPIP@OPTIONS?$AA@ 00000001400f9c70     parse.obj
 0002:00003c7c       ??_C@_03MLIHNEFJ@LOG?$AA@  00000001400f9c7c     parse.obj
 0002:00003c80       ??_C@_09CJBINDHJ@INSTANCES?$AA@ 00000001400f9c80     parse.obj
 0002:00003c90       ??_C@_08DDHIOBDH@INSTANCE?$AA@ 00000001400f9c90     parse.obj
 0002:00003ca0       ??_C@_07EGGHCNEO@GENERAL?$AA@ 00000001400f9ca0     parse.obj
 0002:00003cac       ??_C@_05KALGKIBB@FLUSH?$AA@ 00000001400f9cac     parse.obj
 0002:00003cb4       ??_C@_05PENKCLCM@FILES?$AA@ 00000001400f9cb4     parse.obj
 0002:00003cbc       ??_C@_04DENHKGOL@DROP?$AA@ 00000001400f9cbc     parse.obj
 0002:00003cc4       ??_C@_06DDGDDNE@CREATE?$AA@ 00000001400f9cc4     parse.obj
 0002:00003cd8       ??_7Show_instances@@6B@    00000001400f9cd8     parse.obj
 0002:00003cf8       ??_7Flush_instances@@6B@   00000001400f9cf8     parse.obj
 0002:00003d18       ??_7Set_option@@6B@        00000001400f9d18     parse.obj
 0002:00003d48       ??_7Unset_option@@6B@      00000001400f9d48     parse.obj
 0002:00003d78       ??_7Syntax_error@@6B@      00000001400f9d78     parse.obj
 0002:00003d98       ??_7Mysqld_output_parser@?A0x493e448a@@6B@ 00000001400f9d98     parse_output.obj
 0002:00003dc8       ??_7Mysqld_output_parser_win@?A0x493e448a@@6B@ 00000001400f9dc8     parse_output.obj
 0002:00003df0       ??_C@_08BPAFEFGI@1?40?9beta?$AA@ 00000001400f9df0     priv.obj
 0002:00003e00       ?mysqlmanager_version@@3Ust_mysql_lex_string@@B 00000001400f9e00     priv.obj
 0002:00003e10       ?protocol_version@@3EB     00000001400f9e10     priv.obj
 0002:00003e18       ??_C@_0CP@GKJEFFOA@Can?5not?5write?5to?5pid?5file?5?8?$CFs?8?3?5@ 00000001400f9e18     priv.obj
 0002:00003e50       ??_C@_03PMGGPEJJ@?$CFd?6?$AA@ 00000001400f9e50     priv.obj
 0002:00003e58       ??_C@_0CN@OBBKEMCL@Can?5not?5create?5pid?5file?5?8?$CFs?8?3?5?$CFs@ 00000001400f9e58     priv.obj
 0002:00003e90       ??_C@_0CL@FCAPHNPO@Thread_registry?3?5unregistered?5th@ 00000001400f9e90     thread_registry.obj
 0002:00003ec8       ??_C@_0DE@NDBPDJDJ@Invalid?5format?5?$CIunmatched?5quote?$CJ@ 00000001400f9ec8     user_map.obj
 0002:00003f08       ??_C@_0BC@PDKJIDJA@Loaded?5user?5?8?$CFs?8?4?$AA@ 00000001400f9f08     user_map.obj
 0002:00003f20       ??_C@_0DL@FOHBFFCN@Password?5is?5too?5long?5?$CI?$CFd?$CJ?4?5Max?5l@ 00000001400f9f20     user_map.obj
 0002:00003f68       ??_C@_0DN@HGKBKDMF@User?5name?5is?5too?5long?5?$CI?$CFd?$CJ?4?5Max?5@ 00000001400f9f68     user_map.obj
 0002:00003fb8       ??_C@_0DB@NMPOEILG@Invalid?5format?5?$CIno?5delimiter?$CJ?5of@ 00000001400f9fb8     user_map.obj
 0002:00003ff8       ??_C@_0BN@PGLFBLJB@password?5file?5?$CI?$CFs?$CJ?5corrupted?$AA@ 00000001400f9ff8     user_map.obj
 0002:00004020       ??_C@_0CP@LBNDNLDH@out?5of?5memory?5while?5parsing?5pass@ 00000001400fa020     user_map.obj
 0002:00004058       ??_C@_0CL@CBOHIHHK@The?5password?5database?5loaded?5suc@ 00000001400fa058     user_map.obj
 0002:00004090       ??_C@_0CB@MHJJCEGM@Loading?5the?5password?5database?4?4?4@ 00000001400fa090     user_map.obj
 0002:000040b8       ??_C@_0CE@OIJOPBDA@can?5not?5open?5password?5file?5?$CI?$CFs?$CJ?3@ 00000001400fa0b8     user_map.obj
 0002:000040e8       ??_C@_0CC@PHMCNMNC@password?5file?5?$CI?$CFs?$CJ?5does?5not?5exis@ 00000001400fa0e8     user_map.obj
 0002:00004110       ??_C@_0CI@MBNGKPCN@can?5not?5write?5to?5password?5file?5?$CI@ 00000001400fa110     user_map.obj
 0002:00004140       ??_C@_06KCIFIIHN@?$CFs?3?$CFs?6?$AA@ 00000001400fa140     user_map.obj
 0002:00004148       ??_C@_0DA@NPDFEMBE@can?5not?5open?5password?5file?5?$CI?$CFs?$CJ?5@ 00000001400fa148     user_map.obj
 0002:00004190       ??_7IMService@@6B@         00000001400fa190     IMService.obj
 0002:000041d0       ??_C@_0N@NFIKJEB@MySqlManager?$AA@ 00000001400fa1d0     IMService.obj
 0002:000041e0       ??_C@_0O@ONNFOFNE@MySQL?5Manager?$AA@ 00000001400fa1e0     IMService.obj
 0002:000041f0       ??_C@_0IM@NOFGBDBN@The?5service?5should?5be?5started?5by@ 00000001400fa1f0     IMService.obj
 0002:00004298       ??_C@_0BO@BDBDHFNP@Service?5failed?5to?5initialize?4?$AA@ 00000001400fa298     IMService.obj
 0002:000042c0       ??_C@_0CJ@CNAPJDDL@Initializing?5Instance?5Manager?5se@ 00000001400fa2c0     IMService.obj
 0002:000042f8       ??_C@_0BK@IFOJIBEI@Service?5failed?5to?5remove?4?$AA@ 00000001400fa2f8     IMService.obj
 0002:00004318       ??_C@_0BO@HJJCINL@Service?5removed?5successfully?4?$AA@ 00000001400fa318     IMService.obj
 0002:00004340       ??_C@_0BK@LBIFJAII@Service?5is?5not?5installed?4?$AA@ 00000001400fa340     IMService.obj
 0002:00004360       ??_C@_0BL@ICFMKBII@Service?5failed?5to?5install?4?$AA@ 00000001400fa360     IMService.obj
 0002:00004380       ??_C@_0CA@BECIKCAO@Service?5installed?5successfully?4?$AA@ 00000001400fa380     IMService.obj
 0002:000043a8       ??_C@_0BO@BEOPPBDB@Service?5is?5already?5installed?4?$AA@ 00000001400fa3a8     IMService.obj
 0002:000043d8       ??_7WindowsService@@6B@    00000001400fa3d8     WindowsService.obj
 0002:00004418       ??_C@_0BE@GPLHKCHK@ReportStatus?5failed?$AA@ 00000001400fa418     WindowsService.obj
 0002:00004430       ??_C@_0BC@DEAECJAP@Enter?5user?5name?3?5?$AA@ 00000001400fa430     user_management_commands.obj
 0002:00004448       ??_C@_0DB@KILDAHGC@Error?3?5user?5name?5must?5not?5exceed@ 00000001400fa448     user_management_commands.obj
 0002:00004488       ??_C@_0CE@BEAEOAEN@Error?3?5user?5name?5can?5not?5be?5empt@ 00000001400fa488     user_management_commands.obj
 0002:000044b8       ??_C@_0CN@HDLKOHLA@Error?3?5unable?5to?5read?5user?5name?5@ 00000001400fa4b8     user_management_commands.obj
 0002:000044f0       ??_C@_0CA@GOLBANMM@Error?3?5passwords?5do?5not?5match?4?6?$AA@ 00000001400fa4f0     user_management_commands.obj
 0002:00004518       ??_C@_0BD@NKGLHMFK@Re?9type?5password?3?5?$AA@ 00000001400fa518     user_management_commands.obj
 0002:00004530       ??_C@_0BB@LAEJCAEB@Enter?5password?3?5?$AA@ 00000001400fa530     user_management_commands.obj
 0002:00004548       ??_C@_0M@KGJPEMDD@Error?3?5?$CFs?4?6?$AA@ 00000001400fa548     user_management_commands.obj
 0002:00004558       ??_C@_0CF@OMFDBANG@Error?3?5can?5not?5initialize?5user?5m@ 00000001400fa558     user_management_commands.obj
 0002:00004588       ??_C@_0BP@NJIBNPLM@Creating?5record?5for?5new?5user?4?6?$AA@ 00000001400fa588     user_management_commands.obj
 0002:000045b0       ??_C@_0CC@DLAOCCBA@Error?3?5user?5?8?$CFs?8?5already?5exists?4@ 00000001400fa5b0     user_management_commands.obj
 0002:000045d8       ??_C@_0CC@OEEDCFII@Error?3?5user?5?8?$CFs?8?5does?5not?5exist?4@ 00000001400fa5d8     user_management_commands.obj
 0002:00004600       ??_C@_03OFAPEBGM@?$CFs?6?$AA@ 00000001400fa600     user_management_commands.obj
 0002:00004608       ??_C@_0L@KDJOJLDL@?$CF08lx?$CF08lx?$AA@ 00000001400fa608     password.obj
 0002:00004618       __real@4050000000000000    00000001400fa618     password.obj
 0002:00004628       __real@403f000000000000    00000001400fa628     password.obj
 0002:00004638       __real@4040800000000000    00000001400fa638     password.obj
 0002:00004648       __real@4057800000000000    00000001400fa648     password.obj
 0002:00004654       ??_C@_05EKPPILBK@XA102?$AA@ 00000001400fa654     sql_state.obj
 0002:0000465c       ??_C@_05COJDEOBO@XA106?$AA@ 00000001400fa65c     sql_state.obj
 0002:00004664       ??_C@_05HMFDNFIP@25001?$AA@ 00000001400fa664     sql_state.obj
 0002:0000466c       ??_C@_05BPLBLCNG@22008?$AA@ 00000001400fa66c     sql_state.obj
 0002:00004674       ??_C@_05FEENFEFL@XAE08?$AA@ 00000001400fa674     sql_state.obj
 0002:0000467c       ??_C@_05MOHDAJJP@22001?$AA@ 00000001400fa67c     sql_state.obj
 0002:00004684       ??_C@_05HIMJOJJI@XA100?$AA@ 00000001400fa684     sql_state.obj
 0002:0000468c       ??_C@_05LHLJINJA@XAE03?$AA@ 00000001400fa68c     sql_state.obj
 0002:00004694       ??_C@_05ENFGGFBK@XAE09?$AA@ 00000001400fa694     sql_state.obj
 0002:0000469c       ??_C@_05NDNFEIJE@XAE07?$AA@ 00000001400fa69c     sql_state.obj
 0002:000046a4       ??_C@_05OBODCKBG@XAE05?$AA@ 00000001400fa6a4     sql_state.obj
 0002:000046ac       ??_C@_05PIPIBLFH@XAE04?$AA@ 00000001400fa6ac     sql_state.obj
 0002:000046b4       ??_C@_05OEJMDAGL@22012?$AA@ 00000001400fa6b4     sql_state.obj
 0002:000046bc       ??_C@_05KNKIGLLO@20000?$AA@ 00000001400fa6bc     sql_state.obj
 0002:000046c4       ??_C@_05JKKAJJNF@02000?$AA@ 00000001400fa6c4     sql_state.obj
 0002:000046cc       ??_C@_05FICIMNHO@24000?$AA@ 00000001400fa6cc     sql_state.obj
 0002:000046d4       ??_C@_05KGENIKJE@2F005?$AA@ 00000001400fa6d4     sql_state.obj
 0002:000046dc       ??_C@_05EFNJJNGI@70100?$AA@ 00000001400fa6dc     sql_state.obj
 0002:000046e4       ??_C@_05CENCADMK@0A000?$AA@ 00000001400fa6e4     sql_state.obj
 0002:000046ec       ??_C@_05PABHCNBC@2F003?$AA@ 00000001400fa6ec     sql_state.obj
 0002:000046f4       ??_C@_05JICJKOBJ@22007?$AA@ 00000001400fa6f4     sql_state.obj
 0002:000046fc       ??_C@_05PMEFGLBN@22003?$AA@ 00000001400fa6fc     sql_state.obj
 0002:00004704       ??_C@_05NNAAODAF@01000?$AA@ 00000001400fa704     sql_state.obj
 0002:0000470c       ??_C@_05JAMIECAO@21000?$AA@ 00000001400fa70c     sql_state.obj
 0002:00004714       ??_C@_05GCOKLJOC@40001?$AA@ 00000001400fa714     sql_state.obj
 0002:0000471c       ??_C@_05GFEIOEMO@25000?$AA@ 00000001400fa71c     sql_state.obj
 0002:00004724       ??_C@_05LDAEPNNK@22004?$AA@ 00000001400fa724     sql_state.obj
 0002:0000472c       ??_C@_05BLFGILJL@42S12?$AA@ 00000001400fa72c     sql_state.obj
 0002:00004734       ??_C@_05IFAOCAIO@s1009?$AA@ 00000001400fa734     sql_state.obj
 0002:0000473c       ??_C@_05DCDNGGAB@42S21?$AA@ 00000001400fa73c     sql_state.obj
 0002:00004744       ??_C@_05KAEACLKC@21S01?$AA@ 00000001400fa744     sql_state.obj
 0002:0000474c       ??_C@_05ICKCCFLI@S1009?$AA@ 00000001400fa74c     sql_state.obj
 0002:00004754       ??_C@_05FPLCABKN@S0022?$AA@ 00000001400fa754     sql_state.obj
 0002:0000475c       ??_C@_05BJBADFMC@42S22?$AA@ 00000001400fa75c     sql_state.obj
 0002:00004764       ??_C@_05BKJEOBKM@42S02?$AA@ 00000001400fa764     sql_state.obj
 0002:0000476c       ??_C@_05DBLJLCGP@42S01?$AA@ 00000001400fa76c     sql_state.obj
 0002:00004774       ??_C@_05GKKGPOBE@3D000?$AA@ 00000001400fa774     sql_state.obj
 0002:0000477c       ??_C@_05JNNICAHP@28000?$AA@ 00000001400fa77c     sql_state.obj
 0002:00004784       ??_C@_05BDBNLMD@42000?$AA@ 00000001400fa784     sql_state.obj
 0002:0000478c       ??_C@_05OAJIOINI@08S01?$AA@ 00000001400fa78c     sql_state.obj
 0002:00004794       ??_C@_05LEHMEEHA@08004?$AA@ 00000001400fa794     sql_state.obj
 0002:0000479c       ??_C@_05EKHLKPLA@S1001?$AA@ 00000001400fa79c     sql_state.obj
 0002:000047a4       ??_C@_05IKCIGBGE@HY001?$AA@ 00000001400fa7a4     sql_state.obj
 0002:000047ac       ??_C@_05OKAIBBGO@23000?$AA@ 00000001400fa7ac     sql_state.obj
 0002:000047b4       ??_C@_05JDDDFACF@HY000?$AA@ 00000001400fa7b4     sql_state.obj
 0002:000047bc       ??_C@_06HPIPGHLH@MEMORY?$AA@ 00000001400fa7bc     client.obj
 0002:000047c4       ??_C@_04GGAEFGO@PIPE?$AA@  00000001400fa7c4     client.obj
 0002:000047cc       ??_C@_06HFGAEBMM@SOCKET?$AA@ 00000001400fa7cc     client.obj
 0002:000047d4       ??_C@_03FCLDNGNL@TCP?$AA@  00000001400fa7d4     client.obj
 0002:000047d8       ??_C@_07FOPBDDAL@options?$AA@ 00000001400fa7d8     client.obj
 0002:000047e8       ??_C@_0BH@BONNBGIA@report?9data?9truncation?$AA@ 00000001400fa7e8     client.obj
 0002:00004808       ??_C@_0M@PMDPKFDA@secure?9auth?$AA@ 00000001400fa808     client.obj
 0002:00004818       ??_C@_0O@IGPGCENI@multi?9queries?$AA@ 00000001400fa818     client.obj
 0002:00004828       ??_C@_0BB@ECMBLIEH@multi?9statements?$AA@ 00000001400fa828     client.obj
 0002:00004840       ??_C@_0O@CCDCLLBG@multi?9results?$AA@ 00000001400fa840     client.obj
 0002:00004850       ??_C@_0BI@FOKNPLJP@shared?9memory?9base?9name?$AA@ 00000001400fa850     client.obj
 0002:00004870       ??_C@_08FCFPNNHF@protocol?$AA@ 00000001400fa870     client.obj
 0002:00004880       ??_C@_0BD@OFGLABCB@max?9allowed?9packet?$AA@ 00000001400fa880     client.obj
 0002:00004898       ??_C@_0L@PHBCGEDL@ssl?9cipher?$AA@ 00000001400fa898     client.obj
 0002:000048a8       ??_C@_0BB@HNHJLDBF@repl?9parse?9query?$AA@ 00000001400fa8a8     client.obj
 0002:000048c0       ??_C@_0BJ@JAEAFHJM@enable?9reads?9from?9master?$AA@ 00000001400fa8c0     client.obj
 0002:000048e0       ??_C@_0BC@BKIPLOIH@replication?9probe?$AA@ 00000001400fa8e0     client.obj
 0002:000048f8       ??_C@_0BF@DNHMICAO@disable?9local?9infile?$AA@ 00000001400fa8f8     client.obj
 0002:00004918       ??_C@_0N@DEPIEDDP@local?9infile?$AA@ 00000001400fa918     client.obj
 0002:00004928       ??_C@_0BA@PKFDCPCI@connect?9timeout?$AA@ 00000001400fa928     client.obj
 0002:00004940       ??_C@_0BE@PKKGFOHM@interactive?9timeout?$AA@ 00000001400fa940     client.obj
 0002:00004958       ??_C@_0BG@BMMCDGOA@default?9character?9set?$AA@ 00000001400fa958     client.obj
 0002:00004978       ??_C@_0BD@HPLEKGGN@character?9sets?9dir?$AA@ 00000001400fa978     client.obj
 0002:00004990       ??_C@_0L@MLIAJKEA@ssl?9capath?$AA@ 00000001400fa990     client.obj
 0002:000049a0       ??_C@_06KEIFHGI@ssl?9ca?$AA@ 00000001400fa9a0     client.obj
 0002:000049a8       ??_C@_08MLGPLICL@ssl?9cert?$AA@ 00000001400fa9a8     client.obj
 0002:000049b8       ??_C@_07HPCDODLB@ssl?9key?$AA@ 00000001400fa9b8     client.obj
 0002:000049c8       ??_C@_0BC@CPNNNMD@return?9found?9rows?$AA@ 00000001400fa9c8     client.obj
 0002:000049e0       ??_C@_05GFCDIDHO@debug?$AA@ 00000001400fa9e0     client.obj
 0002:000049e8       ??_C@_08PBOCEOLL@database?$AA@ 00000001400fa9e8     client.obj
 0002:000049f4       ??_C@_04OODOLJMA@host?$AA@ 00000001400fa9f4     client.obj
 0002:00004a00       ??_C@_0N@CJBLNCLF@init?9command?$AA@ 00000001400faa00     client.obj
 0002:00004a10       ??_C@_04CCHAHKJA@user?$AA@ 00000001400faa10     client.obj
 0002:00004a18       ??_C@_07DDHNKDGP@timeout?$AA@ 00000001400faa18     client.obj
 0002:00004a24       ??_C@_04MKFKKHBG@pipe?$AA@ 00000001400faa24     client.obj
 0002:00004a30       ??_C@_08EJNPIMGB@compress?$AA@ 00000001400faa30     client.obj
 0002:00004a3c       ??_C@_05MJALLADF@08001?$AA@ 00000001400faa3c     client.obj
 0002:00004a44       ??_C@_05OAGAMKLF@00000?$AA@ 00000001400faa44     client.obj
 0002:00004a4c       ??_C@_02HDBGODGB@?2?2?$AA@ 00000001400faa4c     client.obj
 0002:00004a50       ??_C@_06CKMLAALA@?2pipe?2?$AA@ 00000001400faa50     client.obj
 0002:00004a58       ??_C@_01LFCBOECM@?4?$AA@   00000001400faa58     client.obj
 0002:00004a60       ??_C@_0L@MKBJOBHN@Windows_NT?$AA@ 00000001400faa60     client.obj
 0002:00004a70       ??_C@_02OKOOOCIH@OS?$AA@   00000001400faa70     client.obj
 0002:00004a78       ??_C@_0CA@ONJAFPFC@Unknown?5option?5to?5protocol?3?5?$CFs?6?$AA@ 00000001400faa78     client.obj
 0002:00004aa0       ??_C@_06DGDLPBAN@client?$AA@ 00000001400faaa0     client.obj
 0002:00004aa8       ??_C@_04ODABKPJA@?1CN?$DN?$AA@ 00000001400faaa8     client.obj
 0002:00004ab0       ??_C@_0CP@EINHLMKL@COLLATION?5?$CFs?5is?5not?5valid?5for?5CH@ 00000001400faab0     client.obj
 0002:00004ae8       ??_C@_0BC@BNNCKLMG@latin1_swedish_ci?$AA@ 00000001400faae8     client.obj
 0002:00004b00       ??_C@_06CDEFMFPB@latin1?$AA@ 00000001400fab00     client.obj
 0002:00004b08       ??_C@_0N@HAKKOMP@SET?5NAMES?5?$CFs?$AA@ 00000001400fab08     client.obj
 0002:00004b18       ??_C@_0CD@CIHNPOGB@sending?5authentication?5informati@ 00000001400fab18     client.obj
 0002:00004b48       ??_C@_0BJ@EDEHFNCE@Setting?5intital?5database?$AA@ 00000001400fab48     client.obj
 0002:00004b68       ??_C@_0BN@NHONKCFH@sending?5password?5information?$AA@ 00000001400fab68     client.obj
 0002:00004b90       ??_C@_0CC@FOKDGKNL@reading?5final?5connect?5informatio@ 00000001400fab90     client.obj
 0002:00004bb8       ??_C@_0BN@IKPBBPKC@reading?5authorization?5packet?$AA@ 00000001400fabb8     client.obj
 0002:00004be0       ??_C@_0CJ@OKBDLPBM@sending?5connection?5information?5t@ 00000001400fabe0     client.obj
 0002:00004c18       ??_C@_0CF@JIJHEKCB@reading?5initial?5communication?5pa@ 00000001400fac18     client.obj
 0002:00004c48       ??_C@_0CJ@GFOPAJCF@waiting?5for?5initial?5communicatio@ 00000001400fac48     client.obj
 0002:00004c7c       ??_C@_05OBDDCBJC@MySQL?$AA@ 00000001400fac7c     client.obj
 0002:00004c84       ??_C@_02LOEMLMCB@my?$AA@   00000001400fac84     client.obj
 0002:00004c88       ??_C@_01NBENCBCI@?$CK?$AA@ 00000001400fac88     get_password.obj
 0002:00004c8c       ??_C@_03OLJLMEOE@?$AI?5?$AI?$AA@ 00000001400fac8c     get_password.obj
 0002:00004c90       ??_C@_0KP@MJIINCCO@The?5number?5of?5columns?5in?5the?5res@ 00000001400fac90     errmsg.obj
 0002:00004d68       ??_C@_0DO@EFIILPCK@Statement?5closed?5indirectly?5beca@ 00000001400fad68     errmsg.obj
 0002:00004db8       ??_C@_0DK@NDNCLJNI@Lost?5connection?5to?5MySQL?5server?5@ 00000001400fadb8     errmsg.obj
 0002:00004e00       ??_C@_0CE@HBOGEKGA@This?5feature?5is?5not?5implemented?5@ 00000001400fae00     errmsg.obj
 0002:00004e30       ??_C@_0FB@FBBFBAHN@Attempt?5to?5read?5a?5row?5while?5ther@ 00000001400fae30     errmsg.obj
 0002:00004e98       ??_C@_0CI@HALOFLAE@Prepared?5statement?5contains?5no?5m@ 00000001400fae98     errmsg.obj
 0002:00004ec8       ??_C@_0CP@CONJDJBD@Attempt?5to?5read?5column?5without?5p@ 00000001400faec8     errmsg.obj
 0002:00004f00       ??_C@_0DG@NCJJHECB@Row?5retrieval?5was?5canceled?5by?5my@ 00000001400faf00     errmsg.obj
 0002:00004f40       ??_C@_0GH@LCEGFGKM@Connection?5using?5old?5?$CIpre?94?41?41?$CJ@ 00000001400faf40     errmsg.obj
 0002:00004fc0       ??_C@_0BK@JMIMHFDF@Invalid?5connection?5handle?$AA@ 00000001400fafc0     errmsg.obj
 0002:00004fe0       ??_C@_0BK@GLFMEDLO@Wrong?5or?5unknown?5protocol?$AA@ 00000001400fafe0     errmsg.obj
 0002:00005000       ??_C@_0EE@IPCCLOKB@Can?8t?5open?5shared?5memory?$DL?5cannot@ 00000001400fb000     errmsg.obj
 0002:00005058       ??_C@_0DG@KGBHPOJD@Can?8t?5open?5shared?5memory?$DL?5no?5ans@ 00000001400fb058     errmsg.obj
 0002:000050a0       ??_C@_0EB@MDFKCBGN@Can?8t?5open?5shared?5memory?$DL?5client@ 00000001400fb0a0     errmsg.obj
 0002:000050f0       ??_C@_0EN@FCGLLCJK@Can?8t?5open?5shared?5memory?$DL?5client@ 00000001400fb0f0     errmsg.obj
 0002:00005150       ??_C@_0EH@LNAOKCEE@Can?8t?5open?5shared?5memory?$DL?5client@ 00000001400fb150     errmsg.obj
 0002:000051b0       ??_C@_0EN@PMIKFHIB@Can?8t?5open?5shared?5memory?$DL?5server@ 00000001400fb1b0     errmsg.obj
 0002:00005210       ??_C@_0EH@KCLOIILK@Can?8t?5open?5shared?5memory?$DL?5server@ 00000001400fb210     errmsg.obj
 0002:00005270       ??_C@_0EF@KIGDFHBB@Can?8t?5open?5shared?5memory?$DL?5no?5ans@ 00000001400fb270     errmsg.obj
 0002:000052d0       ??_C@_0EG@BEPMLGLN@Can?8t?5open?5shared?5memory?$DL?5client@ 00000001400fb2d0     errmsg.obj
 0002:00005328       ??_C@_0BH@OHMIMHCN@Shared?5memory?3?5?$CF?9?4100s?$AA@ 00000001400fb328     errmsg.obj
 0002:00005348       ??_C@_0DD@HBOCKDGH@Using?5unsupported?5buffer?5type?3?5?$CF@ 00000001400fb348     errmsg.obj
 0002:00005390       ??_C@_0EK@GGAINION@Can?8t?5send?5long?5data?5for?5non?9str@ 00000001400fb390     errmsg.obj
 0002:000053e8       ??_C@_0BJ@LEKCEENG@Invalid?5parameter?5number?$AA@ 00000001400fb3e8     errmsg.obj
 0002:00005408       ??_C@_0CF@OAFCOHEP@No?5parameters?5exist?5in?5the?5state@ 00000001400fb408     errmsg.obj
 0002:00005438       ??_C@_0P@KJHDOAKM@Data?5truncated?$AA@ 00000001400fb438     errmsg.obj
 0002:00005450       ??_C@_0DG@PGNJOEPP@No?5data?5supplied?5for?5parameters?5@ 00000001400fb450     errmsg.obj
 0002:00005490       ??_C@_0BH@OCBFPEOC@Statement?5not?5prepared?$AA@ 00000001400fb490     errmsg.obj
 0002:000054b0       ??_C@_0BM@EEGCMMPG@Invalid?5use?5of?5null?5pointer?$AA@ 00000001400fb4b0     errmsg.obj
 0002:000054e0       ??_C@_0FE@HLHPGJMI@This?5client?5library?5is?5licensed?5@ 00000001400fb4e0     errmsg.obj
 0002:00005548       ??_C@_0BB@DAKKIOKN@Malformed?5packet?$AA@ 00000001400fb548     errmsg.obj
 0002:00005560       ??_C@_0BF@GNKPEKCC@SSL?5connection?5error?$AA@ 00000001400fb560     errmsg.obj
 0002:00005580       ??_C@_0BM@DBHHCLGE@Error?5connecting?5to?5master?3?$AA@ 00000001400fb580     errmsg.obj
 0002:000055a8       ??_C@_0BL@NMFPGPDF@Error?5connecting?5to?5slave?3?$AA@ 00000001400fb5a8     errmsg.obj
 0002:000055c8       ??_C@_0BL@BDOEBOAG@Error?5on?5SHOW?5SLAVE?5HOSTS?3?$AA@ 00000001400fb5c8     errmsg.obj
 0002:000055e8       ??_C@_0BM@KEKCHGPI@Error?5on?5SHOW?5SLAVE?5STATUS?3?$AA@ 00000001400fb5e8     errmsg.obj
 0002:00005610       ??_C@_0BA@JILIEPGI@Embedded?5server?$AA@ 00000001400fb610     errmsg.obj
 0002:00005628       ??_C@_0DC@PLGHDHHE@Got?5packet?5bigger?5than?5?8max_allo@ 00000001400fb628     errmsg.obj
 0002:00005668       ??_C@_0DG@MMIKLOLE@Can?8t?5initialize?5character?5set?5?$CF@ 00000001400fb668     errmsg.obj
 0002:000056b0       ??_C@_0EC@JBHOMNCI@Can?8t?5set?5state?5of?5named?5pipe?5to@ 00000001400fb6b0     errmsg.obj
 0002:00005700       ??_C@_0DK@DGFLNGLM@Can?8t?5open?5named?5pipe?5to?5host?3?5?$CF@ 00000001400fb700     errmsg.obj
 0002:00005748       ??_C@_0DO@MCIKAJJD@Can?8t?5wait?5for?5named?5pipe?5to?5hos@ 00000001400fb748     errmsg.obj
 0002:00005798       ??_C@_0BD@MONBAMLI@Named?5pipe?3?5?$CF?9?432s?$AA@ 00000001400fb798     errmsg.obj
 0002:000057b0       ??_C@_0DF@GGAOFKDM@Commands?5out?5of?5sync?$DL?5you?5can?8t?5@ 00000001400fb7b0     errmsg.obj
 0002:000057f0       ??_C@_0CN@MCPHLMHK@Lost?5connection?5to?5MySQL?5server?5@ 00000001400fb7f0     errmsg.obj
 0002:00005828       ??_C@_0BK@OPFAEJOB@Error?5in?5server?5handshake?$AA@ 00000001400fb828     errmsg.obj
 0002:00005848       ??_C@_0BD@JHCOEEJ@?$CF?9?4100s?5via?5TCP?1IP?$AA@ 00000001400fb848     errmsg.obj
 0002:00005860       ??_C@_0BK@OAJGGGIC@Localhost?5via?5UNIX?5socket?$AA@ 00000001400fb860     errmsg.obj
 0002:00005880       ??_C@_0BA@OBGODAJN@Wrong?5host?5info?$AA@ 00000001400fb880     errmsg.obj
 0002:00005898       ??_C@_0BP@LPGLBKOF@MySQL?5client?5ran?5out?5of?5memory?$AA@ 00000001400fb898     errmsg.obj
 0002:000058c0       ??_C@_0DM@BHKAADIN@Protocol?5mismatch?$DL?5server?5versio@ 00000001400fb8c0     errmsg.obj
 0002:00005908       ??_C@_0BL@GGNHAOJF@MySQL?5server?5has?5gone?5away?$AA@ 00000001400fb908     errmsg.obj
 0002:00005928       ??_C@_0CJ@MGNDPAC@Unknown?5MySQL?5server?5host?5?8?$CF?9?410@ 00000001400fb928     errmsg.obj
 0002:00005960       ??_C@_0CA@NNJEMGCD@Can?8t?5create?5TCP?1IP?5socket?5?$CI?$CFd?$CJ?$AA@ 00000001400fb960     errmsg.obj
 0002:00005988       ??_C@_0DA@DGOLCCI@Can?8t?5connect?5to?5MySQL?5server?5on@ 00000001400fb988     errmsg.obj
 0002:000059d0       ??_C@_0EC@FCNCJBBO@Can?8t?5connect?5to?5local?5MySQL?5ser@ 00000001400fb9d0     errmsg.obj
 0002:00005a20       ??_C@_0BO@EGFBLII@Can?8t?5create?5UNIX?5socket?5?$CI?$CFd?$CJ?$AA@ 00000001400fba20     errmsg.obj
 0002:00005a48       ??_C@_0BE@OOMFAHBF@Unknown?5MySQL?5error?$AA@ 00000001400fba48     errmsg.obj
 0002:00005a60       ??_C@_04LHHHFLPP@utf8?$AA@ 00000001400fba60     mysys:charset.obj
 0002:00005a68       ??_C@_04JKLLLNMI@ucs2?$AA@ 00000001400fba68     mysys:charset.obj
 0002:00005a70       ??_C@_09NKDKDEJM@charsets?1?$AA@ 00000001400fba70     mysys:charset.obj
 0002:00005a80       ??_C@_0CJ@GPDDGFPJ@c?3?1Program?5Files?1MySQL?1MySQL?5Ser@ 00000001400fba80     mysys:charset.obj
 0002:00005aac       ??_C@_05KGKMKOAF@share?$AA@ 00000001400fbaac     mysys:charset.obj
 0002:00005ab8       ??_C@_09NJBIMGLE@Index?4xml?$AA@ 00000001400fbab8     mysys:charset.obj
 0002:00005ac4       ??_C@_01OGPIMHDM@?$DP?$AA@ 00000001400fbac4     mysys:charset.obj
 0002:00005ac8       ??_C@_04GAOAGNCM@?4xml?$AA@ 00000001400fbac8     mysys:charset.obj
 0002:00005ad0       ??_C@_05HPPBHLPE@cp932?$AA@ 00000001400fbad0     mysys:charset.obj
 0002:00005ad8       ??_C@_02GFBACKGC@cp?$AA@   00000001400fbad8     mysys:charset.obj
 0002:00005adc       ??_C@_04KOCLJNO@LPT9?$AA@  00000001400fbadc     mysys:my_access.obj
 0002:00005ae4       ??_C@_04BDPJIIJP@LPT8?$AA@ 00000001400fbae4     mysys:my_access.obj
 0002:00005aec       ??_C@_04JEGBJEFA@LPT7?$AA@ 00000001400fbaec     mysys:my_access.obj
 0002:00005af4       ??_C@_04INHKKFBB@LPT6?$AA@ 00000001400fbaf4     mysys:my_access.obj
 0002:00005afc       ??_C@_04KGFHPGNC@LPT5?$AA@ 00000001400fbafc     mysys:my_access.obj
 0002:00005b04       ??_C@_04LPEMMHJD@LPT4?$AA@ 00000001400fbb04     mysys:my_access.obj
 0002:00005b0c       ??_C@_04PAANFBFE@LPT3?$AA@ 00000001400fbb0c     mysys:my_access.obj
 0002:00005b14       ??_C@_04OJBGGABF@LPT2?$AA@ 00000001400fbb14     mysys:my_access.obj
 0002:00005b1c       ??_C@_04MCDLDDNG@LPT1?$AA@ 00000001400fbb1c     mysys:my_access.obj
 0002:00005b24       ??_C@_04JDDPPBDJ@COM9?$AA@ 00000001400fbb24     mysys:my_access.obj
 0002:00005b2c       ??_C@_04IKCEMAHI@COM8?$AA@ 00000001400fbb2c     mysys:my_access.obj
 0002:00005b34       ??_C@_04NLMNMLH@COM7?$AA@  00000001400fbb34     mysys:my_access.obj
 0002:00005b3c       ??_C@_04BEKHONPG@COM6?$AA@ 00000001400fbb3c     mysys:my_access.obj
 0002:00005b44       ??_C@_04DPIKLODF@COM5?$AA@ 00000001400fbb44     mysys:my_access.obj
 0002:00005b4c       ??_C@_04CGJBIPHE@COM4?$AA@ 00000001400fbb4c     mysys:my_access.obj
 0002:00005b54       ??_C@_04GJNABJLD@COM3?$AA@ 00000001400fbb54     mysys:my_access.obj
 0002:00005b5c       ??_C@_04HAMLCIPC@COM2?$AA@ 00000001400fbb5c     mysys:my_access.obj
 0002:00005b64       ??_C@_04FLOGHLDB@COM1?$AA@ 00000001400fbb64     mysys:my_access.obj
 0002:00005b6c       ??_C@_03JDMLODLP@NUL?$AA@  00000001400fbb6c     mysys:my_access.obj
 0002:00005b70       ??_C@_03OFAGCELM@AUX?$AA@  00000001400fbb70     mysys:my_access.obj
 0002:00005b74       ??_C@_03BEHELHBE@PRN?$AA@  00000001400fbb74     mysys:my_access.obj
 0002:00005b78       ??_C@_03ECCGHPEG@CON?$AA@  00000001400fbb78     mysys:my_access.obj
 0002:00005b7c       ??_C@_06LBMPDOLO@CLOCK$?$AA@ 00000001400fbb7c     mysys:my_access.obj
 0002:00005b84       ??_C@_04BPFBOLGB@?4cnf?$AA@ 00000001400fbb84     mysys:default.obj
 0002:00005b8c       ??_C@_04PHHEBHMK@?4ini?$AA@ 00000001400fbb8c     mysys:default.obj
 0002:00005bb0       ??_C@_0BJ@KIKAGLAC@?9?9defaults?9group?9suffix?$DN?$AA@ 00000001400fbbb0     mysys:default.obj
 0002:00005bd0       ??_C@_0DM@LOBIDFGL@error?3?5Wrong?5?8?$CB?$CFs?8?5directive?5in?5@ 00000001400fbbd0     mysys:default.obj
 0002:00005c10       ??_C@_09FJGNFLHN@?2System32?$AA@ 00000001400fbc10     mysys:default.obj
 0002:00005c20       ??_C@_0BL@CAKPALPI@GetSystemWindowsDirectoryA?$AA@ 00000001400fbc20     mysys:default.obj
 0002:00005c40       ??_C@_0N@MDJJJHMB@kernel32?4dll?$AA@ 00000001400fbc40     mysys:default.obj
 0002:00005c50       ??_C@_0L@DODNGCIN@MYSQL_HOME?$AA@ 00000001400fbc50     mysys:default.obj
 0002:00005c5c       ??_C@_03GMPKIPBL@C?3?1?$AA@ 00000001400fbc5c     mysys:default.obj
 0002:00005c60       ??_C@_0EM@DMHOPFHM@error?3?5Found?5option?5without?5prec@ 00000001400fbc60     mysys:default.obj
 0002:00005cb0       ??_C@_0DN@MBLPBICC@error?3?5Wrong?5group?5definition?5in@ 00000001400fbcb0     mysys:default.obj
 0002:00005cf0       ??_C@_0GG@GBLJMDFL@Warning?3?5skipping?5?8?$CFs?8?5directive@ 00000001400fbcf0     mysys:default.obj
 0002:00005d58       ??_C@_01CLKCMJKC@?5?$AA@   00000001400fbd58     mysys:default.obj
 0002:00005d60       ??_C@_0DF@OKDAKIKM@Internal?5error?5initializing?5defa@ 00000001400fbd60     mysys:default.obj
 0002:00005da0       ??_C@_0EH@NKGMIPDP@?6Default?5options?5are?5read?5from?5t@ 00000001400fbda0     mysys:default.obj
 0002:00005df0       ??_C@_0BFH@LPFPCOIJ@?6The?5following?5options?5may?5be?5gi@ 00000001400fbdf0     mysys:default.obj
 0002:00005f48       ??_C@_0BP@MNBILDMG@The?5following?5groups?5are?5read?3?$AA@ 00000001400fbf48     mysys:default.obj
 0002:00005f68       ??_C@_0DD@BMIFLCG@Fatal?5error?5in?5defaults?5handling@ 00000001400fbf68     mysys:default.obj
 0002:00005fa0       ??_C@_0CL@DPGKONAJ@Could?5not?5open?5required?5defaults@ 00000001400fbfa0     mysys:default.obj
 0002:00005fd0       ??_C@_0BD@GMCINPDE@MYSQL_GROUP_SUFFIX?$AA@ 00000001400fbfd0     mysys:default.obj
 0002:00005fe4       ??_C@_03IKGEINEE@?$CFs?5?$AA@ 00000001400fbfe4     mysys:default.obj
 0002:00005fe8       ??_C@_0DK@MHCNAEBD@?$CFs?5would?5have?5been?5started?5with?5@ 00000001400fbfe8     mysys:default.obj
 0002:00006028       ??_C@_0BB@BKNLJB@?9?9print?9defaults?$AA@ 00000001400fc028     mysys:default.obj
 0002:00006040       ??_C@_08LMJEPNLL@defaults?$AA@ 00000001400fc040     mysys:default.obj
 0002:0000604c       ??_C@_02DJGKEECL@?4?4?$AA@ 00000001400fc04c     mysys:mf_loadpath.obj
 0002:00006050       ??_C@_07CCIHIKOK@no_name?$AA@ 00000001400fc050     mysys:my_thr_init.obj
 0002:00006058       ??_C@_0CE@CLEEBIJB@Can?8t?5initialize?5threads?3?5error?5@ 00000001400fc058     mysys:my_thr_init.obj
 0002:00006080       ??_C@_0BL@LPICHLF@01230120022455012623010202?$AA@ 00000001400fc080     mysys:my_static.obj
 0002:000060a0       ??_C@_0BA@KPMGBOMG@?$CFs?4?$CF08X?4deleted?$AA@ 00000001400fc0a0     mysys:my_delete.obj
 0002:000060b0       ??_C@_0P@NEKPODBM@SOFTWARE?2MySQL?$AA@ 00000001400fc0b0     mysys:my_init.obj
 0002:000060c0       ??_C@_0L@LKJCDLMN@HAVE_TCPIP?$AA@ 00000001400fc0c0     mysys:my_init.obj
 0002:000060d0       ??_C@_0DF@KNCKAEOE@SYSTEM?2CurrentControlSet?2Service@ 00000001400fc0d0     mysys:my_init.obj
 0002:00006108       ??_C@_0DG@NPLBFMIJ@SYSTEM?2CurrentControlSet?2Service@ 00000001400fc108     mysys:my_init.obj
 0002:00006140       ??_C@_0DD@IKBMIFKO@SYSTEM?2CurrentControlSet?2Service@ 00000001400fc140     mysys:my_init.obj
 0002:00006178       ??_C@_09KHPDOLMK@UMASK_DIR?$AA@ 00000001400fc178     mysys:my_init.obj
 0002:00006184       ??_C@_05OMMCGCJP@UMASK?$AA@ 00000001400fc184     mysys:my_init.obj
 0002:0000618c       ??_C@_04GHGFPGNC@HOME?$AA@ 00000001400fc18c     mysys:my_init.obj
 0002:00006194       ??_C@_05HBBNPFP@loose?$AA@ 00000001400fc194     mysys:my_getopt.obj
 0002:000061a0       ??_C@_07MEIENILC@maximum?$AA@ 00000001400fc1a0     mysys:my_getopt.obj
 0002:000061a8       ??_C@_06OFNJOBDK@enable?$AA@ 00000001400fc1a8     mysys:my_getopt.obj
 0002:000061b0       ??_C@_07DBNODEFN@disable?$AA@ 00000001400fc1b0     mysys:my_getopt.obj
 0002:000061b8       ??_C@_04DLBGLKG@skip?$AA@  00000001400fc1b8     mysys:my_getopt.obj
 0002:000061d8       ??_C@_02DKCKIIND@?$CFs?$AA@ 00000001400fc1d8     mysys:my_getopt.obj
 0002:000061dc       ??_C@_06EILBFPFN@Info?3?5?$AA@ 00000001400fc1dc     mysys:my_getopt.obj
 0002:000061e8       ??_C@_09CKCJCCOK@Warning?3?5?$AA@ 00000001400fc1e8     mysys:my_getopt.obj
 0002:000061f8       ??_C@_0DJ@LCKGBNKC@Unknown?5suffix?5?8?$CFc?8?5used?5for?5var@ 00000001400fc1f8     mysys:my_getopt.obj
 0002:00006238       ??_C@_0BO@MNLPLDPE@Incorrect?5integer?5value?3?5?8?$CFs?8?$AA@ 00000001400fc238     mysys:my_getopt.obj
 0002:00006258       ??_C@_0CM@CINNIGFM@option?5?8?$CFs?8?3?5signed?5value?5?$CFs?5adj@ 00000001400fc258     mysys:my_getopt.obj
 0002:00006288       ??_C@_0CO@JEKLPIGP@option?5?8?$CFs?8?3?5unsigned?5value?5?$CFs?5a@ 00000001400fc288     mysys:my_getopt.obj
 0002:000062b8       ??_C@_0DC@CLHAAIAH@?$CFs?3?5ERROR?3?5Invalid?5decimal?5value@ 00000001400fc2b8     mysys:my_getopt.obj
 0002:000062f0       ??_C@_0L@PIHEMIFO@?$CFs?$DNname?$CFs?5?$AA@ 00000001400fc2f0     mysys:my_getopt.obj
 0002:00006300       ??_C@_07JMJBGKBC@?$CFs?$DN?$CD?$CFs?5?$AA@ 00000001400fc300     mysys:my_getopt.obj
 0002:00006308       ??_C@_04GIEADKIK@?9?9?$CFs?$AA@ 00000001400fc308     mysys:my_getopt.obj
 0002:00006310       ??_C@_07NACDLBD@?5?5?9?$CFc?$CFs?$AA@ 00000001400fc310     mysys:my_getopt.obj
 0002:00006318       ??_C@_02KNHHEEKP@?5?5?$AA@ 00000001400fc318     mysys:my_getopt.obj
 0002:0000631c       ??_C@_02KEGNLNML@?0?5?$AA@ 00000001400fc31c     mysys:my_getopt.obj
 0002:00006320       ??_C@_0M@EPOBBBBF@?$CIDisabled?$CJ?6?$AA@ 00000001400fc320     mysys:my_getopt.obj
 0002:0000632c       ??_C@_03POCAEKMA@?$CFg?6?$AA@ 00000001400fc32c     mysys:my_getopt.obj
 0002:00006330       ??_C@_04OJNJKCBM@?$CFlu?6?$AA@ 00000001400fc330     mysys:my_getopt.obj
 0002:00006338       ??_C@_04PEDNGLFL@?$CFld?6?$AA@ 00000001400fc338     mysys:my_getopt.obj
 0002:00006340       ??_C@_05MAJJAKPI@FALSE?$AA@ 00000001400fc340     mysys:my_getopt.obj
 0002:00006348       ??_C@_0BD@IAAJELIC@?$CINo?5default?5value?$CJ?$AA@ 00000001400fc348     mysys:my_getopt.obj
 0002:0000635c       ??_C@_03CGNBMCEI@?$CFs?0?$AA@ 00000001400fc35c     mysys:my_getopt.obj
 0002:00006360       ??_C@_04HCDDPBNL@TRUE?$AA@ 00000001400fc360     mysys:my_getopt.obj
 0002:00006370       ??_C@_0EB@DLNDDEIC@?9?9?9?9?9?9?9?9?9?9?9?9?9?9?9?9?9?9?9?9?9?9?9?9?9?9?9?9?9?9?9?9@ 00000001400fc370     mysys:my_getopt.obj
 0002:000063c0       ??_C@_0EB@MLHGNKOO@and?5boolean?5options?5?$HLFALSE?$HMTRUE?$HN@ 00000001400fc3c0     mysys:my_getopt.obj
 0002:00006408       ??_C@_0CE@PGFPJDHK@?6Variables?5?$CI?9?9variable?9name?$DNvalu@ 00000001400fc408     mysys:my_getopt.obj
 0002:00006430       ??_C@_0CF@LIKIEIBC@?$CFs?3?5ambiguous?5option?5?8?9?9?$CFs?8?5?$CI?$CFs?0@ 00000001400fc430     mysys:my_getopt.obj
 0002:00006458       ??_C@_0CH@NLLNKKKI@?$CFs?3?5variable?5prefix?5?8?$CFs?8?5is?5not?5@ 00000001400fc458     mysys:my_getopt.obj
 0002:00006480       ??_C@_0CH@FPNHAJDD@?$CFs?3?5option?5?8?9?9?$CFs?8?5requires?5an?5ar@ 00000001400fc480     mysys:my_getopt.obj
 0002:000064a8       ??_C@_0CK@KELFDMIH@?$CFs?3?5option?5?8?9?9?$CFs?8?5cannot?5take?5an@ 00000001400fc4a8     mysys:my_getopt.obj
 0002:000064d8       ??_C@_0CI@IFAFNNJB@?$CFs?3?5option?5?8?$CFs?8?5cannot?5take?5an?5a@ 00000001400fc4d8     mysys:my_getopt.obj
 0002:00006500       ??_C@_0CJ@FNGIKGPP@?$CFs?3?5ambiguous?5option?5?8?9?9?$CFs?9?$CFs?8?5?$CI@ 00000001400fc500     mysys:my_getopt.obj
 0002:00006530       ??_C@_0CF@MFEIKBHA@?$CFs?3?5Option?5?8?9O?8?5requires?5an?5argu@ 00000001400fc530     mysys:my_getopt.obj
 0002:00006558       ??_C@_0BJ@PLKIKLOO@?$CFs?3?5unknown?5option?5?8?9?$CFc?8?$AA@ 00000001400fc558     mysys:my_getopt.obj
 0002:00006578       ??_C@_0CP@OAGPFOL@?$CFs?3?5ERROR?3?5Option?5?8?9?$CFc?8?5used?0?5bu@ 00000001400fc578     mysys:my_getopt.obj
 0002:000065a8       ??_C@_0CL@CIFFNEPP@?$CFs?3?5Error?5while?5setting?5value?5?8?$CF@ 00000001400fc5a8     mysys:my_getopt.obj
 0002:000065d8       ??_C@_0CG@OPCNLHEP@?$CFs?3?5option?5?8?9?$CFc?8?5requires?5an?5arg@ 00000001400fc5d8     mysys:my_getopt.obj
 0002:00006600       ??_C@_0DF@NCABEMAI@?$CFs?3?5ignoring?5option?5?8?9?9?$CFs?8?5due?5t@ 00000001400fc600     mysys:my_getopt.obj
 0002:00006638       ??_C@_05LAPONLG@false?$AA@ 00000001400fc638     mysys:my_getopt.obj
 0002:00006640       ??_C@_04LOAJBDKD@true?$AA@ 00000001400fc640     mysys:my_getopt.obj
 0002:00006648       ??_C@_0CL@BLOGDLDC@?$CFs?3?5?$CFs?3?5Option?5?8?$CFs?8?5used?0?5but?5is@ 00000001400fc648     mysys:my_getopt.obj
 0002:00006678       ??_C@_07KCOHIFOP@WARNING?$AA@ 00000001400fc678     mysys:my_getopt.obj
 0002:00006680       ??_C@_0BK@HIDGBPPN@?$CFs?3?5unknown?5option?5?8?9?9?$CFs?8?$AA@ 00000001400fc680     mysys:my_getopt.obj
 0002:000066a0       ??_C@_0BK@JFALHNEE@?$CFs?3?5unknown?5variable?5?8?$CFs?8?$AA@ 00000001400fc6a0     mysys:my_getopt.obj
 0002:000066bc       ??_C@_01HIHLOKLC@1?$AA@    00000001400fc6bc     mysys:my_getopt.obj
 0002:000066c0       ??_C@_0DB@OBCAMIPA@?$CFs?3?5Option?5?8?9?9set?9variable?8?5requ@ 00000001400fc6c0     mysys:my_getopt.obj
 0002:00006700       ??_C@_0EO@EBDGGIGH@?$CFs?3?5Option?5?8?9?9set?9variable?8?5is?5d@ 00000001400fc700     mysys:my_getopt.obj
 0002:00006750       ??_C@_0O@LAIDGFMB@?9set?9variable?$AA@ 00000001400fc750     mysys:my_getopt.obj
 0002:00006760       ??_C@_0EC@ICAHOJIG@?$CFs?3?5Option?5?8?9O?8?5is?5deprecated?4?5U@ 00000001400fc760     mysys:my_getopt.obj
 0002:000067a8       ??_C@_0BB@BIKLJNJD@Unknown?5error?5?$CFd?$AA@ 00000001400fc7a8     mysys:my_error.obj
 0002:000067c0       sha_const_key              00000001400fc7c0     mysys:sha1.obj
 0002:000067ec       ??_C@_05FGCMFDGF@?0?8?$CFs?8?$AA@ 00000001400fc7ec     mysys:typelib.obj
 0002:000067f8       ??_C@_0BH@HMCJGOJH@Alternatives?5are?3?5?8?$CFs?8?$AA@ 00000001400fc7f8     mysys:typelib.obj
 0002:00006810       ??_C@_0BK@GLIPEDIK@Unknown?5option?5to?5?$CFs?3?5?$CFs?6?$AA@ 00000001400fc810     mysys:typelib.obj
 0002:00006830       ??_C@_0BH@NDCEODGI@No?5option?5given?5to?5?$CFs?6?$AA@ 00000001400fc830     mysys:typelib.obj
 0002:00006848       ??_C@_01KICIPPFI@?2?$AA@   00000001400fc848     mysys:my_getwd.obj
 0002:00006850       ??_C@_08KKHFAPMN@UNOPENED?$AA@ 00000001400fc850     mysys:my_div.obj
 0002:00006860       ??_C@_07NFANNNEC@UNKNOWN?$AA@ 00000001400fc860     mysys:my_div.obj
 0002:00006868       ??_C@_0DI@JALLKPON@Can?8t?5change?5permissions?5of?5the?5@ 00000001400fc868     mysys:errors.obj
 0002:000068a0       ??_C@_0DG@LHNCLHDC@Can?8t?5change?5ownership?5of?5the?5fi@ 00000001400fc8a0     mysys:errors.obj
 0002:000068d8       ??_C@_0CG@OCCIMCJO@File?5?8?$CFs?8?5?$CIfileno?3?5?$CFd?$CJ?5was?5not?5c@ 00000001400fc8d8     mysys:errors.obj
 0002:00006900       ??_C@_0CC@POIIBGBO@File?5?8?$CFs?8?5not?5found?5?$CIErrcode?3?5?$CFd@ 00000001400fc900     mysys:errors.obj
 0002:00006930       ??_C@_0FB@HBKGDBGI@Collation?5?8?$CFs?8?5is?5not?5a?5compiled@ 00000001400fc930     mysys:errors.obj
 0002:00006988       ??_C@_0CL@IPPKDKJC@Can?8t?5sync?5file?5?8?$CFs?8?5to?5disk?5?$CIEr@ 00000001400fc988     mysys:errors.obj
 0002:000069b8       ??_C@_0CH@DMNLJIAN@Error?5on?5realpath?$CI?$CJ?5on?5?8?$CFs?8?5?$CIErr@ 00000001400fc9b8     mysys:errors.obj
 0002:000069e0       ??_C@_0DG@MPBGHFJG@Can?8t?5create?5symlink?5?8?$CFs?8?5pointi@ 00000001400fc9e0     mysys:errors.obj
 0002:00006a18       ??_C@_0CN@FDDHNKAL@Can?8t?5read?5value?5for?5symlink?5?8?$CFs@ 00000001400fca18     mysys:errors.obj
 0002:00006a48       ??_C@_0DG@HFJCEGGP@Out?5of?5resources?5when?5opening?5fi@ 00000001400fca48     mysys:errors.obj
 0002:00006a80       ??_C@_0FJ@LJEFGFHC@Character?5set?5?8?$CFs?8?5is?5not?5a?5comp@ 00000001400fca80     mysys:errors.obj
 0002:00006ae0       ??_C@_0CK@KAOBDLLK@Can?8t?5create?5directory?5?8?$CFs?8?5?$CIErr@ 00000001400fcae0     mysys:errors.obj
 0002:00006b10       ??_C@_0JL@NKJOFGOC@Disk?5is?5full?5writing?5?8?$CFs?8?5?$CIErrco@ 00000001400fcb10     mysys:errors.obj
 0002:00006bb0       ??_C@_0CP@OFJOGNNM@Warning?3?5?$CFd?5files?5and?5?$CFd?5streams@ 00000001400fcbb0     mysys:errors.obj
 0002:00006be0       ??_C@_0BL@KPAFHPFA@Warning?3?5?8?$CFs?8?5had?5?$CFd?5links?$AA@ 00000001400fcbe0     mysys:errors.obj
 0002:00006c00       ??_C@_0CH@HKPCIIFI@Can?8t?5change?5dir?5to?5?8?$CFs?8?5?$CIErrcod@ 00000001400fcc00     mysys:errors.obj
 0002:00006c28       ??_C@_0CJ@HHIGEGH@Can?8t?5get?5working?5dirctory?5?$CIErrc@ 00000001400fcc28     mysys:errors.obj
 0002:00006c58       ??_C@_0CM@IDOLEFDO@Can?8t?5open?5stream?5from?5handle?5?$CIE@ 00000001400fcc58     mysys:errors.obj
 0002:00006c88       ??_C@_0CI@JHPDBJAP@Can?8t?5change?5size?5of?5file?5?$CIErrco@ 00000001400fcc88     mysys:errors.obj
 0002:00006cb0       ??_C@_0CF@EBINEGNH@Can?8t?5get?5stat?5of?5?8?$CFs?8?5?$CIErrcode?3@ 00000001400fccb0     mysys:errors.obj
 0002:00006cd8       ??_C@_0CF@DKKFLCIK@Can?8t?5read?5dir?5of?5?8?$CFs?8?5?$CIErrcode?3@ 00000001400fccd8     mysys:errors.obj
 0002:00006d00       ??_C@_0CA@NMCGOICJ@Can?8t?5unlock?5file?5?$CIErrcode?3?5?$CFd?$CJ?$AA@ 00000001400fcd00     mysys:errors.obj
 0002:00006d20       ??_C@_0BO@FABCFMMA@Can?8t?5lock?5file?5?$CIErrcode?3?5?$CFd?$CJ?$AA@ 00000001400fcd20     mysys:errors.obj
 0002:00006d40       ??_C@_0DK@OPEJLFLC@Unexpected?5eof?5found?5when?5readin@ 00000001400fcd40     mysys:errors.obj
 0002:00006d80       ??_C@_0CO@NDIKPEAP@Error?5on?5rename?5of?5?8?$CFs?8?5to?5?8?$CFs?8?5@ 00000001400fcd80     mysys:errors.obj
 0002:00006db0       ??_C@_0CG@LPKMPJNP@Error?5on?5delete?5of?5?8?$CFs?8?5?$CIErrcode@ 00000001400fcdb0     mysys:errors.obj
 0002:00006dd8       ??_C@_0CA@NLHLMAKD@Out?5of?5memory?5?$CINeeded?5?$CFu?5bytes?$CJ?$AA@ 00000001400fcdd8     mysys:errors.obj
 0002:00006df8       ??_C@_0CF@BEDBELLH@Error?5on?5close?5of?5?8?$CFs?8?5?$CIErrcode?3@ 00000001400fcdf8     mysys:errors.obj
 0002:00006e20       ??_C@_0CG@CGPFOMKP@Error?5writing?5file?5?8?$CFs?8?5?$CIErrcode@ 00000001400fce20     mysys:errors.obj
 0002:00006e48       ??_C@_0CG@NONCHHAM@Error?5reading?5file?5?8?$CFs?8?5?$CIErrcode@ 00000001400fce48     mysys:errors.obj
 0002:00006e70       ??_C@_0CO@OHAAEPNE@Can?8t?5create?1write?5to?5file?5?8?$CFs?8?5@ 00000001400fce70     mysys:errors.obj
 0002:00006ea0       ??_C@_0CP@BPNOAMDC@Retry?5in?5?$CFd?5secs?4?5Message?5reprin@ 00000001400fcea0     mysys:errors.obj
 0002:00006ed0       ??_C@_04LFNFNAMA@?4sym?$AA@ 00000001400fced0     mysys:mf_pack.obj
 0002:00006ed8       ??_C@_02LMMGGCAJ@?3?5?$AA@ 00000001400fced8     mysys:my_messnc.obj
 0002:00006ee0       ??_C@_0L@BBMDDOEP@latin1_bin?$AA@ 00000001400fcee0     strings:ctype-latin1.obj
 0002:00006ef0       ??_C@_0BC@JEMPBIB@latin1_german2_ci?$AA@ 00000001400fcef0     strings:ctype-latin1.obj
 0002:00006f04       ??_C@_06OJHGLDPL@?$CInull?$CJ?$AA@ 00000001400fcf04     strings:my_vsnprintf.obj
 0002:00006f0c       ??_C@_06FNFBAEBE@binary?$AA@ 00000001400fcf0c     strings:ctype-bin.obj
 0002:00006f18       ??_C@_0CD@LKLOKDOO@charsets?1charset?1collation?1rules@ 00000001400fcf18     strings:ctype.obj
 0002:00006f40       ??_C@_0CD@PFPPDFCJ@charsets?1charset?1collation?1rules@ 00000001400fcf40     strings:ctype.obj
 0002:00006f68       ??_C@_0CD@NONCGGOK@charsets?1charset?1collation?1rules@ 00000001400fcf68     strings:ctype.obj
 0002:00006f90       ??_C@_0CH@EHCCKNPN@charsets?1charset?1collation?1rules@ 00000001400fcf90     strings:ctype.obj
 0002:00006fb8       ??_C@_0BP@MDNMPBHP@charsets?1charset?1collation?1map?$AA@ 00000001400fcfb8     strings:ctype.obj
 0002:00006fd8       ??_C@_0CA@HCJLGNLH@charsets?1charset?1collation?1flag?$AA@ 00000001400fcfd8     strings:ctype.obj
 0002:00006ff8       ??_C@_0CB@IEPLPKEB@charsets?1charset?1collation?1order@ 00000001400fcff8     strings:ctype.obj
 0002:00007020       ??_C@_0BO@PKAEPDFI@charsets?1charset?1collation?1id?$AA@ 00000001400fd020     strings:ctype.obj
 0002:00007040       ??_C@_0CA@ILKNGFEN@charsets?1charset?1collation?1name?$AA@ 00000001400fd040     strings:ctype.obj
 0002:00007060       ??_C@_0BL@JFMDNPGN@charsets?1charset?1collation?$AA@ 00000001400fd060     strings:ctype.obj
 0002:00007080       ??_C@_0BN@PEPOLNOE@charsets?1charset?1unicode?1map?$AA@ 00000001400fd080     strings:ctype.obj
 0002:000070a0       ??_C@_0BJ@KHPKNFM@charsets?1charset?1unicode?$AA@ 00000001400fd0a0     strings:ctype.obj
 0002:000070c0       ??_C@_0BL@ELLNOHCD@charsets?1charset?1lower?1map?$AA@ 00000001400fd0c0     strings:ctype.obj
 0002:000070e0       ??_C@_0BH@HBDHNKIJ@charsets?1charset?1lower?$AA@ 00000001400fd0e0     strings:ctype.obj
 0002:000070f8       ??_C@_0BL@OJLKMJLI@charsets?1charset?1upper?1map?$AA@ 00000001400fd0f8     strings:ctype.obj
 0002:00007118       ??_C@_0BH@CKIJLBDA@charsets?1charset?1upper?$AA@ 00000001400fd118     strings:ctype.obj
 0002:00007130       ??_C@_0BL@KKJMPDHK@charsets?1charset?1ctype?1map?$AA@ 00000001400fd130     strings:ctype.obj
 0002:00007150       ??_C@_0BH@GIOAFMPB@charsets?1charset?1ctype?$AA@ 00000001400fd150     strings:ctype.obj
 0002:00007168       ??_C@_0BH@CENNAKLG@charsets?1charset?1alias?$AA@ 00000001400fd168     strings:ctype.obj
 0002:00007180       ??_C@_0BN@LLOCCHFI@charsets?1charset?1description?$AA@ 00000001400fd180     strings:ctype.obj
 0002:000071a0       ??_C@_0BI@ICKMEODO@charsets?1charset?1family?$AA@ 00000001400fd1a0     strings:ctype.obj
 0002:000071b8       ??_C@_0BG@LDPKBCKB@charsets?1charset?1name?$AA@ 00000001400fd1b8     strings:ctype.obj
 0002:000071d0       ??_C@_0BL@LNCPEELC@charsets?1charset?1binary?9id?$AA@ 00000001400fd1d0     strings:ctype.obj
 0002:000071f0       ??_C@_0BM@NDJFGPHG@charsets?1charset?1primary?9id?$AA@ 00000001400fd1f0     strings:ctype.obj
 0002:00007210       ??_C@_0BB@MPLJNAOI@charsets?1charset?$AA@ 00000001400fd210     strings:ctype.obj
 0002:00007228       ??_C@_0BA@NFCJBDGG@charsets?1max?9id?$AA@ 00000001400fd228     strings:ctype.obj
 0002:00007238       ??_C@_08PBFNHBDC@charsets?$AA@ 00000001400fd238     strings:ctype.obj
 0002:00007248       ??_C@_0N@JABJMIAL@xml?1encoding?$AA@ 00000001400fd248     strings:ctype.obj
 0002:00007258       ??_C@_0M@BOENADBE@xml?1version?$AA@ 00000001400fd258     strings:ctype.obj
 0002:00007264       ??_C@_03PJHHNEEI@xml?$AA@  00000001400fd264     strings:ctype.obj
 0002:00007268       ??_C@_04HHCDBDLF@?5?7?$AN?6?$AA@ 00000001400fd268     strings:ctype.obj
 0002:00007270       ??_C@_06NOJLBGIH@?5?$CFs?5?$CFs?$AA@ 00000001400fd270     strings:ctype.obj
 0002:00007278       ??_C@_03DKMEACPB@?$DM?$DM?$DM?$AA@ 00000001400fd278     strings:ctype.obj
 0002:0000727c       ??_C@_02FODMEDOG@?$DM?$DM?$AA@ 00000001400fd27c     strings:ctype.obj
 0002:00007280       ??_C@_01MNNFJEPP@?$DM?$AA@ 00000001400fd280     strings:ctype.obj
 0002:00007284       ??_C@_01HNPIGOCE@?$CG?$AA@ 00000001400fd284     strings:ctype.obj
 0002:00007288       ??_C@_08DOMPDOCM@compiled?$AA@ 00000001400fd288     strings:ctype.obj
 0002:00007298       ??_C@_07CJDBHDIN@primary?$AA@ 00000001400fd298     strings:ctype.obj
 0002:000072a0       ??_C@_0BC@FAACCCJD@utf8_hungarian_ci?$AA@ 00000001400fd2a0     strings:ctype-uca.obj
 0002:000072b8       ??_C@_0BC@MMMDBEJH@utf8_esperanto_ci?$AA@ 00000001400fd2b8     strings:ctype-uca.obj
 0002:000072d0       ??_C@_0BA@POPDBMKL@utf8_persian_ci?$AA@ 00000001400fd2d0     strings:ctype-uca.obj
 0002:000072e0       ??_C@_0O@JCIJCIKH@utf8_roman_ci?$AA@ 00000001400fd2e0     strings:ctype-uca.obj
 0002:000072f0       ??_C@_0BB@DMDMGDOP@utf8_spanish2_ci?$AA@ 00000001400fd2f0     strings:ctype-uca.obj
 0002:00007308       ??_C@_0P@NIJBPDBH@utf8_slovak_ci?$AA@ 00000001400fd308     strings:ctype-uca.obj
 0002:00007318       ??_C@_0BD@MHPAIICH@utf8_lithuanian_ci?$AA@ 00000001400fd318     strings:ctype-uca.obj
 0002:00007330       ??_C@_0P@LICOLLCI@utf8_danish_ci?$AA@ 00000001400fd330     strings:ctype-uca.obj
 0002:00007340       ??_C@_0O@OMAOFLBG@utf8_czech_ci?$AA@ 00000001400fd340     strings:ctype-uca.obj
 0002:00007350       ??_C@_0BA@HIEJCGP@utf8_turkish_ci?$AA@ 00000001400fd350     strings:ctype-uca.obj
 0002:00007360       ??_C@_0BA@DLMLGKMF@utf8_swedish_ci?$AA@ 00000001400fd360     strings:ctype-uca.obj
 0002:00007370       ??_C@_0BA@BFDLDMHI@utf8_spanish_ci?$AA@ 00000001400fd370     strings:ctype-uca.obj
 0002:00007380       ??_C@_0BB@IDIAKKIG@utf8_estonian_ci?$AA@ 00000001400fd380     strings:ctype-uca.obj
 0002:00007398       ??_C@_0P@BMIMEGFF@utf8_polish_ci?$AA@ 00000001400fd398     strings:ctype-uca.obj
 0002:000073a8       ??_C@_0BC@ONGHKMPJ@utf8_slovenian_ci?$AA@ 00000001400fd3a8     strings:ctype-uca.obj
 0002:000073c0       ??_C@_0BB@EMJFIJEJ@utf8_romanian_ci?$AA@ 00000001400fd3c0     strings:ctype-uca.obj
 0002:000073d8       ??_C@_0BA@GIAOJNDD@utf8_latvian_ci?$AA@ 00000001400fd3d8     strings:ctype-uca.obj
 0002:000073e8       ??_C@_0BC@OLHAMMMB@utf8_icelandic_ci?$AA@ 00000001400fd3e8     strings:ctype-uca.obj
 0002:00007400       ??_C@_0BA@GBKHDDAB@utf8_unicode_ci?$AA@ 00000001400fd400     strings:ctype-uca.obj
 0002:00007410       ??_C@_0BC@JMLAFJDL@ucs2_hungarian_ci?$AA@ 00000001400fd410     strings:ctype-uca.obj
 0002:00007428       ??_C@_0BC@HBGPDP@ucs2_esperanto_ci?$AA@ 00000001400fd428     strings:ctype-uca.obj
 0002:00007440       ??_C@_0BA@PJNOLINJ@ucs2_persian_ci?$AA@ 00000001400fd440     strings:ctype-uca.obj
 0002:00007450       ??_C@_0O@CNOJEKEN@ucs2_roman_ci?$AA@ 00000001400fd450     strings:ctype-uca.obj
 0002:00007460       ??_C@_0BB@ICDAFOFL@ucs2_spanish2_ci?$AA@ 00000001400fd460     strings:ctype-uca.obj
 0002:00007478       ??_C@_0P@JIPBJIBD@ucs2_slovak_ci?$AA@ 00000001400fd478     strings:ctype-uca.obj
 0002:00007488       ??_C@_0BD@BPDBBBIG@ucs2_lithuanian_ci?$AA@ 00000001400fd488     strings:ctype-uca.obj
 0002:000074a0       ??_C@_0P@PIEONACM@ucs2_danish_ci?$AA@ 00000001400fd4a0     strings:ctype-uca.obj
 0002:000074b0       ??_C@_0O@FDGODJPM@ucs2_czech_ci?$AA@ 00000001400fd4b0     strings:ctype-uca.obj
 0002:000074c0       ??_C@_0BA@KJDGBN@ucs2_turkish_ci?$AA@ 00000001400fd4c0     strings:ctype-uca.obj
 0002:000074d0       ??_C@_0BA@DMOGMOLH@ucs2_swedish_ci?$AA@ 00000001400fd4d0     strings:ctype-uca.obj
 0002:000074e0       ??_C@_0BA@BCBGJIAK@ucs2_spanish_ci?$AA@ 00000001400fd4e0     strings:ctype-uca.obj
 0002:000074f0       ??_C@_0BB@DNIMJHDC@ucs2_estonian_ci?$AA@ 00000001400fd4f0     strings:ctype-uca.obj
 0002:00007508       ??_C@_0P@FMOMCNFB@ucs2_polish_ci?$AA@ 00000001400fd508     strings:ctype-uca.obj
 0002:00007518       ??_C@_0BC@CBNFNHFB@ucs2_slovenian_ci?$AA@ 00000001400fd518     strings:ctype-uca.obj
 0002:00007530       ??_C@_0BB@PCJJLEPN@ucs2_romanian_ci?$AA@ 00000001400fd530     strings:ctype-uca.obj
 0002:00007548       ??_C@_0BA@GPCDDJEB@ucs2_latvian_ci?$AA@ 00000001400fd548     strings:ctype-uca.obj
 0002:00007558       ??_C@_0BC@CHMCLHGJ@ucs2_icelandic_ci?$AA@ 00000001400fd558     strings:ctype-uca.obj
 0002:00007570       ??_C@_0BA@GGIKJHHD@ucs2_unicode_ci?$AA@ 00000001400fd570     strings:ctype-uca.obj
 0002:00008278       ??_C@_0L@JHIJEIOB@?$CFs?5at?5?8?$CFs?8?$AA@ 00000001400fe278     strings:ctype-uca.obj
 0002:00008288       ??_C@_0BC@FMLIFBCF@Unknown?5character?$AA@ 00000001400fe288     strings:ctype-uca.obj
 0002:000082a0       ??_C@_0L@BNFOJFGF@?$CG?5expected?$AA@ 00000001400fe2a0     strings:ctype-uca.obj
 0002:000082b0       ??_C@_0BA@CIAPGHM@?$CG?5or?5?$DM?5expected?$AA@ 00000001400fe2b0     strings:ctype-uca.obj
 0002:000082c0       ??_C@_0BD@DBLGAKEN@character?5expected?$AA@ 00000001400fe2c0     strings:ctype-uca.obj
 0002:000082d8       ??_C@_0BE@OMJLCPFJ@Should?5never?5happen?$AA@ 00000001400fe2d8     strings:ctype-uca.obj
 0002:000082f0       ??_C@_0P@MGHCGHFF@Too?5many?5rules?$AA@ 00000001400fe2f0     strings:ctype-uca.obj
 0002:00008300       ??_C@_09LKJGLAE@cp932_bin?$AA@ 00000001400fe300     strings:ctype-cp932.obj
 0002:00008310       ??_C@_0BC@CHMDDICP@cp932_japanese_ci?$AA@ 00000001400fe310     strings:ctype-cp932.obj
 0002:00008330       log_10                     00000001400fe330     strings:strtod.obj
 0002:00008cd8       __real@8000000000000000    00000001400fecd8     strings:strtod.obj
 0002:00008ce0       __real@7fefffffffffffff    00000001400fece0     strings:strtod.obj
 0002:00008ce8       __real@3ffcc359e067a348    00000001400fece8     strings:strtod.obj
 0002:00008cf0       __real@4024000000000000    00000001400fecf0     strings:strtod.obj
 0002:00008cf8       __real@3ff0000000000000    00000001400fecf8     strings:strtod.obj
 0002:00008d00       ??_C@_0BB@LGBJIEIE@cp1250_polish_ci?$AA@ 00000001400fed00     strings:ctype-extra.obj
 0002:00008d18       ??_C@_0BC@DDCCPNHL@latin1_spanish_ci?$AA@ 00000001400fed18     strings:ctype-extra.obj
 0002:00008d30       ??_C@_0M@DIHPIFMI@geostd8_bin?$AA@ 00000001400fed30     strings:ctype-extra.obj
 0002:00008d40       ??_C@_0BD@IFKPCMBG@geostd8_general_ci?$AA@ 00000001400fed40     strings:ctype-extra.obj
 0002:00008d58       ??_C@_07GCLBCFCK@geostd8?$AA@ 00000001400fed58     strings:ctype-extra.obj
 0002:00008d60       ??_C@_08CBKIAJIL@swe7_bin?$AA@ 00000001400fed60     strings:ctype-extra.obj
 0002:00008d70       ??_C@_09KENDFOKA@cp852_bin?$AA@ 00000001400fed70     strings:ctype-extra.obj
 0002:00008d80       ??_C@_09OJBLPPKL@cp850_bin?$AA@ 00000001400fed80     strings:ctype-extra.obj
 0002:00008d90       ??_C@_0L@MHJKNNFC@latin7_bin?$AA@ 00000001400fed90     strings:ctype-extra.obj
 0002:00008da0       ??_C@_0L@IKFCHMFJ@latin5_bin?$AA@ 00000001400feda0     strings:ctype-extra.obj
 0002:00008db0       ??_C@_0L@JHFHEMOB@latin2_bin?$AA@ 00000001400fedb0     strings:ctype-extra.obj
 0002:00008dc0       ??_C@_09COHLDLLI@koi8u_bin?$AA@ 00000001400fedc0     strings:ctype-extra.obj
 0002:00008dd0       ??_C@_09DDHOALAA@koi8r_bin?$AA@ 00000001400fedd0     strings:ctype-extra.obj
 0002:00008de0       ??_C@_0M@NJOCNGMA@keybcs2_bin?$AA@ 00000001400fede0     strings:ctype-extra.obj
 0002:00008df0       ??_C@_07KIGBPGH@hp8_bin?$AA@ 00000001400fedf0     strings:ctype-extra.obj
 0002:00008df8       ??_C@_0L@INPMEGLK@hebrew_bin?$AA@ 00000001400fedf8     strings:ctype-extra.obj
 0002:00008e08       ??_C@_09EFLJIAMD@greek_bin?$AA@ 00000001400fee08     strings:ctype-extra.obj
 0002:00008e18       ??_C@_08EFBBJHIK@dec8_bin?$AA@ 00000001400fee18     strings:ctype-extra.obj
 0002:00008e28       ??_C@_09OKKAGCL@cp866_bin?$AA@ 00000001400fee28     strings:ctype-extra.obj
 0002:00008e38       ??_C@_0L@OKMJAEHC@cp1256_bin?$AA@ 00000001400fee38     strings:ctype-extra.obj
 0002:00008e48       ??_C@_0L@DMJAOHGP@cp1250_bin?$AA@ 00000001400fee48     strings:ctype-extra.obj
 0002:00008e58       ??_C@_09BDNLCGDP@ascii_bin?$AA@ 00000001400fee58     strings:ctype-extra.obj
 0002:00008e68       ??_C@_0N@KGPIBLHK@armscii8_bin?$AA@ 00000001400fee68     strings:ctype-extra.obj
 0002:00008e78       ??_C@_0BC@BKAKKOKG@cp1257_general_ci?$AA@ 00000001400fee78     strings:ctype-extra.obj
 0002:00008e90       ??_C@_0L@CBJFNHNH@cp1257_bin?$AA@ 00000001400fee90     strings:ctype-extra.obj
 0002:00008ea0       ??_C@_0BC@MHJMHHCD@cp1256_general_ci?$AA@ 00000001400feea0     strings:ctype-extra.obj
 0002:00008eb4       ??_C@_06LODAGMCK@cp1256?$AA@ 00000001400feeb4     strings:ctype-extra.obj
 0002:00008ec0       ??_C@_0N@HBDGIFNG@macroman_bin?$AA@ 00000001400feec0     strings:ctype-extra.obj
 0002:00008ed0       ??_C@_0BC@KMCILKA@cp1251_general_cs?$AA@ 00000001400feed0     strings:ctype-extra.obj
 0002:00008ee8       ??_C@_0BC@LKOPHBHL@cp1251_general_ci?$AA@ 00000001400feee8     strings:ctype-extra.obj
 0002:00008f00       ??_C@_0L@PHMMDEMK@cp1251_bin?$AA@ 00000001400fef00     strings:ctype-extra.obj
 0002:00008f10       ??_C@_0BC@DDOEKG@latin1_general_cs?$AA@ 00000001400fef10     strings:ctype-extra.obj
 0002:00008f28       ??_C@_0BC@LABOBOHN@latin1_general_ci?$AA@ 00000001400fef28     strings:ctype-extra.obj
 0002:00008f40       ??_C@_0BD@LKINKBJP@cp1250_croatian_ci?$AA@ 00000001400fef40     strings:ctype-extra.obj
 0002:00008f58       ??_C@_09FIGDDDHD@macce_bin?$AA@ 00000001400fef58     strings:ctype-extra.obj
 0002:00008f68       ??_C@_0BC@KANGDLHL@latin7_general_cs?$AA@ 00000001400fef68     strings:ctype-extra.obj
 0002:00008f80       ??_C@_0BC@BAPLMBKA@latin7_general_ci?$AA@ 00000001400fef80     strings:ctype-extra.obj
 0002:00008f98       ??_C@_0BB@HEOOOPD@cp852_general_ci?$AA@ 00000001400fef98     strings:ctype-extra.obj
 0002:00008fac       ??_C@_05MDMAGACD@cp852?$AA@ 00000001400fefac     strings:ctype-extra.obj
 0002:00008fb8       ??_C@_0BE@BLBOGAK@macroman_general_ci?$AA@ 00000001400fefb8     strings:ctype-extra.obj
 0002:00008fd0       ??_C@_08DEGKPPEJ@macroman?$AA@ 00000001400fefd0     strings:ctype-extra.obj
 0002:00008fe0       ??_C@_0BB@PFHIEKKE@macce_general_ci?$AA@ 00000001400fefe0     strings:ctype-extra.obj
 0002:00008ff4       ??_C@_05CFINKOFD@macce?$AA@ 00000001400feff4     strings:ctype-extra.obj
 0002:00009000       ??_C@_0BD@HLAPNNNE@keybcs2_general_ci?$AA@ 00000001400ff000     strings:ctype-extra.obj
 0002:00009018       ??_C@_07JDFJFNII@keybcs2?$AA@ 00000001400ff018     strings:ctype-extra.obj
 0002:00009020       ??_C@_0BB@LLJGKBLO@cp866_general_ci?$AA@ 00000001400ff020     strings:ctype-extra.obj
 0002:00009034       ??_C@_05KFOKBLHO@cp866?$AA@ 00000001400ff034     strings:ctype-extra.obj
 0002:00009040       ??_C@_0BE@ELHAPPLJ@armscii8_general_ci?$AA@ 00000001400ff040     strings:ctype-extra.obj
 0002:00009058       ??_C@_08BDGJEDFB@armscii8?$AA@ 00000001400ff058     strings:ctype-extra.obj
 0002:00009068       ??_C@_0BC@OBCEDJPK@latin5_turkish_ci?$AA@ 00000001400ff068     strings:ctype-extra.obj
 0002:0000907c       ??_C@_06EHCJAAPF@latin5?$AA@ 00000001400ff07c     strings:ctype-extra.obj
 0002:00009088       ??_C@_0BF@MPPNICJ@cp1257_lithuanian_ci?$AA@ 00000001400ff088     strings:ctype-extra.obj
 0002:000090a0       ??_C@_06KHCLFNGL@cp1257?$AA@ 00000001400ff0a0     strings:ctype-extra.obj
 0002:000090a8       ??_C@_0BD@LCIKDBGI@latin2_croatian_ci?$AA@ 00000001400ff0a8     strings:ctype-extra.obj
 0002:000090c0       ??_C@_0BC@GHHJKIPO@cp1250_general_ci?$AA@ 00000001400ff0c0     strings:ctype-extra.obj
 0002:000090d4       ??_C@_06OIGKMLKM@cp1250?$AA@ 00000001400ff0d4     strings:ctype-extra.obj
 0002:000090e0       ??_C@_0BB@CIGFIMGF@greek_general_ci?$AA@ 00000001400ff0e0     strings:ctype-extra.obj
 0002:000090f4       ??_C@_05BMDDGOIH@greek?$AA@ 00000001400ff0f4     strings:ctype-extra.obj
 0002:00009100       ??_C@_0BE@DDCHCMKA@cp1251_ukrainian_ci?$AA@ 00000001400ff100     strings:ctype-extra.obj
 0002:00009118       ??_C@_0BB@MJPFCALL@koi8u_general_ci?$AA@ 00000001400ff118     strings:ctype-extra.obj
 0002:0000912c       ??_C@_05JHCMAEL@koi8u?$AA@ 00000001400ff12c     strings:ctype-extra.obj
 0002:00009138       ??_C@_0BE@IGDBMPBG@latin2_hungarian_ci?$AA@ 00000001400ff138     strings:ctype-extra.obj
 0002:00009150       ??_C@_0BD@FCEAFDJA@latin7_estonian_cs?$AA@ 00000001400ff150     strings:ctype-extra.obj
 0002:00009164       ??_C@_06HFBPGCHH@latin7?$AA@ 00000001400ff164     strings:ctype-extra.obj
 0002:00009170       ??_C@_0BC@LFMOPFOE@hebrew_general_ci?$AA@ 00000001400ff170     strings:ctype-extra.obj
 0002:00009184       ??_C@_06IOFFBGCK@hebrew?$AA@ 00000001400ff184     strings:ctype-extra.obj
 0002:00009190       ??_C@_0BB@HINPBEBI@latin1_danish_ci?$AA@ 00000001400ff190     strings:ctype-extra.obj
 0002:000091a8       ??_C@_0BE@HOCIKLDG@cp1251_bulgarian_ci?$AA@ 00000001400ff1a8     strings:ctype-extra.obj
 0002:000091bc       ??_C@_06PBHBPKON@cp1251?$AA@ 00000001400ff1bc     strings:ctype-extra.obj
 0002:000091c8       ??_C@_0BB@EJGKFKGI@ascii_general_ci?$AA@ 00000001400ff1c8     strings:ctype-extra.obj
 0002:000091dc       ??_C@_05OJENGABA@ascii?$AA@ 00000001400ff1dc     strings:ctype-extra.obj
 0002:000091e8       ??_C@_0BA@CCDGJJLG@swe7_swedish_ci?$AA@ 00000001400ff1e8     strings:ctype-extra.obj
 0002:000091f8       ??_C@_04KPFMKDCH@swe7?$AA@ 00000001400ff1f8     strings:ctype-extra.obj
 0002:00009200       ??_C@_0BC@NNEHCLD@latin2_general_ci?$AA@ 00000001400ff200     strings:ctype-extra.obj
 0002:00009214       ??_C@_06IGIJGDC@latin2?$AA@ 00000001400ff214     strings:ctype-extra.obj
 0002:00009220       ??_C@_0BB@LEIGCGOD@koi8r_general_ci?$AA@ 00000001400ff220     strings:ctype-extra.obj
 0002:00009234       ??_C@_05EGDDFGIM@koi8r?$AA@ 00000001400ff234     strings:ctype-extra.obj
 0002:00009240       ??_C@_0P@FKJAJKJA@hp8_english_ci?$AA@ 00000001400ff240     strings:ctype-extra.obj
 0002:00009250       ??_C@_03GDEHCLKE@hp8?$AA@  00000001400ff250     strings:ctype-extra.obj
 0002:00009258       ??_C@_0BC@EOOMILFB@latin1_german1_ci?$AA@ 00000001400ff258     strings:ctype-extra.obj
 0002:00009270       ??_C@_0BB@GHBCFLLI@cp850_general_ci?$AA@ 00000001400ff270     strings:ctype-extra.obj
 0002:00009284       ??_C@_05PBPGACKB@cp850?$AA@ 00000001400ff284     strings:ctype-extra.obj
 0002:00009290       ??_C@_0BA@KLOOPAA@dec8_swedish_ci?$AA@ 00000001400ff290     strings:ctype-extra.obj
 0002:000092a0       ??_C@_04EJJBHNM@dec8?$AA@  00000001400ff2a0     strings:ctype-extra.obj
 0002:000092a8       ??_C@_08BABJIOEM@filename?$AA@ 00000001400ff2a8     strings:ctype-utf8.obj
 0002:000092b8       ??_C@_08BMIDNPKK@utf8_bin?$AA@ 00000001400ff2b8     strings:ctype-utf8.obj
 0002:000092c8       ??_C@_0BA@JGAHNPHO@utf8_general_ci?$AA@ 00000001400ff2c8     strings:ctype-utf8.obj
 0002:000092d8       ??_C@_0BB@JCEFLFJE@0123456789abcdef?$AA@ 00000001400ff2d8     strings:ctype-utf8.obj
 0002:000092f0       ??_C@_08OGGFHGPF@ujis_bin?$AA@ 00000001400ff2f0     strings:ctype-ujis.obj
 0002:00009300       ??_C@_0BB@KEGFAMFE@ujis_japanese_ci?$AA@ 00000001400ff300     strings:ctype-ujis.obj
 0002:00009314       ??_C@_04BPGAKKKA@ujis?$AA@ 00000001400ff314     strings:ctype-ujis.obj
 0002:00009320       ??_C@_08POIAHHJH@ucs2_bin?$AA@ 00000001400ff320     strings:ctype-ucs2.obj
 0002:00009330       ??_C@_0BA@JBCKHLAM@ucs2_general_ci?$AA@ 00000001400ff330     strings:ctype-ucs2.obj
 0002:00009340       ??_C@_0L@NBGPIHPA@tis620_bin?$AA@ 00000001400ff340     strings:ctype-tis620.obj
 0002:00009350       ??_C@_0P@GFLKKABK@tis620_thai_ci?$AA@ 00000001400ff350     strings:ctype-tis620.obj
 0002:00009360       ??_C@_06MGNELAEE@tis620?$AA@ 00000001400ff360     strings:ctype-tis620.obj
 0002:00009368       ??_C@_08JFHPAPHP@sjis_bin?$AA@ 00000001400ff368     strings:ctype-sjis.obj
 0002:00009378       ??_C@_0BB@DFBLLFM@sjis_japanese_ci?$AA@ 00000001400ff378     strings:ctype-sjis.obj
 0002:0000938c       ??_C@_04JACAFPAA@sjis?$AA@ 00000001400ff38c     strings:ctype-sjis.obj
 0002:00009398       ??_C@_07KJPNPKHF@gbk_bin?$AA@ 00000001400ff398     strings:ctype-gbk.obj
 0002:000093a0       ??_C@_0P@GNPIDCFN@gbk_chinese_ci?$AA@ 00000001400ff3a0     strings:ctype-gbk.obj
 0002:000093b0       ??_C@_03LFBAECHL@gbk?$AA@  00000001400ff3b0     strings:ctype-gbk.obj
 0002:000093b8       ??_C@_0L@ODLCHMHL@gb2312_bin?$AA@ 00000001400ff3b8     strings:ctype-gb2312.obj
 0002:000093c8       ??_C@_0BC@NLCEMJAE@gb2312_chinese_ci?$AA@ 00000001400ff3c8     strings:ctype-gb2312.obj
 0002:000093dc       ??_C@_06JIBIJLME@gb2312?$AA@ 00000001400ff3dc     strings:ctype-gb2312.obj
 0002:000093e8       ??_C@_09JHKEBMLO@euckr_bin?$AA@ 00000001400ff3e8     strings:ctype-euc_kr.obj
 0002:000093f8       ??_C@_0BA@EKHKJCHH@euckr_korean_ci?$AA@ 00000001400ff3f8     strings:ctype-euc_kr.obj
 0002:00009408       ??_C@_05FHCOMIFC@euckr?$AA@ 00000001400ff408     strings:ctype-euc_kr.obj
 0002:00009410       ??_C@_0M@BEKAHKLO@eucjpms_bin?$AA@ 00000001400ff410     strings:ctype-eucjpms.obj
 0002:00009420       ??_C@_0BE@GEODDEKB@eucjpms_japanese_ci?$AA@ 00000001400ff420     strings:ctype-eucjpms.obj
 0002:00009438       ??_C@_07MOEGLBAH@eucjpms?$AA@ 00000001400ff438     strings:ctype-eucjpms.obj
 0002:00009440       ??_C@_0BA@IOACFKLD@latin2_czech_cs?$AA@ 00000001400ff440     strings:ctype-czech.obj
 0002:00009450       ??_C@_04PJNGGADL@?$AF?6?$BC?$BC?$AA@ 00000001400ff450     strings:ctype-czech.obj
 0002:00009458       ??_C@_01GFHCPBMG@C?$AA@    00000001400ff458     strings:ctype-czech.obj
 0002:0000945c       ??_C@_04NALNINKB@?$AF?6?$BB?$BB?$AA@ 00000001400ff45c     strings:ctype-czech.obj
 0002:00009464       ??_C@_01PAPGNFGE@c?$AA@    00000001400ff464     strings:ctype-czech.obj
 0002:00009468       ??_C@_04DCMIHFOD@?$AM?$BJ11?$AA@ 00000001400ff468     strings:ctype-czech.obj
 0002:00009470       ??_C@_02EKMCNAHJ@CH?$AA@   00000001400ff470     strings:ctype-czech.obj
 0002:00009474       ??_C@_04CKBBCOJF@?$AM?$BJ00?$AA@ 00000001400ff474     strings:ctype-czech.obj
 0002:0000947c       ??_C@_02NPEGPENL@Ch?$AA@   00000001400ff47c     strings:ctype-czech.obj
 0002:00009480       ??_C@_04PADBMEEG@?$AM?$BJ?1?1?$AA@ 00000001400ff480     strings:ctype-czech.obj
 0002:00009488       ??_C@_02OHALLCDL@ch?$AA@   00000001400ff488     strings:ctype-czech.obj
 0002:00009490       ??_C@_0BAB@LDKHKKBE@?$LE?$LF?$LG?$LH?$LI?$LJ?$LK?$LL?$LM?$AC?$LO?$LP?$MA?A?B?C?D?E?F?G?H?I?J?K?L?M?N?O?P?Q?R?S@ 00000001400ff490     strings:ctype-czech.obj
 0002:000095a0       ??_C@_0BAB@JENJBEPB@?$AA?$AA?$AA?$AA?$AA?$AA?$AA?$AA?$AA?$AC?$AA?$AA?$AA?$AA?$AA?$AA?$AA?$AA?$AA?$AA?$AA?$AA?$AA?$AA?$AA?$AA?$AA?$AA?$AA?$AA?$AA?$AA@ 00000001400ff5a0     strings:ctype-czech.obj
 0002:000096b0       ??_C@_0BAB@GIDHDAFJ@?$AA?$AA?$AA?$AA?$AA?$AA?$AA?$AA?$AA?$AC?$AA?$AA?$AA?$AA?$AA?$AA?$AA?$AA?$AA?$AA?$AA?$AA?$AA?$AA?$AA?$AA?$AA?$AA?$AA?$AA?$AA?$AA@ 00000001400ff6b0     strings:ctype-czech.obj
 0002:000097c0       ??_C@_0BAB@HNOGOFAJ@?$AA?$AA?$AA?$AA?$AA?$AA?$AA?$AA?$AA?$AC?$AA?$AA?$AA?$AA?$AA?$AA?$AA?$AA?$AA?$AA?$AA?$AA?$AA?$AA?$AA?$AA?$AA?$AA?$AA?$AA?$AA?$AA@ 00000001400ff7c0     strings:ctype-czech.obj
 0002:000098c8       ??_C@_0BA@MDKNCPKD@cp1250_czech_cs?$AA@ 00000001400ff8c8     strings:ctype-win1250ch.obj
 0002:000098d8       ??_C@_08CJHFMMIC@big5_bin?$AA@ 00000001400ff8d8     strings:ctype-big5.obj
 0002:000098e8       ??_C@_0BA@HCMNJPNC@big5_chinese_ci?$AA@ 00000001400ff8e8     strings:ctype-big5.obj
 0002:000098f8       ??_C@_04HDKIILFF@big5?$AA@ 00000001400ff8f8     strings:ctype-big5.obj
 0002:00009900       ??_C@_0O@IDJJBCJJ@unknown?5token?$AA@ 00000001400ff900     strings:xml.obj
 0002:00009910       ??_C@_03BECJNG@?8?$CB?8?$AA@ 00000001400ff910     strings:xml.obj
 0002:00009914       ??_C@_03BGKMKHKM@?8?$DP?8?$AA@ 00000001400ff914     strings:xml.obj
 0002:00009918       ??_C@_04OEPMCOLO@TEXT?$AA@ 00000001400ff918     strings:xml.obj
 0002:00009920       ??_C@_07JEDAPFNH@COMMENT?$AA@ 00000001400ff920     strings:xml.obj
 0002:00009928       ??_C@_03KIKAENM@?8?1?8?$AA@ 00000001400ff928     strings:xml.obj
 0002:0000992c       ??_C@_03BHGOMNJL@?8?$DO?8?$AA@ 00000001400ff92c     strings:xml.obj
 0002:00009930       ??_C@_03BEOKBJPF@?8?$DM?8?$AA@ 00000001400ff930     strings:xml.obj
 0002:00009934       ??_C@_03BFCIHDMC@?8?$DN?8?$AA@ 00000001400ff934     strings:xml.obj
 0002:00009938       ??_C@_05MLPNBPGH@CDATA?$AA@ 00000001400ff938     strings:xml.obj
 0002:00009940       ??_C@_05MDAAGLOE@IDENT?$AA@ 00000001400ff940     strings:xml.obj
 0002:00009948       ??_C@_06IGECGLFO@STRING?$AA@ 00000001400ff948     strings:xml.obj
 0002:00009950       ??_C@_0N@KFMDIEOD@END?9OF?9INPUT?$AA@ 00000001400ff950     strings:xml.obj
 0002:00009960       ??_C@_06NPFKMDPM@?$DP?$DN?1?$DM?$DO?$CB?$AA@ 00000001400ff960     strings:xml.obj
 0002:00009968       ??_C@_09BLLNCBLF@?$DM?$CB?$FLCDATA?$FL?$AA@ 00000001400ff968     strings:xml.obj
 0002:00009974       ??_C@_03PNLDJJMO@?9?9?$DO?$AA@ 00000001400ff974     strings:xml.obj
 0002:00009978       ??_C@_04FFDNBKGC@?$DM?$CB?9?9?$AA@ 00000001400ff978     strings:xml.obj
 0002:00009980       ??_C@_0M@JHPIDPOK@To?5deep?5XML?$AA@ 00000001400ff980     strings:xml.obj
 0002:00009990       ??_C@_0CJ@FBAHKBHA@?8?$DM?1?$CFs?$DO?8?5unexpected?5?$CIEND?9OF?9INPUT@ 00000001400ff990     strings:xml.obj
 0002:000099c0       ??_C@_0CE@HIBBMALO@?8?$DM?1?$CFs?$DO?8?5unexpected?5?$CI?8?$DM?1?$CFs?$DO?8?5want@ 00000001400ff9c0     strings:xml.obj
 0002:000099e8       ??_C@_0CE@KDMBOGDF@?$CFs?5unexpected?5?$CIident?5or?5?8?1?8?5want@ 00000001400ff9e8     strings:xml.obj
 0002:00009a10       ??_C@_0BL@DBFJAODI@?$CFs?5unexpected?5?$CI?8?$DP?8?5wanted?$CJ?$AA@ 00000001400ffa10     strings:xml.obj
 0002:00009a30       ??_C@_0CH@MBBDFLOA@?$CFs?5unexpected?5?$CIident?5or?5string?5w@ 00000001400ffa30     strings:xml.obj
 0002:00009a58       ??_C@_0BN@GIJBNIHN@?$CFs?5unexpected?5?$CIident?5wanted?$CJ?$AA@ 00000001400ffa58     strings:xml.obj
 0002:00009a78       ??_C@_0BI@GOAECBLB@unexpected?5END?9OF?9INPUT?$AA@ 00000001400ffa78     strings:xml.obj
 0002:00009a90       ??_C@_0BL@PANHNBPI@?$CFs?5unexpected?5?$CI?8?$DO?8?5wanted?$CJ?$AA@ 00000001400ffa90     strings:xml.obj
 0002:00009ab0       ??_C@_0M@GPMPBOKO@TCP?1IP?5?$CI?$CFd?$CJ?$AA@ 00000001400ffab0     vio:vio.obj
 0002:00009ac0       ??_C@_0M@BKHBDAGP@socket?5?$CI?$CFd?$CJ?$AA@ 00000001400ffac0     vio:vio.obj
 0002:00009ad0       ??_C@_0L@BGAKJGHL@named?5pipe?$AA@ 00000001400ffad0     vio:vio.obj
 0002:00009ae0       ??_C@_0O@CPADDGOO@shared?5memory?$AA@ 00000001400ffae0     vio:vio.obj
 0002:00009af0       ??_C@_09PFCHIMEP@127?40?40?41?$AA@ 00000001400ffaf0     vio:viosocket.obj
 0002:00009b00       ??_C@_0BD@JKAKBJG@SSL_CTX_new?5failed?$AA@ 00000001400ffb00     vio:viosslfactories.obj
 0002:00009b18       ??_C@_0BN@EHNEHPHI@Failed?5to?5set?5ciphers?5to?5use?$AA@ 00000001400ffb18     vio:viosslfactories.obj
 0002:00009b40       ??_C@_0FN@GPPKHFPO@Private?5key?5does?5not?5match?5the?5c@ 00000001400ffb40     vio:viosslfactories.obj
 0002:00009ba0       ??_C@_0BK@OJIINBMD@Unable?5to?5get?5private?5key?$AA@ 00000001400ffba0     vio:viosslfactories.obj
 0002:00009bc0       ??_C@_0BK@DLGAGNNA@Unable?5to?5get?5certificate?$AA@ 00000001400ffbc0     vio:viosslfactories.obj
 0002:00009be0       ??_C@_08INEPGKHH@No?5error?$AA@ 00000001400ffbe0     vio:viosslfactories.obj
 0002:00009bf0       ??_C@_0P@PDGGPCGE@SSL?5error?3?5?$CFs?6?$AA@ 00000001400ffbf0     vio:viosslfactories.obj
 0002:00009c00       ??_C@_0BJ@DBKDBMMN@SSL?5error?3?5?$CFs?5from?5?8?$CFs?8?6?$AA@ 00000001400ffc00     vio:viosslfactories.obj
 0002:00009c30       ??_7Message@yaSSL@@6B@     00000001400ffc30     yassl:ssl.obj
 0002:00009c68       ??_7HandShakeBase@yaSSL@@6B@ 00000001400ffc68     yassl:ssl.obj
 0002:00009c98       ??_7HASH@TaoCrypt@@6B@     00000001400ffc98     yassl:ssl.obj
 0002:00009cd8       ??_7MD5@TaoCrypt@@6B@      00000001400ffcd8     yassl:ssl.obj
 0002:00009d28       ??_7MD4@TaoCrypt@@6B@      00000001400ffd28     yassl:ssl.obj
 0002:00009d70       ??_C@_0BM@CIPOPOID@Not?5Implemented?0?5SSLv2?5only?$AA@ 00000001400ffd70     yassl:ssl.obj
 0002:00009d8c       ??_C@_05MOEBAHEJ@SSLv3?$AA@ 00000001400ffd8c     yassl:ssl.obj
 0002:00009d94       ??_C@_05LLIBCOJ@TLSv1?$AA@ 00000001400ffd94     yassl:ssl.obj
 0002:00009da0       ??_C@_0BL@IAMLJBHP@SSLeay?5yaSSL?5compatibility?$AA@ 00000001400ffda0     yassl:ssl.obj
 0002:00009dc0       ??_C@_0CI@BCOALAL@Please?5supply?5a?5buffer?5for?5error@ 00000001400ffdc0     yassl:ssl.obj
 0002:00009de8       ??_C@_0BA@JGKGKAME@Not?5Implemented?$AA@ 00000001400ffde8     yassl:ssl.obj
 0002:00009df8       ??_C@_03GCGHEHKJ@MD5?$AA@  00000001400ffdf8     yassl:ssl.obj
 0002:00009e00       ??_C@_0N@MLDFENGJ@DES?9EDE3?9CBC?$AA@ 00000001400ffe00     yassl:ssl.obj
 0002:00009e10       ??_C@_0M@FOEEEMFG@AES?9256?9CBC?$AA@ 00000001400ffe10     yassl:ssl.obj
 0002:00009e20       ??_C@_0M@IMPKGDNH@AES?9192?9CBC?$AA@ 00000001400ffe20     yassl:ssl.obj
 0002:00009e30       ??_C@_0M@CPGGBEEL@AES?9128?9CBC?$AA@ 00000001400ffe30     yassl:ssl.obj
 0002:00009e40       ??_C@_07LDJJJFAI@DES?9CBC?$AA@ 00000001400ffe40     yassl:ssl.obj
 0002:00009e48       ??_C@_02JDPG@rb?$AA@       00000001400ffe48     yassl:ssl.obj
 0002:00009e4c       ??_C@_02KHDDNBB@?2?$CK?$AA@ 00000001400ffe4c     yassl:ssl.obj
 0002:00009e50       ??_C@_07OCFLHCIN@RC4?9MD5?$AA@ 00000001400ffe50     yassl:ssl.obj
 0002:00009e58       ??_C@_07BANEBHLH@RC4?9SHA?$AA@ 00000001400ffe58     yassl:ssl.obj
 0002:00009e60       ??_C@_0M@LLIFGIFE@DES?9CBC?9SHA?$AA@ 00000001400ffe60     yassl:ssl.obj
 0002:00009e70       ??_C@_0N@HCCILIJF@DES?9CBC3?9SHA?$AA@ 00000001400ffe70     yassl:ssl.obj
 0002:00009e80       ??_C@_0BE@COMFBKAK@EDH?9DSS?9DES?9CBC?9SHA?$AA@ 00000001400ffe80     yassl:ssl.obj
 0002:00009e98       ??_C@_0BF@POGOIEBE@EDH?9DSS?9DES?9CBC3?9SHA?$AA@ 00000001400ffe98     yassl:ssl.obj
 0002:00009eb0       ??_C@_0BE@BMKPLFLB@EDH?9RSA?9DES?9CBC?9SHA?$AA@ 00000001400ffeb0     yassl:ssl.obj
 0002:00009ec8       ??_C@_0BF@KCOPIELP@EDH?9RSA?9DES?9CBC3?9SHA?$AA@ 00000001400ffec8     yassl:ssl.obj
 0002:00009ee0       ??_C@_0L@FJECLCPG@AES128?9SHA?$AA@ 00000001400ffee0     yassl:ssl.obj
 0002:00009ef0       ??_C@_0BD@HPNPDEHO@DHE?9DSS?9AES128?9SHA?$AA@ 00000001400ffef0     yassl:ssl.obj
 0002:00009f08       ??_C@_0BD@MNBMGMFC@DHE?9RSA?9AES128?9SHA?$AA@ 00000001400fff08     yassl:ssl.obj
 0002:00009f20       ??_C@_0L@CIGAOKOL@AES256?9SHA?$AA@ 00000001400fff20     yassl:ssl.obj
 0002:00009f30       ??_C@_0BD@OPNGMGD@DHE?9DSS?9AES256?9SHA?$AA@ 00000001400fff30     yassl:ssl.obj
 0002:00009f48       ??_C@_0BD@LMDODEEP@DHE?9RSA?9AES256?9SHA?$AA@ 00000001400fff48     yassl:ssl.obj
 0002:00009f60       ??_C@_0BF@EGKJPLJF@DHE?9DSS?9DES?9CBC3?9RMD?$AA@ 00000001400fff60     yassl:ssl.obj
 0002:00009f78       ??_C@_0BD@LMNPGFLF@DHE?9DSS?9AES128?9RMD?$AA@ 00000001400fff78     yassl:ssl.obj
 0002:00009f90       ??_C@_0BD@MNPNDNKI@DHE?9DSS?9AES256?9RMD?$AA@ 00000001400fff90     yassl:ssl.obj
 0002:00009fa8       ??_C@_0BF@BKCIPLDO@DHE?9RSA?9DES?9CBC3?9RMD?$AA@ 00000001400fffa8     yassl:ssl.obj
 0002:00009fc0       ??_C@_0BD@OBMDNJJ@DHE?9RSA?9AES128?9RMD?$AA@ 00000001400fffc0     yassl:ssl.obj
 0002:00009fd8       ??_C@_0BD@HPDOGFIE@DHE?9RSA?9AES256?9RMD?$AA@ 00000001400fffd8     yassl:ssl.obj
 0002:00009ff0       ??_C@_0N@LBCIOJFO@DES?9CBC3?9RMD?$AA@ 00000001400ffff0     yassl:ssl.obj
 0002:0000a000       ??_C@_0L@JKECODDN@AES128?9RMD?$AA@ 0000000140100000     yassl:ssl.obj
 0002:0000a010       ??_C@_0L@OLGALLCA@AES256?9RMD?$AA@ 0000000140100010     yassl:ssl.obj
 0002:0000a048       ??_C@_07MIJDMBL@GGGGGGG?$AA@ 0000000140100048     yassl:yassl_int.obj
 0002:0000a050       ??_C@_06CHLBDKEK@FFFFFF?$AA@ 0000000140100050     yassl:yassl_int.obj
 0002:0000a058       ??_C@_05NGCOEONO@EEEEE?$AA@ 0000000140100058     yassl:yassl_int.obj
 0002:0000a060       ??_C@_03POJCPIGP@CCC?$AA@  0000000140100060     yassl:yassl_int.obj
 0002:0000a068       ??_C@_09IKAJMJIH@yaSSL?4log?$AA@ 0000000140100068     yassl:yassl_int.obj
 0002:0000a088       ??_7Digest@yaSSL@@6B@      0000000140100088     yassl:crypto_wrapper.obj
 0002:0000a0c8       ??_7BulkCipher@yaSSL@@6B@  00000001401000c8     yassl:crypto_wrapper.obj
 0002:0000a110       ??_7Auth@yaSSL@@6B@        0000000140100110     yassl:crypto_wrapper.obj
 0002:0000a138       ??_7SHA@TaoCrypt@@6B@      0000000140100138     yassl:crypto_wrapper.obj
 0002:0000a188       ??_7RIPEMD160@TaoCrypt@@6B@ 0000000140100188     yassl:crypto_wrapper.obj
 0002:0000a1d8       ??_7Mode_BASE@TaoCrypt@@6B@ 00000001401001d8     yassl:crypto_wrapper.obj
 0002:0000a1f8       ??_7DES@TaoCrypt@@6B@      00000001401001f8     yassl:crypto_wrapper.obj
 0002:0000a218       ??_7DES_EDE3@TaoCrypt@@6B@ 0000000140100218     yassl:crypto_wrapper.obj
 0002:0000a238       ??_7AES@TaoCrypt@@6B@      0000000140100238     yassl:crypto_wrapper.obj
 0002:0000a258       ??_7MD5@yaSSL@@6B@         0000000140100258     yassl:crypto_wrapper.obj
 0002:0000a290       ??_7SHA@yaSSL@@6B@         0000000140100290     yassl:crypto_wrapper.obj
 0002:0000a2c8       ??_7RMD@yaSSL@@6B@         00000001401002c8     yassl:crypto_wrapper.obj
 0002:0000a308       ??_7RC4@yaSSL@@6B@         0000000140100308     yassl:crypto_wrapper.obj
 0002:0000a358       ??_7AES@yaSSL@@6B@         0000000140100358     yassl:crypto_wrapper.obj
 0002:0000a3a0       ??_7HMAC_MD5@yaSSL@@6B@    00000001401003a0     yassl:crypto_wrapper.obj
 0002:0000a3d8       ??_7HMAC_SHA@yaSSL@@6B@    00000001401003d8     yassl:crypto_wrapper.obj
 0002:0000a410       ??_7HMAC_RMD@yaSSL@@6B@    0000000140100410     yassl:crypto_wrapper.obj
 0002:0000a448       ??_7DES@yaSSL@@6B@         0000000140100448     yassl:crypto_wrapper.obj
 0002:0000a498       ??_7DES_EDE@yaSSL@@6B@     0000000140100498     yassl:crypto_wrapper.obj
 0002:0000a4e0       ??_7DSS@yaSSL@@6B@         00000001401004e0     yassl:crypto_wrapper.obj
 0002:0000a508       ??_7RSA@yaSSL@@6B@         0000000140100508     yassl:crypto_wrapper.obj
 0002:0000a528       ??_C@_01LIIJDEN@?$AN?$AA@  0000000140100528     yassl:crypto_wrapper.obj
 0002:0000a52c       ??_C@_03BKNEFOAH@AES?$AA@  000000014010052c     yassl:crypto_wrapper.obj
 0002:0000a530       ??_C@_01IHBHIGKO@?0?$AA@   0000000140100530     yassl:crypto_wrapper.obj
 0002:0000a534       ??_C@_03CNAKKODF@DES?$AA@  0000000140100534     yassl:crypto_wrapper.obj
 0002:0000a538       ??_C@_09OEEMHJLK@Proc?9Type?$AA@ 0000000140100538     yassl:crypto_wrapper.obj
 0002:0000a548       ??_C@_0BO@KNLPBMJG@?9?9?9?9?9END?5RSA?5PRIVATE?5KEY?9?9?9?9?9?$AA@ 0000000140100548     yassl:crypto_wrapper.obj
 0002:0000a568       ??_C@_0CA@PEOGIGIM@?9?9?9?9?9BEGIN?5RSA?5PRIVATE?5KEY?9?9?9?9?9?$AA@ 0000000140100568     yassl:crypto_wrapper.obj
 0002:0000a588       ??_C@_0BK@LPPAEOGJ@?9?9?9?9?9END?5CERTIFICATE?9?9?9?9?9?$AA@ 0000000140100588     yassl:crypto_wrapper.obj
 0002:0000a5a8       ??_C@_0BM@CPJANAAJ@?9?9?9?9?9BEGIN?5CERTIFICATE?9?9?9?9?9?$AA@ 00000001401005a8     yassl:crypto_wrapper.obj
 0002:0000a5e0       ??_7HandShakeHeader@yaSSL@@6B@ 00000001401005e0     yassl:yassl_imp.obj
 0002:0000a618       ??_7ServerKeyBase@yaSSL@@6B@ 0000000140100618     yassl:yassl_imp.obj
 0002:0000a648       ??_7ClientKeyBase@yaSSL@@6B@ 0000000140100648     yassl:yassl_imp.obj
 0002:0000a678       ??_7ClientDiffieHellmanPublic@yaSSL@@6B@ 0000000140100678     yassl:yassl_imp.obj
 0002:0000a6a8       ??_7ChangeCipherSpec@yaSSL@@6B@ 00000001401006a8     yassl:yassl_imp.obj
 0002:0000a6e0       ??_7Alert@yaSSL@@6B@       00000001401006e0     yassl:yassl_imp.obj
 0002:0000a718       ??_7Data@yaSSL@@6B@        0000000140100718     yassl:yassl_imp.obj
 0002:0000a750       ??_7Certificate@yaSSL@@6B@ 0000000140100750     yassl:yassl_imp.obj
 0002:0000a780       ??_7ServerHello@yaSSL@@6B@ 0000000140100780     yassl:yassl_imp.obj
 0002:0000a7b0       ??_7ServerHelloDone@yaSSL@@6B@ 00000001401007b0     yassl:yassl_imp.obj
 0002:0000a7e0       ??_7ClientHello@yaSSL@@6B@ 00000001401007e0     yassl:yassl_imp.obj
 0002:0000a810       ??_7ServerKeyExchange@yaSSL@@6B@ 0000000140100810     yassl:yassl_imp.obj
 0002:0000a840       ??_7CertificateVerify@yaSSL@@6B@ 0000000140100840     yassl:yassl_imp.obj
 0002:0000a870       ??_7ClientKeyExchange@yaSSL@@6B@ 0000000140100870     yassl:yassl_imp.obj
 0002:0000a8a0       ??_7Finished@yaSSL@@6B@    00000001401008a0     yassl:yassl_imp.obj
 0002:0000a8d0       ??_7HelloRequest@yaSSL@@6B@ 00000001401008d0     yassl:yassl_imp.obj
 0002:0000a900       ??_7RSA_Server@yaSSL@@6B@  0000000140100900     yassl:yassl_imp.obj
 0002:0000a930       ??_7Fortezza_Server@yaSSL@@6B@ 0000000140100930     yassl:yassl_imp.obj
 0002:0000a960       ??_7FortezzaKeys@yaSSL@@6B@ 0000000140100960     yassl:yassl_imp.obj
 0002:0000a990       ??_7EncryptedPreMasterSecret@yaSSL@@6B@ 0000000140100990     yassl:yassl_imp.obj
 0002:0000a9b8       ??_C@_0BJ@MIAIEIAP@server?5denied?5resumption?$AA@ 00000001401009b8     yassl:yassl_imp.obj
 0002:0000a9d8       ??_C@_0BG@NFGEHEFF@session?5lookup?5failed?$AA@ 00000001401009d8     yassl:yassl_imp.obj
 0002:0000a9f8       ??_7DH_Server@yaSSL@@6B@   00000001401009f8     yassl:yassl_imp.obj
 0002:0000aa20       ??_C@_04OKGDLNCL@NONE?$AA@ 0000000140100a20     yassl:yassl_imp.obj
 0002:0000aa30       ??_7CertificateRequest@yaSSL@@6B@ 0000000140100a30     yassl:yassl_imp.obj
 0002:0000aaf0       ??_C@_0BF@LOHHNDDD@unknown?5error?5number?$AA@ 0000000140100af0     yassl:yassl_error.obj
 0002:0000ab08       ??_C@_0BN@DLDIDPJM@Unable?5to?5verify?5certificate?$AA@ 0000000140100b08     yassl:yassl_error.obj
 0002:0000ab28       ??_C@_0BK@HAFIKEEK@bad?5PEM?5format?5processing?$AA@ 0000000140100b28     yassl:yassl_error.obj
 0002:0000ab48       ??_C@_0BH@PIPJPDKN@bad?5content?5processing?$AA@ 0000000140100b48     yassl:yassl_error.obj
 0002:0000ab60       ??_C@_0CG@JIHDAALO@ASN?3?5bad?5other?5signature?5confirm@ 0000000140100b60     yassl:yassl_error.obj
 0002:0000ab88       ??_C@_0CF@OCOHBCCG@ASN?3?5bad?5self?5signature?5confirma@ 0000000140100b88     yassl:yassl_error.obj
 0002:0000abb0       ??_C@_0BM@NEHMDLJI@ASN?3?5after?5date?5in?5the?5past?$AA@ 0000000140100bb0     yassl:yassl_error.obj
 0002:0000abd0       ??_C@_0BP@BJJDPHIA@ASN?3?5before?5date?5in?5the?5future?$AA@ 0000000140100bd0     yassl:yassl_error.obj
 0002:0000abf0       ??_C@_0BJ@HLIMONLK@ASN?3?5bad?5DSA?5r?5or?5s?5size?$AA@ 0000000140100bf0     yassl:yassl_error.obj
 0002:0000ac10       ??_C@_0BG@DKPAPHGN@ASN?3?5unknown?5hash?5OID?$AA@ 0000000140100c10     yassl:yassl_error.obj
 0002:0000ac28       ??_C@_0BL@LEANJGE@ASN?3?5unknown?5signature?5OID?$AA@ 0000000140100c28     yassl:yassl_error.obj
 0002:0000ac48       ??_C@_0BK@DFPFLNHD@ASN?3?5bad?5Signature?5Length?$AA@ 0000000140100c48     yassl:yassl_error.obj
 0002:0000ac68       ??_C@_0BD@BBKHNDOD@ASN?3?5bad?5Date?5Size?$AA@ 0000000140100c68     yassl:yassl_error.obj
 0002:0000ac80       ??_C@_0O@NCDKAAAO@ASN?3?5bad?5TIME?$AA@ 0000000140100c80     yassl:yassl_error.obj
 0002:0000ac90       ??_C@_0BN@GPGLBGJG@ASN?3?5bad?5Octet?5String?5Header?$AA@ 0000000140100c90     yassl:yassl_error.obj
 0002:0000acb0       ??_C@_0BA@CHEGMMMD@ASN?3?5expected?50?$AA@ 0000000140100cb0     yassl:yassl_error.obj
 0002:0000acc0       ??_C@_0BH@CNGNFALI@ASN?3?5expected?5TAG?5NULL?$AA@ 0000000140100cc0     yassl:yassl_error.obj
 0002:0000acd8       ??_C@_0BK@EHIEHJHJ@ASN?3?5bad?5Ojbect?5ID?5Header?$AA@ 0000000140100cd8     yassl:yassl_error.obj
 0002:0000acf8       ??_C@_0BK@JLGAAPDA@ASN?3?5unknown?5key?5OID?5type?$AA@ 0000000140100cf8     yassl:yassl_error.obj
 0002:0000ad18       ??_C@_0BK@NEMPKOOB@ASN?3?5bad?5BitString?5Header?$AA@ 0000000140100d18     yassl:yassl_error.obj
 0002:0000ad38       ??_C@_0BM@EABFJODO@ASN?3?5signature?5OID?5mismatch?$AA@ 0000000140100d38     yassl:yassl_error.obj
 0002:0000ad58       ??_C@_0BK@PCPPAJBM@ASN?3?5version?5length?5not?51?$AA@ 0000000140100d58     yassl:yassl_error.obj
 0002:0000ad78       ??_C@_0BE@CBIMDPIB@ASN?3?5bad?5Set?5Header?$AA@ 0000000140100d78     yassl:yassl_error.obj
 0002:0000ad90       ??_C@_0BJ@BABNHBJL@ASN?3?5bad?5Sequence?5Header?$AA@ 0000000140100d90     yassl:yassl_error.obj
 0002:0000adb0       ??_C@_0BM@MLGJJFHM@ASN?3?5bad?5DER?5Integer?5Header?$AA@ 0000000140100db0     yassl:yassl_error.obj
 0002:0000add0       ??_C@_0BM@EOJLGIGG@unable?5to?5use?5random?5device?$AA@ 0000000140100dd0     yassl:yassl_error.obj
 0002:0000adf0       ??_C@_0BF@OKLABNFB@CryptGenRandom?5error?$AA@ 0000000140100df0     yassl:yassl_error.obj
 0002:0000ae08       ??_C@_0BF@ONICCKFL@bad?5wincrypt?5acquire?$AA@ 0000000140100e08     yassl:yassl_error.obj
 0002:0000ae20       ??_C@_0BD@EFIDFPA@not?5in?5error?5state?$AA@ 0000000140100e20     yassl:yassl_error.obj
 0002:0000ae38       ??_C@_0BP@JNLPEFPG@the?5read?5operation?5would?5block?$AA@ 0000000140100e38     yassl:yassl_error.obj
 0002:0000ae58       ??_C@_0CC@PELKPKCF@bad?5PreMasterSecret?5version?5erro@ 0000000140100e58     yassl:yassl_error.obj
 0002:0000ae80       ??_C@_0BE@IGBKENJK@decompression?5error?$AA@ 0000000140100e80     yassl:yassl_error.obj
 0002:0000ae98       ??_C@_0BC@NKDLBFJI@compression?5error?$AA@ 0000000140100e98     yassl:yassl_error.obj
 0002:0000aeb0       ??_C@_0BJ@OIPMFMB@protocl?5version?5mismatch?$AA@ 0000000140100eb0     yassl:yassl_error.obj
 0002:0000aed0       ??_C@_0CL@JIHDBKKF@unable?5to?5proccess?5private?5key?0?5@ 0000000140100ed0     yassl:yassl_error.obj
 0002:0000af00       ??_C@_0BO@JFJFDJB@unable?5to?5proccess?5cerificate?$AA@ 0000000140100f00     yassl:yassl_error.obj
 0002:0000af20       ??_C@_0BL@PNPNLENI@socket?5layer?5receive?5error?$AA@ 0000000140100f20     yassl:yassl_error.obj
 0002:0000af40       ??_C@_0BI@IMFNBLNH@socket?5layer?5send?5error?$AA@ 0000000140100f40     yassl:yassl_error.obj
 0002:0000af58       ??_C@_0BP@DJNJFCDO@unable?5to?5verify?5peer?5checksum?$AA@ 0000000140100f58     yassl:yassl_error.obj
 0002:0000af78       ??_C@_0CE@JNMOHBDL@the?5server?5needs?5a?5private?5key?5f@ 0000000140100f78     yassl:yassl_error.obj
 0002:0000afa0       ??_C@_0CJ@MGMCLLGF@unable?5to?5match?5a?5supported?5ciph@ 0000000140100fa0     yassl:yassl_error.obj
 0002:0000afd0       ??_C@_0BH@BJAEIFLP@bad?5cipher?5suite?5input?$AA@ 0000000140100fd0     yassl:yassl_error.obj
 0002:0000afe8       ??_C@_0CK@DPEGAADO@handshake?5message?5received?5in?5wr@ 0000000140100fe8     yassl:yassl_error.obj
 0002:0000b018       ??_C@_0BO@MDNKKMLF@handshake?5layer?5not?5ready?5yet?$AA@ 0000000140101018     yassl:yassl_error.obj
 0002:0000b038       ??_C@_0BL@JKJNJCO@record?5layer?5not?5ready?5yet?$AA@ 0000000140101038     yassl:yassl_error.obj
 0002:0000b058       ??_C@_0CN@HCIHAPHI@bad?5master?5secret?5derivation?0?5pr@ 0000000140101058     yassl:yassl_error.obj
 0002:0000b088       ??_C@_0CA@ICDMIOMH@trying?5to?5use?5an?5unknown?5cipher?$AA@ 0000000140101088     yassl:yassl_error.obj
 0002:0000b0a8       ??_C@_0BP@HEAJNFGH@unknown?5factory?5create?5request?$AA@ 00000001401010a8     yassl:yassl_error.obj
 0002:0000b0c8       ??_C@_0CB@GDMDOMBH@trying?5to?5realloc?5a?5fixed?5buffer@ 00000001401010c8     yassl:yassl_error.obj
 0002:0000b0f0       ??_C@_0CB@GAKDHIMM@buffer?5index?5error?0?5out?5of?5range@ 00000001401010f0     yassl:yassl_error.obj
 0002:0000b120       ??_C@_05GDHACFMB@1?42?43?$AA@ 0000000140101120     zlib:compress.obj
 0002:0000b130       deflate_copyright          0000000140101130     zlib:deflate.obj
 0002:0000bac8       ??_C@_0BH@FGKKJGOC@incorrect?5length?5check?$AA@ 0000000140101ac8     zlib:inflate.obj
 0002:0000bae0       ??_C@_0BF@MEIGEHBE@incorrect?5data?5check?$AA@ 0000000140101ae0     zlib:inflate.obj
 0002:0000baf8       ??_C@_0BO@ECPMAOGG@invalid?5distance?5too?5far?5back?$AA@ 0000000140101af8     zlib:inflate.obj
 0002:0000bb18       ??_C@_0BG@LBKINIKP@invalid?5distance?5code?$AA@ 0000000140101b18     zlib:inflate.obj
 0002:0000bb30       ??_C@_0BM@FFFLPBBC@invalid?5literal?1length?5code?$AA@ 0000000140101b30     zlib:inflate.obj
 0002:0000bb50       ??_C@_0BG@GMDFCBGP@invalid?5distances?5set?$AA@ 0000000140101b50     zlib:inflate.obj
 0002:0000bb68       ??_C@_0BK@BMMPFBBH@invalid?5bit?5length?5repeat?$AA@ 0000000140101b68     zlib:inflate.obj
 0002:0000bb88       ??_C@_0BM@IIMGAINC@invalid?5literal?1lengths?5set?$AA@ 0000000140101b88     zlib:inflate.obj
 0002:0000bba8       ??_C@_0CE@GMIGFPBB@too?5many?5length?5or?5distance?5symb@ 0000000140101ba8     zlib:inflate.obj
 0002:0000bbd0       ??_C@_0BJ@HDEPPGOH@invalid?5code?5lengths?5set?$AA@ 0000000140101bd0     zlib:inflate.obj
 0002:0000bbf0       ??_C@_0BN@LGAADGOK@invalid?5stored?5block?5lengths?$AA@ 0000000140101bf0     zlib:inflate.obj
 0002:0000bc10       ??_C@_0BD@PJCBIDD@invalid?5block?5type?$AA@ 0000000140101c10     zlib:inflate.obj
 0002:0000bc28       ??_C@_0BE@GONKLEPM@header?5crc?5mismatch?$AA@ 0000000140101c28     zlib:inflate.obj
 0002:0000bc40       ??_C@_0BJ@BLBBCOMO@unknown?5header?5flags?5set?$AA@ 0000000140101c40     zlib:inflate.obj
 0002:0000bc60       ??_C@_0BH@LIBMMIGA@incorrect?5header?5check?$AA@ 0000000140101c60     zlib:inflate.obj
 0002:0000bc78       ??_C@_0BE@EMOGCLGO@invalid?5window?5size?$AA@ 0000000140101c78     zlib:inflate.obj
 0002:0000bc90       ??_C@_0BL@IHKGDAEE@unknown?5compression?5method?$AA@ 0000000140101c90     zlib:inflate.obj
 0002:0000c320       _dist_code                 0000000140102320     zlib:trees.obj
 0002:0000c520       _length_code               0000000140102520     zlib:trees.obj
 0002:0000e720       ??_C@_0BF@CJFPCCEG@incompatible?5version?$AA@ 0000000140104720     zlib:zutil.obj
 0002:0000e738       ??_C@_0N@DFPGLBGC@buffer?5error?$AA@ 0000000140104738     zlib:zutil.obj
 0002:0000e748       ??_C@_0BE@OGGJBMCE@insufficient?5memory?$AA@ 0000000140104748     zlib:zutil.obj
 0002:0000e760       ??_C@_0L@HAHMBNLP@data?5error?$AA@ 0000000140104760     zlib:zutil.obj
 0002:0000e770       ??_C@_0N@MKKNPMJD@stream?5error?$AA@ 0000000140104770     zlib:zutil.obj
 0002:0000e780       ??_C@_0L@KIJFAKBJ@file?5error?$AA@ 0000000140104780     zlib:zutil.obj
 0002:0000e790       ??_C@_0L@FNAOCBOG@stream?5end?$AA@ 0000000140104790     zlib:zutil.obj
 0002:0000e7a0       ??_C@_0BA@MOKMMFOD@need?5dictionary?$AA@ 00000001401047a0     zlib:zutil.obj
 0002:0000e7b0       z_errmsg                   00000001401047b0     zlib:zutil.obj
 0002:0000e800       inflate_copyright          0000000140104800     zlib:inftrees.obj
 0002:0000e930       _FPinit                    0000000140104930     LIBCMT:fpinit.obj
 0002:0000e938       _FPmtinit                  0000000140104938     LIBCMT:fpinit.obj
 0002:0000e940       _FPmtterm                  0000000140104940     LIBCMT:fpinit.obj
 0002:0000e950       ??_7type_info@@6B@         0000000140104950     LIBCMT:typinfo.obj
 0002:0000e958       ??_C@_03LLEJOLGL@?4?1?2?$AA@ 0000000140104958     LIBCMT:stati32.obj
 0002:0000e95c       ??_C@_02EAOCEIGI@?$DP?$CK?$AA@ 000000014010495c     LIBCMT:stati32.obj
 0002:0000e968       ??_7bad_alloc@std@@6B@     0000000140104968     LIBCMT:new.obj
 0002:0000e980       ??_C@_0EA@FCLIIPNN@Visual?5C?$CL?$CL?5CRT?3?5Not?5enough?5memor@ 0000000140104980     LIBCMT:strerror.obj
 0002:0000e9c0       ??_C@_0P@MIGLKIOC@CorExitProcess?$AA@ 00000001401049c0     LIBCMT:crt0dat.obj
 0002:0000e9d0       ??_C@_0M@MBOPBNBK@mscoree?4dll?$AA@ 00000001401049d0     LIBCMT:crt0dat.obj
 0002:0000e9e0       __real@bff0000000000000    00000001401049e0     LIBCMT:floor.obj
 0002:0000e9e8       ??_C@_05PBJFFIGL@floor?$AA@ 00000001401049e8     LIBCMT:floor.obj
 0002:0000e9f0       ?ProcessDetach@NativeDll@<CrtImplementationDetails>@@0IB 00000001401049f0     LIBCMT:strtol.obj
 0002:0000e9f4       ?ProcessAttach@NativeDll@<CrtImplementationDetails>@@0IB 00000001401049f4     LIBCMT:strtol.obj
 0002:0000e9f8       ?ThreadAttach@NativeDll@<CrtImplementationDetails>@@0IB 00000001401049f8     LIBCMT:strtol.obj
 0002:0000e9fc       ?ThreadDetach@NativeDll@<CrtImplementationDetails>@@0IB 00000001401049fc     LIBCMT:strtol.obj
 0002:0000ea00       ?ProcessVerifier@NativeDll@<CrtImplementationDetails>@@0IB 0000000140104a00     LIBCMT:strtol.obj
 0002:0000ed58       ??_C@_02CLFPBFFP@TZ?$AA@   0000000140104d58     LIBCMT:tzset.obj
 0002:0000ed60       ??_C@_0L@KDOEJCKC@_nextafter?$AA@ 0000000140104d60     LIBCMT:ieeemisc.obj
 0002:0000ed70       ??_C@_0M@LNMOKHH@_nextafterf?$AA@ 0000000140104d70     LIBCMT:ieeemisc.obj
 0002:0000ed7c       ??_C@_06HBLGGACK@_scalb?$AA@ 0000000140104d7c     LIBCMT:ieeemisc.obj
 0002:0000ed88       ??_C@_07OIGNLDJH@_scalbf?$AA@ 0000000140104d88     LIBCMT:ieeemisc.obj
 0002:0000ed90       __real@0000000000000000    0000000140104d90     LIBCMT:cvt.obj
 0002:0000ed98       ??_C@_05KLBDPFGC@e?$CL000?$AA@ 0000000140104d98     LIBCMT:cvt.obj
 0002:0000eda0       ??_C@_0P@GGKDKEEG@runtime?5error?5?$AA@ 0000000140104da0     LIBCMT:crt0msg.obj
 0002:0000edb0       ??_C@_0O@MJNIPGOH@TLOSS?5error?$AN?6?$AA@ 0000000140104db0     LIBCMT:crt0msg.obj
 0002:0000edc0       ??_C@_0N@BONNPDHF@SING?5error?$AN?6?$AA@ 0000000140104dc0     LIBCMT:crt0msg.obj
 0002:0000edd0       ??_C@_0P@MBDAJNE@DOMAIN?5error?$AN?6?$AA@ 0000000140104dd0     LIBCMT:crt0msg.obj
 0002:0000ede0       ??_C@_0JL@DFDOOABL@R6034?$AN?6An?5application?5has?5made?5a@ 0000000140104de0     LIBCMT:crt0msg.obj
 0002:0000ee80       ??_C@_0PH@EPAFIJ@R6033?$AN?6?9?5Attempt?5to?5use?5MSIL?5cod@ 0000000140104e80     LIBCMT:crt0msg.obj
 0002:0000ef78       ??_C@_0DD@BKEEABMM@R6032?$AN?6?9?5not?5enough?5space?5for?5lo@ 0000000140104f78     LIBCMT:crt0msg.obj
 0002:0000efb0       ??_C@_0GD@OFKILIED@R6031?$AN?6?9?5Attempt?5to?5initialize?5t@ 0000000140104fb0     LIBCMT:crt0msg.obj
 0002:0000f018       ??_C@_0BP@LPMHJOKI@R6030?$AN?6?9?5CRT?5not?5initialized?$AN?6?$AA@ 0000000140105018     LIBCMT:crt0msg.obj
 0002:0000f038       ??_C@_0CF@KJDAIALP@R6028?$AN?6?9?5unable?5to?5initialize?5he@ 0000000140105038     LIBCMT:crt0msg.obj
 0002:0000f060       ??_C@_0DF@GAKBPDFP@R6027?$AN?6?9?5not?5enough?5space?5for?5lo@ 0000000140105060     LIBCMT:crt0msg.obj
 0002:0000f098       ??_C@_0DF@IBLNNAIG@R6026?$AN?6?9?5not?5enough?5space?5for?5st@ 0000000140105098     LIBCMT:crt0msg.obj
 0002:0000f0d0       ??_C@_0CG@IOHKGFNJ@R6025?$AN?6?9?5pure?5virtual?5function?5c@ 00000001401050d0     LIBCMT:crt0msg.obj
 0002:0000f0f8       ??_C@_0DF@JIJJFJDC@R6024?$AN?6?9?5not?5enough?5space?5for?5_o@ 00000001401050f8     LIBCMT:crt0msg.obj
 0002:0000f130       ??_C@_0CJ@EGEJHFME@R6019?$AN?6?9?5unable?5to?5open?5console?5@ 0000000140105130     LIBCMT:crt0msg.obj
 0002:0000f160       ??_C@_0CB@GNHNIELH@R6018?$AN?6?9?5unexpected?5heap?5error?$AN?6@ 0000000140105160     LIBCMT:crt0msg.obj
 0002:0000f188       ??_C@_0CN@FOLDKNG@R6017?$AN?6?9?5unexpected?5multithread?5@ 0000000140105188     LIBCMT:crt0msg.obj
 0002:0000f1b8       ??_C@_0CM@FAHFJNHO@R6016?$AN?6?9?5not?5enough?5space?5for?5th@ 00000001401051b8     LIBCMT:crt0msg.obj
 0002:0000f1f0       ??_C@_0JG@LBKMGKLD@?$AN?6This?5application?5has?5requested@ 00000001401051f0     LIBCMT:crt0msg.obj
 0002:0000f288       ??_C@_0CM@FLCNIPKK@R6009?$AN?6?9?5not?5enough?5space?5for?5en@ 0000000140105288     LIBCMT:crt0msg.obj
 0002:0000f2b8       ??_C@_0CK@KMMJOAPP@R6008?$AN?6?9?5not?5enough?5space?5for?5ar@ 00000001401052b8     LIBCMT:crt0msg.obj
 0002:0000f2e8       ??_C@_0CN@LEKKICBM@R6002?$AN?6?9?5floating?5point?5support?5@ 00000001401052e8     LIBCMT:crt0msg.obj
 0002:0000f318       ??_C@_0CF@GOGNBNAK@Microsoft?5Visual?5C?$CL?$CL?5Runtime?5Lib@ 0000000140105318     LIBCMT:crt0msg.obj
 0002:0000f340       ??_C@_02PHMGELLB@?6?6?$AA@ 0000000140105340     LIBCMT:crt0msg.obj
 0002:0000f344       ??_C@_03KHICJKCI@?4?4?4?$AA@ 0000000140105344     LIBCMT:crt0msg.obj
 0002:0000f348       ??_C@_0BH@DNAGHKFM@?$DMprogram?5name?5unknown?$DO?$AA@ 0000000140105348     LIBCMT:crt0msg.obj
 0002:0000f360       ??_C@_0BK@OFGJDLJJ@Runtime?5Error?$CB?6?6Program?3?5?$AA@ 0000000140105360     LIBCMT:crt0msg.obj
 0002:0000f380       ??_C@_07EPKMNAGK@?4mixcrt?$AA@ 0000000140105380     LIBCMT:tidtable.obj
 0002:0000f388       ??_C@_0O@NLDKAIKN@EncodePointer?$AA@ 0000000140105388     LIBCMT:tidtable.obj
 0002:0000f398       ??_C@_0N@NHGLKGEC@KERNEL32?4DLL?$AA@ 0000000140105398     LIBCMT:tidtable.obj
 0002:0000f3a8       ??_C@_0O@KBPMFGHI@DecodePointer?$AA@ 00000001401053a8     LIBCMT:tidtable.obj
 0002:0000f3b8       ??_C@_04PNGHFIJN@?4com?$AA@ 00000001401053b8     LIBCMT:stat.obj
 0002:0000f3c0       ??_C@_04NEEFLLOK@?4bat?$AA@ 00000001401053c0     LIBCMT:stat.obj
 0002:0000f3c8       ??_C@_04CPCBDHLK@?4cmd?$AA@ 00000001401053c8     LIBCMT:stat.obj
 0002:0000f3d0       ??_C@_04JLMDILM@?4exe?$AA@ 00000001401053d0     LIBCMT:stat.obj
 0002:0000f3f0       ??_7exception@std@@6B@     00000001401053f0     LIBCMT:stdexcpt.obj
 0002:0000f400       ??_C@_0BC@EOODALEL@Unknown?5exception?$AA@ 0000000140105400     LIBCMT:stdexcpt.obj
 0002:0000f420       ??_7bad_cast@std@@6B@      0000000140105420     LIBCMT:stdexcpt.obj
 0002:0000f438       ??_7bad_typeid@std@@6B@    0000000140105438     LIBCMT:stdexcpt.obj
 0002:0000f450       ??_7__non_rtti_object@std@@6B@ 0000000140105450     LIBCMT:stdexcpt.obj
 0002:0000f4a0       ??_C@_0BG@KLEAJEFJ@Illegal?5byte?5sequence?$AA@ 00000001401054a0     LIBCMT:syserr.obj
 0002:0000f4b8       ??_C@_0BE@ICMCHPHH@Directory?5not?5empty?$AA@ 00000001401054b8     LIBCMT:syserr.obj
 0002:0000f4d0       ??_C@_0BJ@IHEHINLI@Function?5not?5implemented?$AA@ 00000001401054d0     LIBCMT:syserr.obj
 0002:0000f4f0       ??_C@_0BD@CLHBCGPB@No?5locks?5available?$AA@ 00000001401054f0     LIBCMT:syserr.obj
 0002:0000f508       ??_C@_0BC@BEDIHIDK@Filename?5too?5long?$AA@ 0000000140105508     LIBCMT:syserr.obj
 0002:0000f520       ??_C@_0BK@JAEBMJJM@Resource?5deadlock?5avoided?$AA@ 0000000140105520     LIBCMT:syserr.obj
 0002:0000f540       ??_C@_0BB@FCBJFCAJ@Result?5too?5large?$AA@ 0000000140105540     LIBCMT:syserr.obj
 0002:0000f558       ??_C@_0N@MMJPGLJK@Domain?5error?$AA@ 0000000140105558     LIBCMT:syserr.obj
 0002:0000f568       ??_C@_0M@LHEPIIOM@Broken?5pipe?$AA@ 0000000140105568     LIBCMT:syserr.obj
 0002:0000f578       ??_C@_0P@PKCJJLLM@Too?5many?5links?$AA@ 0000000140105578     LIBCMT:syserr.obj
 0002:0000f588       ??_C@_0BG@DDBFNKBH@Read?9only?5file?5system?$AA@ 0000000140105588     LIBCMT:syserr.obj
 0002:0000f5a0       ??_C@_0N@FEHLOILP@Invalid?5seek?$AA@ 00000001401055a0     LIBCMT:syserr.obj
 0002:0000f5b0       ??_C@_0BI@FEALHKLD@No?5space?5left?5on?5device?$AA@ 00000001401055b0     LIBCMT:syserr.obj
 0002:0000f5c8       ??_C@_0P@LFMMIPAE@File?5too?5large?$AA@ 00000001401055c8     LIBCMT:syserr.obj
 0002:0000f5d8       ??_C@_0CE@ONOKNLPF@Inappropriate?5I?1O?5control?5operat@ 00000001401055d8     LIBCMT:syserr.obj
 0002:0000f600       ??_C@_0BE@INBJMKGG@Too?5many?5open?5files?$AA@ 0000000140105600     LIBCMT:syserr.obj
 0002:0000f618       ??_C@_0BO@IIFBODJE@Too?5many?5open?5files?5in?5system?$AA@ 0000000140105618     LIBCMT:syserr.obj
 0002:0000f638       ??_C@_0BB@HMGGCEBG@Invalid?5argument?$AA@ 0000000140105638     LIBCMT:syserr.obj
 0002:0000f650       ??_C@_0P@NDHGCGKE@Is?5a?5directory?$AA@ 0000000140105650     LIBCMT:syserr.obj
 0002:0000f660       ??_C@_0BA@CJBACOOL@Not?5a?5directory?$AA@ 0000000140105660     LIBCMT:syserr.obj
 0002:0000f670       ??_C@_0P@NLEIANHE@No?5such?5device?$AA@ 0000000140105670     LIBCMT:syserr.obj
 0002:0000f680       ??_C@_0O@OAMDNOCP@Improper?5link?$AA@ 0000000140105680     LIBCMT:syserr.obj
 0002:0000f690       ??_C@_0M@NAAJNNGH@File?5exists?$AA@ 0000000140105690     LIBCMT:syserr.obj
 0002:0000f6a0       ??_C@_0BA@BIBLIOEK@Resource?5device?$AA@ 00000001401056a0     LIBCMT:syserr.obj
 0002:0000f6b0       ??_C@_0O@NIPGCINC@Unknown?5error?$AA@ 00000001401056b0     LIBCMT:syserr.obj
 0002:0000f6c0       ??_C@_0M@LOEHLCJD@Bad?5address?$AA@ 00000001401056c0     LIBCMT:syserr.obj
 0002:0000f6d0       ??_C@_0BC@HFNFNKAI@Permission?5denied?$AA@ 00000001401056d0     LIBCMT:syserr.obj
 0002:0000f6e8       ??_C@_0BB@IMDKMPFB@Not?5enough?5space?$AA@ 00000001401056e8     LIBCMT:syserr.obj
 0002:0000f700       ??_C@_0CB@EPFKGNAK@Resource?5temporarily?5unavailable@ 0000000140105700     LIBCMT:syserr.obj
 0002:0000f728       ??_C@_0BD@LOHELEP@No?5child?5processes?$AA@ 0000000140105728     LIBCMT:syserr.obj
 0002:0000f740       ??_C@_0BE@NFGDDCEF@Bad?5file?5descriptor?$AA@ 0000000140105740     LIBCMT:syserr.obj
 0002:0000f758       ??_C@_0BC@HKPNECK@Exec?5format?5error?$AA@ 0000000140105758     LIBCMT:syserr.obj
 0002:0000f770       ??_C@_0BC@MFFGCDFL@Arg?5list?5too?5long?$AA@ 0000000140105770     LIBCMT:syserr.obj
 0002:0000f788       ??_C@_0BK@DPKMCKJ@No?5such?5device?5or?5address?$AA@ 0000000140105788     LIBCMT:syserr.obj
 0002:0000f7a8       ??_C@_0BD@KKNFOBBD@Input?1output?5error?$AA@ 00000001401057a8     LIBCMT:syserr.obj
 0002:0000f7c0       ??_C@_0BK@FJBOAFDK@Interrupted?5function?5call?$AA@ 00000001401057c0     LIBCMT:syserr.obj
 0002:0000f7e0       ??_C@_0BA@FKIAIBGA@No?5such?5process?$AA@ 00000001401057e0     LIBCMT:syserr.obj
 0002:0000f7f0       ??_C@_0BK@FMDHKPNF@No?5such?5file?5or?5directory?$AA@ 00000001401057f0     LIBCMT:syserr.obj
 0002:0000f810       ??_C@_0BI@BJFCGOHL@Operation?5not?5permitted?$AA@ 0000000140105810     LIBCMT:syserr.obj
 0002:0000f828       ??_C@_1O@CEDCILHN@?$AA?$CI?$AAn?$AAu?$AAl?$AAl?$AA?$CJ?$AA?$AA@ 0000000140105828     LIBCMT:output.obj
 0002:0000f840       __lookuptable              0000000140105840     LIBCMT:output.obj
 0002:0000f8a0       ??_C@_0BC@JEAENNKH@SystemFunction036?$AA@ 00000001401058a0     LIBCMT:rand_s.obj
 0002:0000f8b8       ??_C@_0N@JJPEKNFO@ADVAPI32?4DLL?$AA@ 00000001401058b8     LIBCMT:rand_s.obj
 0002:0000f8c8       ??_C@_0CG@PKBDLMEO@InitializeCriticalSectionAndSpin@ 00000001401058c8     LIBCMT:initcrit.obj
 0002:0000f8f0       __lookuptable_s            00000001401058f0     LIBCMT:outputs.obj
 0002:0000f950       ??_C@_07LCBHPJJN@LC_TIME?$AA@ 0000000140105950     LIBCMT:setlocal.obj
 0002:0000f958       ??_C@_0L@DLHIECNL@LC_NUMERIC?$AA@ 0000000140105958     LIBCMT:setlocal.obj
 0002:0000f968       ??_C@_0M@MIENIKLA@LC_MONETARY?$AA@ 0000000140105968     LIBCMT:setlocal.obj
 0002:0000f978       ??_C@_08EADHIDAD@LC_CTYPE?$AA@ 0000000140105978     LIBCMT:setlocal.obj
 0002:0000f988       ??_C@_0L@KFJHEKIK@LC_COLLATE?$AA@ 0000000140105988     LIBCMT:setlocal.obj
 0002:0000f994       ??_C@_06NEFDFEKB@LC_ALL?$AA@ 0000000140105994     LIBCMT:setlocal.obj
 0002:0000f9a0       __lc_category              00000001401059a0     LIBCMT:setlocal.obj
 0002:0000fab0       ??_C@_03EGDHDPFD@_?4?0?$AA@ 0000000140105ab0     LIBCMT:setlocal.obj
 0002:0000fab4       ??_C@_01IDAFKMJL@_?$AA@    0000000140105ab4     LIBCMT:setlocal.obj
 0002:0000fab8       ??_C@_01ICJEACDI@?$DL?$AA@ 0000000140105ab8     LIBCMT:setlocal.obj
 0002:0000fabc       ??_C@_02BALPLPBG@?$DN?$DL?$AA@ 0000000140105abc     LIBCMT:setlocal.obj
 0002:0000fac0       ??_C@_06GDENEHCP@CONIN$?$AA@ 0000000140105ac0     LIBCMT:initcon.obj
 0002:0000fac8       ??_C@_07GPDNMNG@CONOUT$?$AA@ 0000000140105ac8     LIBCMT:initcon.obj
 0002:0000fad0       __dnames                   0000000140105ad0     LIBCMT:timeset.obj
 0002:0000fae8       __mnames                   0000000140105ae8     LIBCMT:timeset.obj
 0002:0000fb38       ??_C@_0BK@CFCOFLF@?5Complete?5Object?5Locator?8?$AA@ 0000000140105b38     LIBCMT:undname.obj
 0002:0000fb58       ??_C@_0BN@MECKDCOJ@?5Class?5Hierarchy?5Descriptor?8?$AA@ 0000000140105b58     LIBCMT:undname.obj
 0002:0000fb78       ??_C@_0BD@LGICGFMM@?5Base?5Class?5Array?8?$AA@ 0000000140105b78     LIBCMT:undname.obj
 0002:0000fb90       ??_C@_0BM@LDKODKLH@?5Base?5Class?5Descriptor?5at?5?$CI?$AA@ 0000000140105b90     LIBCMT:undname.obj
 0002:0000fbb0       ??_C@_0BC@DAFEJGAK@?5Type?5Descriptor?8?$AA@ 0000000140105bb0     LIBCMT:undname.obj
 0002:0000fbc8       ??_C@_0BM@PMGGMLDN@?$GAlocal?5static?5thread?5guard?8?$AA@ 0000000140105bc8     LIBCMT:undname.obj
 0002:0000fbe8       ??_C@_0CL@FGIJHLCE@?$GAmanaged?5vector?5copy?5constructor@ 0000000140105be8     LIBCMT:undname.obj
 0002:0000fc18       ??_C@_0CJ@GJELGAMM@?$GAvector?5vbase?5copy?5constructor?5i@ 0000000140105c18     LIBCMT:undname.obj
 0002:0000fc48       ??_C@_0CD@CGAJBKEJ@?$GAvector?5copy?5constructor?5iterato@ 0000000140105c48     LIBCMT:undname.obj
 0002:0000fc70       ??_C@_0CB@PDBIFEP@?$GAdynamic?5atexit?5destructor?5for?5?8@ 0000000140105c70     LIBCMT:undname.obj
 0002:0000fc98       ??_C@_0BL@CLIPGLGB@?$GAdynamic?5initializer?5for?5?8?$AA@ 0000000140105c98     LIBCMT:undname.obj
 0002:0000fcb8       ??_C@_0CM@FCBBDIGB@?$GAeh?5vector?5vbase?5copy?5constructo@ 0000000140105cb8     LIBCMT:undname.obj
 0002:0000fce8       ??_C@_0CG@HLDDJMAG@?$GAeh?5vector?5copy?5constructor?5iter@ 0000000140105ce8     LIBCMT:undname.obj
 0002:0000fd10       ??_C@_0CF@IMGKMJNO@?$GAmanaged?5vector?5destructor?5itera@ 0000000140105d10     LIBCMT:undname.obj
 0002:0000fd38       ??_C@_0CG@CFDHKGGD@?$GAmanaged?5vector?5constructor?5iter@ 0000000140105d38     LIBCMT:undname.obj
 0002:0000fd60       ??_C@_0BN@CKNJLHMB@?$GAplacement?5delete?$FL?$FN?5closure?8?$AA@ 0000000140105d60     LIBCMT:undname.obj
 0002:0000fd80       ??_C@_0BL@CNOONJFP@?$GAplacement?5delete?5closure?8?$AA@ 0000000140105d80     LIBCMT:undname.obj
 0002:0000fda0       ??_C@_0P@HJKNJFNN@?$GAomni?5callsig?8?$AA@ 0000000140105da0     LIBCMT:undname.obj
 0002:0000fdb0       ??_C@_09LBNFPBCA@?5delete?$FL?$FN?$AA@ 0000000140105db0     LIBCMT:undname.obj
 0002:0000fdbc       ??_C@_06FHBGPFGH@?5new?$FL?$FN?$AA@ 0000000140105dbc     LIBCMT:undname.obj
 0002:0000fdc8       ??_C@_0CE@IIHCMGGL@?$GAlocal?5vftable?5constructor?5closu@ 0000000140105dc8     LIBCMT:undname.obj
 0002:0000fdf0       ??_C@_0BA@KKLDJDLB@?$GAlocal?5vftable?8?$AA@ 0000000140105df0     LIBCMT:undname.obj
 0002:0000fe00       ??_C@_05KHLCHHI@?$GARTTI?$AA@ 0000000140105e00     LIBCMT:undname.obj
 0002:0000fe08       ??_C@_03KLGMFNMG@?$GAEH?$AA@ 0000000140105e08     LIBCMT:undname.obj
 0002:0000fe10       ??_C@_0BA@KBCDOMBN@?$GAudt?5returning?8?$AA@ 0000000140105e10     LIBCMT:undname.obj
 0002:0000fe20       ??_C@_0BL@LLKPOHJI@?$GAcopy?5constructor?5closure?8?$AA@ 0000000140105e20     LIBCMT:undname.obj
 0002:0000fe40       ??_C@_0CH@OOJPLCPH@?$GAeh?5vector?5vbase?5constructor?5ite@ 0000000140105e40     LIBCMT:undname.obj
 0002:0000fe68       ??_C@_0CA@GCEOPDGL@?$GAeh?5vector?5destructor?5iterator?8?$AA@ 0000000140105e68     LIBCMT:undname.obj
 0002:0000fe88       ??_C@_0CB@JONCMFFK@?$GAeh?5vector?5constructor?5iterator?8@ 0000000140105e88     LIBCMT:undname.obj
 0002:0000feb0       ??_C@_0BL@NILFHHPC@?$GAvirtual?5displacement?5map?8?$AA@ 0000000140105eb0     LIBCMT:undname.obj
 0002:0000fed0       ??_C@_0CE@IKBNEHA@?$GAvector?5vbase?5constructor?5iterat@ 0000000140105ed0     LIBCMT:undname.obj
 0002:0000fef8       ??_C@_0BN@LFPFMEDL@?$GAvector?5destructor?5iterator?8?$AA@ 0000000140105ef8     LIBCMT:undname.obj
 0002:0000ff18       ??_C@_0BO@PFGOCPJJ@?$GAvector?5constructor?5iterator?8?$AA@ 0000000140105f18     LIBCMT:undname.obj
 0002:0000ff38       ??_C@_0BN@IMDCHIKM@?$GAscalar?5deleting?5destructor?8?$AA@ 0000000140105f38     LIBCMT:undname.obj
 0002:0000ff58       ??_C@_0BO@OBMKPJIG@?$GAdefault?5constructor?5closure?8?$AA@ 0000000140105f58     LIBCMT:undname.obj
 0002:0000ff78       ??_C@_0BN@DEGPLNFK@?$GAvector?5deleting?5destructor?8?$AA@ 0000000140105f78     LIBCMT:undname.obj
 0002:0000ff98       ??_C@_0BD@JDLKDPAB@?$GAvbase?5destructor?8?$AA@ 0000000140105f98     LIBCMT:undname.obj
 0002:0000ffb0       ??_C@_08OBABFOLI@?$GAstring?8?$AA@ 0000000140105fb0     LIBCMT:undname.obj
 0002:0000ffc0       ??_C@_0BF@KDPPACIK@?$GAlocal?5static?5guard?8?$AA@ 0000000140105fc0     LIBCMT:undname.obj
 0002:0000ffd8       ??_C@_08LLFFHHDJ@?$GAtypeof?8?$AA@ 0000000140105fd8     LIBCMT:undname.obj
 0002:0000ffe8       ??_C@_07FEEIOKP@?$GAvcall?8?$AA@ 0000000140105fe8     LIBCMT:undname.obj
 0002:0000fff0       ??_C@_09BLBHBJP@?$GAvbtable?8?$AA@ 0000000140105ff0     LIBCMT:undname.obj
 0002:00010000       ??_C@_09IFPLHPGF@?$GAvftable?8?$AA@ 0000000140106000     LIBCMT:undname.obj
 0002:0001000c       ??_C@_02MHEGNOJ@?$FO?$DN?$AA@ 000000014010600c     LIBCMT:undname.obj
 0002:00010010       ??_C@_02DHLNPPGH@?$HM?$DN?$AA@ 0000000140106010     LIBCMT:undname.obj
 0002:00010014       ??_C@_02FGJGFEAB@?$CG?$DN?$AA@ 0000000140106014     LIBCMT:undname.obj
 0002:00010018       ??_C@_03CDNPDDLA@?$DM?$DM?$DN?$AA@ 0000000140106018     LIBCMT:undname.obj
 0002:0001001c       ??_C@_03IKFCCPFF@?$DO?$DO?$DN?$AA@ 000000014010601c     LIBCMT:undname.obj
 0002:00010020       ??_C@_02FENAOKFI@?$CF?$DN?$AA@ 0000000140106020     LIBCMT:undname.obj
 0002:00010024       ??_C@_02FJEHGPIO@?1?$DN?$AA@ 0000000140106024     LIBCMT:undname.obj
 0002:00010028       ??_C@_02FKMDLLOA@?9?$DN?$AA@ 0000000140106028     LIBCMT:undname.obj
 0002:0001002c       ??_C@_02FOEOMHFC@?$CL?$DN?$AA@ 000000014010602c     LIBCMT:undname.obj
 0002:00010030       ??_C@_02FPIMKNGF@?$CK?$DN?$AA@ 0000000140106030     LIBCMT:undname.obj
 0002:00010034       ??_C@_02NONPIBCD@?$HM?$HM?$AA@ 0000000140106034     LIBCMT:undname.obj
 0002:00010038       ??_C@_02PPKAJPJL@?$CG?$CG?$AA@ 0000000140106038     LIBCMT:undname.obj
 0002:0001003c       ??_C@_01DNKMNLPK@?$HM?$AA@ 000000014010603c     LIBCMT:undname.obj
 0002:00010040       ??_C@_01JKBOJNNK@?$FO?$AA@ 0000000140106040     LIBCMT:undname.obj
 0002:00010044       ??_C@_01PJKLJHI@?$HO?$AA@  0000000140106044     LIBCMT:undname.obj
 0002:00010048       ??_C@_02HCKGKOFO@?$CI?$CJ?$AA@ 0000000140106048     LIBCMT:undname.obj
 0002:0001004c       ??_C@_02EEKDKGMJ@?$DO?$DN?$AA@ 000000014010604c     LIBCMT:undname.obj
 0002:00010050       ??_C@_01PPODPGHN@?$DO?$AA@ 0000000140106050     LIBCMT:undname.obj
 0002:00010054       ??_C@_02EHCHHCKH@?$DM?$DN?$AA@ 0000000140106054     LIBCMT:undname.obj
 0002:00010058       ??_C@_01FGNFDNOH@?$CF?$AA@ 0000000140106058     LIBCMT:undname.obj
 0002:0001005c       ??_C@_03MNHNFDLC@?9?$DO?$CK?$AA@ 000000014010605c     LIBCMT:undname.obj
 0002:00010060       ??_C@_01MIFGBAGJ@?$CL?$AA@ 0000000140106060     LIBCMT:undname.obj
 0002:00010064       ??_C@_02ECNGHCIF@?$CL?$CL?$AA@ 0000000140106064     LIBCMT:undname.obj
 0002:00010068       ??_C@_02HBOOOICD@?9?$DO?$AA@ 0000000140106068     LIBCMT:undname.obj
 0002:00010070       ??_C@_08LHJFAFGD@operator?$AA@ 0000000140106070     LIBCMT:undname.obj
 0002:0001007c       ??_C@_02GPECMEKF@?$FL?$FN?$AA@ 000000014010607c     LIBCMT:undname.obj
 0002:00010080       ??_C@_02FDNJECIE@?$CB?$DN?$AA@ 0000000140106080     LIBCMT:undname.obj
 0002:00010084       ??_C@_02EGOFBIJA@?$DN?$DN?$AA@ 0000000140106084     LIBCMT:undname.obj
 0002:00010088       ??_C@_01DCLJPIOD@?$CB?$AA@ 0000000140106088     LIBCMT:undname.obj
 0002:0001008c       ??_C@_02GPIOPFAK@?$DO?$DO?$AA@ 000000014010608c     LIBCMT:undname.obj
 0002:00010090       ??_C@_07FPCDHGMM@?5delete?$AA@ 0000000140106090     LIBCMT:undname.obj
 0002:00010098       ??_C@_04NIHEBCM@?5new?$AA@ 0000000140106098     LIBCMT:undname.obj
 0002:000100a0       ??_C@_0M@GFIIJFMG@__unaligned?$AA@ 00000001401060a0     LIBCMT:undname.obj
 0002:000100b0       ??_C@_0L@PILCLIHE@__restrict?$AA@ 00000001401060b0     LIBCMT:undname.obj
 0002:000100c0       ??_C@_07JOMMBBKO@__ptr64?$AA@ 00000001401060c0     LIBCMT:undname.obj
 0002:000100c8       ??_C@_09HIJEGCPM@__clrcall?$AA@ 00000001401060c8     LIBCMT:undname.obj
 0002:000100d8       ??_C@_0L@JMKHOMEK@__fastcall?$AA@ 00000001401060d8     LIBCMT:undname.obj
 0002:000100e8       ??_C@_0L@NPHFGOKO@__thiscall?$AA@ 00000001401060e8     LIBCMT:undname.obj
 0002:000100f8       ??_C@_09IFJBGAPI@__stdcall?$AA@ 00000001401060f8     LIBCMT:undname.obj
 0002:00010108       ??_C@_08GHMPAG@__pascal?$AA@ 0000000140106108     LIBCMT:undname.obj
 0002:00010118       ??_C@_07KOLFKCDI@__cdecl?$AA@ 0000000140106118     LIBCMT:undname.obj
 0002:00010120       ??_C@_08EHJDFFNH@__based?$CI?$AA@ 0000000140106120     LIBCMT:undname.obj
 0002:00010438       ??_7DNameNode@@6B@         0000000140106438     LIBCMT:undname.obj
 0002:00010458       ??_7charNode@@6B@          0000000140106458     LIBCMT:undname.obj
 0002:00010478       ??_7pDNameNode@@6B@        0000000140106478     LIBCMT:undname.obj
 0002:00010498       ??_7DNameStatusNode@@6B@   0000000140106498     LIBCMT:undname.obj
 0002:000104b8       ??_7pcharNode@@6B@         00000001401064b8     LIBCMT:undname.obj
 0002:000104d0       ??_C@_04OKOHEJBO@?5?$DP?$DP?5?$AA@ 00000001401064d0     LIBCMT:undname.obj
 0002:000104d8       ??_C@_06EEGAIFAK@?$HLflat?$HN?$AA@ 00000001401064d8     LIBCMT:undname.obj
 0002:000104e0       ??_C@_05JIBOFOHK@?$HLfor?5?$AA@ 00000001401064e0     LIBCMT:undname.obj
 0002:000104e8       ??_C@_0BN@IBLMMFAP@?$GAnon?9type?9template?9parameter?$AA@ 00000001401064e8     LIBCMT:undname.obj
 0002:00010508       ??_C@_09EBBEKKIH@unsigned?5?$AA@ 0000000140106508     LIBCMT:undname.obj
 0002:00010514       ??_C@_05CJIMAING@long?5?$AA@ 0000000140106514     LIBCMT:undname.obj
 0002:0001051c       ??_C@_04LAHKHJMA@int?5?$AA@ 000000014010651c     LIBCMT:undname.obj
 0002:00010524       ??_C@_06EHJMALKF@short?5?$AA@ 0000000140106524     LIBCMT:undname.obj
 0002:0001052c       ??_C@_05CIHEBHNO@char?5?$AA@ 000000014010652c     LIBCMT:undname.obj
 0002:00010534       ??_C@_04GKJNKENE@void?$AA@ 0000000140106534     LIBCMT:undname.obj
 0002:00010540       ??_C@_0L@EGPHHEKN@?$DMellipsis?$DO?$AA@ 0000000140106540     LIBCMT:undname.obj
 0002:00010550       ??_C@_0M@ELJOJFFH@?0?$DMellipsis?$DO?$AA@ 0000000140106550     LIBCMT:undname.obj
 0002:0001055c       ??_C@_04EENFHACM@?0?4?4?4?$AA@ 000000014010655c     LIBCMT:undname.obj
 0002:00010568       ??_C@_07HDJPLPEK@?5throw?$CI?$AA@ 0000000140106568     LIBCMT:undname.obj
 0002:00010570       ??_C@_02GOGNNPBN@?$CJ?$FL?$AA@ 0000000140106570     LIBCMT:undname.obj
 0002:00010574       ??_C@_02MDINNEEG@s?5?$AA@  0000000140106574     LIBCMT:undname.obj
 0002:00010578       ??_C@_01GEODFPGF@?8?$AA@   0000000140106578     LIBCMT:undname.obj
 0002:00010580       ??_C@_0BE@EODMJLIF@?$GAtemplate?9parameter?$AA@ 0000000140106580     LIBCMT:undname.obj
 0002:00010594       ??_C@_04HIBGFPH@NULL?$AA@  0000000140106594     LIBCMT:undname.obj
 0002:000105a0       ??_C@_0O@GKABPPIF@cli?3?3pin_ptr?$DM?$AA@ 00000001401065a0     LIBCMT:undname.obj
 0002:000105b0       ??_C@_0M@EALIELKG@cli?3?3array?$DM?$AA@ 00000001401065b0     LIBCMT:undname.obj
 0002:000105bc       ??_C@_05BEFAKPML@void?5?$AA@ 00000001401065bc     LIBCMT:undname.obj
 0002:000105c4       ??_C@_02OHHJMEON@?8?8?$AA@ 00000001401065c4     LIBCMT:undname.obj
 0002:000105c8       ??_C@_0BG@JNJLAMPM@?$GAanonymous?5namespace?8?$AA@ 00000001401065c8     LIBCMT:undname.obj
 0002:000105e0       ??_C@_01NLNLIGKH@?$GA?$AA@ 00000001401065e0     LIBCMT:undname.obj
 0002:000105e8       ??_C@_0O@KHGCOMHP@generic?9type?9?$AA@ 00000001401065e8     LIBCMT:undname.obj
 0002:000105f8       ??_C@_0BE@JAEOCHPE@template?9parameter?9?$AA@ 00000001401065f8     LIBCMT:undname.obj
 0002:0001060c       ??_C@_02MOLJINC@?3?3?$AA@  000000014010660c     LIBCMT:undname.obj
 0002:00010610       ??_C@_05LJGMCFOG@enum?5?$AA@ 0000000140106610     LIBCMT:undname.obj
 0002:00010618       ??_C@_0N@DLIEFKNA@cointerface?5?$AA@ 0000000140106618     LIBCMT:undname.obj
 0002:00010628       ??_C@_08KOFANOFK@coclass?5?$AA@ 0000000140106628     LIBCMT:undname.obj
 0002:00010634       ??_C@_06LJBABKPM@class?5?$AA@ 0000000140106634     LIBCMT:undname.obj
 0002:00010640       ??_C@_07DIBCDNGL@struct?5?$AA@ 0000000140106640     LIBCMT:undname.obj
 0002:00010648       ??_C@_06MOJHIBMG@union?5?$AA@ 0000000140106648     LIBCMT:undname.obj
 0002:00010650       ??_C@_0P@GCIFDJCJ@?$GAunknown?5ecsu?8?$AA@ 0000000140106650     LIBCMT:undname.obj
 0002:00010660       ??_C@_02KCKGHPCA@?$CJ?5?$AA@ 0000000140106660     LIBCMT:undname.obj
 0002:00010668       ??_C@_0M@DHNBOJMP@extern?5?$CCC?$CC?5?$AA@ 0000000140106668     LIBCMT:undname.obj
 0002:00010678       ??_C@_08KJLFOPNE@?$FLthunk?$FN?3?$AA@ 0000000140106678     LIBCMT:undname.obj
 0002:00010688       ??_C@_08GPDDCMKI@public?3?5?$AA@ 0000000140106688     LIBCMT:undname.obj
 0002:00010698       ??_C@_0M@GAIFPFIP@protected?3?5?$AA@ 0000000140106698     LIBCMT:undname.obj
 0002:000106a8       ??_C@_09LAPHOOG@private?3?5?$AA@ 00000001401066a8     LIBCMT:undname.obj
 0002:000106b8       ??_C@_08NIEOINHE@virtual?5?$AA@ 00000001401066b8     LIBCMT:undname.obj
 0002:000106c8       ??_C@_07PGOEDBHP@static?5?$AA@ 00000001401066c8     LIBCMT:undname.obj
 0002:000106d0       ??_C@_0DA@HGFJFBBE@?$GAtemplate?5static?5data?5member?5des@ 00000001401066d0     LIBCMT:undname.obj
 0002:00010700       ??_C@_0DB@ILEFOCIJ@?$GAtemplate?5static?5data?5member?5con@ 0000000140106700     LIBCMT:undname.obj
 0002:00010738       ??_C@_0CB@KJDOOODE@?$GAlocal?5static?5destructor?5helper?8@ 0000000140106738     LIBCMT:undname.obj
 0002:00010760       ??_C@_0L@HNGCOGAE@?$GAadjustor?$HL?$AA@ 0000000140106760     LIBCMT:undname.obj
 0002:00010770       ??_C@_0L@GHPFDFH@?$GAvtordisp?$HL?$AA@ 0000000140106770     LIBCMT:undname.obj
 0002:00010780       ??_C@_0N@CBHHHENL@?$GAvtordispex?$HL?$AA@ 0000000140106780     LIBCMT:undname.obj
 0002:00010790       ??_C@_02IGFCGPIL@?$HN?8?$AA@ 0000000140106790     LIBCMT:undname.obj
 0002:00010794       ??_C@_03OPGICMGF@?$HN?8?5?$AA@ 0000000140106794     LIBCMT:undname.obj
 0002:00010798       ??_C@_06LIJLOJAG@const?5?$AA@ 0000000140106798     LIBCMT:undname.obj
 0002:000107a0       ??_C@_09GAIEOBLP@volatile?5?$AA@ 00000001401067a0     LIBCMT:undname.obj
 0002:000107ac       ??_C@_04HEJADOOB@CV?3?5?$AA@ 00000001401067ac     LIBCMT:undname.obj
 0002:000107b8       ??_C@_07EDHNAJHC@signed?5?$AA@ 00000001401067b8     LIBCMT:undname.obj
 0002:000107c0       ??_C@_06GCICPBLB@__w64?5?$AA@ 00000001401067c0     LIBCMT:undname.obj
 0002:000107c8       ??_C@_07CLGGIAMF@wchar_t?$AA@ 00000001401067c8     LIBCMT:undname.obj
 0002:000107d0       ??_C@_08GAHOLHEO@__int128?$AA@ 00000001401067d0     LIBCMT:undname.obj
 0002:000107e0       ??_C@_07LFCOJCAC@__int64?$AA@ 00000001401067e0     LIBCMT:undname.obj
 0002:000107e8       ??_C@_07OFLPPHGP@__int32?$AA@ 00000001401067e8     LIBCMT:undname.obj
 0002:000107f0       ??_C@_07ICFHOGAF@__int16?$AA@ 00000001401067f0     LIBCMT:undname.obj
 0002:000107f8       ??_C@_06EBGKOKIG@__int8?$AA@ 00000001401067f8     LIBCMT:undname.obj
 0002:00010800       ??_C@_04DDKJGDCM@bool?$AA@ 0000000140106800     LIBCMT:undname.obj
 0002:00010808       ??_C@_08PABEKFH@volatile?$AA@ 0000000140106808     LIBCMT:undname.obj
 0002:00010818       ??_C@_09EFNPDFFP@?5volatile?$AA@ 0000000140106818     LIBCMT:undname.obj
 0002:00010824       ??_C@_05BNCCCJPP@const?$AA@ 0000000140106824     LIBCMT:undname.obj
 0002:0001082c       ??_C@_06BNJCAIGJ@double?$AA@ 000000014010682c     LIBCMT:undname.obj
 0002:00010834       ??_C@_05KNFBNCOH@float?$AA@ 0000000140106834     LIBCMT:undname.obj
 0002:0001083c       ??_C@_04GOKPGOLB@long?$AA@ 000000014010683c     LIBCMT:undname.obj
 0002:00010844       ??_C@_03JBIPMCLC@int?$AA@  0000000140106844     LIBCMT:undname.obj
 0002:00010848       ??_C@_05BFKKPKCG@short?$AA@ 0000000140106848     LIBCMT:undname.obj
 0002:00010850       ??_C@_04ENMBGAPA@char?$AA@ 0000000140106850     LIBCMT:undname.obj
 0002:00010858       ??_C@_0BI@DFKBFLJE@GetProcessWindowStation?$AA@ 0000000140106858     LIBCMT:crtmbox.obj
 0002:00010870       ??_C@_0BK@CIDNPOGP@GetUserObjectInformationA?$AA@ 0000000140106870     LIBCMT:crtmbox.obj
 0002:00010890       ??_C@_0BD@HHGDFDBJ@GetLastActivePopup?$AA@ 0000000140106890     LIBCMT:crtmbox.obj
 0002:000108a8       ??_C@_0BA@HNOPNCHB@GetActiveWindow?$AA@ 00000001401068a8     LIBCMT:crtmbox.obj
 0002:000108b8       ??_C@_0M@CHKKJDAI@MessageBoxA?$AA@ 00000001401068b8     LIBCMT:crtmbox.obj
 0002:000108c8       ??_C@_0L@NDEGIDAG@USER32?4DLL?$AA@ 00000001401068c8     LIBCMT:crtmbox.obj
 0002:000108d4       ??_C@_13NOLLCAOD@?$AA?$AA?$AA?$AA@ 00000001401068d4     LIBCMT:a_map.obj
 0002:000108d8       ??_C@_05JGDBENOH@_logb?$AA@ 00000001401068d8     LIBCMT:fpexcept.obj
 0002:000108e0       ??_C@_03ONILCKOB@_yn?$AA@  00000001401068e0     LIBCMT:fpexcept.obj
 0002:000108e4       ??_C@_03NAKIGLHK@_y1?$AA@  00000001401068e4     LIBCMT:fpexcept.obj
 0002:000108e8       ??_C@_03MJLDFKDL@_y0?$AA@  00000001401068e8     LIBCMT:fpexcept.obj
 0002:000108ec       ??_C@_05GKKHEGJL@frexp?$AA@ 00000001401068ec     LIBCMT:fpexcept.obj
 0002:000108f4       ??_C@_04KEPJIHGP@fmod?$AA@ 00000001401068f4     LIBCMT:fpexcept.obj
 0002:000108fc       ??_C@_06MEIMCGCF@_hypot?$AA@ 00000001401068fc     LIBCMT:fpexcept.obj
 0002:00010904       ??_C@_05KBKMEMPO@_cabs?$AA@ 0000000140106904     LIBCMT:fpexcept.obj
 0002:0001090c       ??_C@_05CEJMAHNP@ldexp?$AA@ 000000014010690c     LIBCMT:fpexcept.obj
 0002:00010914       ??_C@_04EHEDPDJG@modf?$AA@ 0000000140106914     LIBCMT:fpexcept.obj
 0002:0001091c       ??_C@_04ODHECPBC@fabs?$AA@ 000000014010691c     LIBCMT:fpexcept.obj
 0002:00010924       ??_C@_04GFPJNGEK@ceil?$AA@ 0000000140106924     LIBCMT:fpexcept.obj
 0002:0001092c       ??_C@_03IIINPABG@tan?$AA@  000000014010692c     LIBCMT:fpexcept.obj
 0002:00010930       ??_C@_03LALBNOCG@cos?$AA@  0000000140106930     LIBCMT:fpexcept.obj
 0002:00010934       ??_C@_03BLEJJJBH@sin?$AA@  0000000140106934     LIBCMT:fpexcept.obj
 0002:00010938       ??_C@_04EIAKFFMI@sqrt?$AA@ 0000000140106938     LIBCMT:fpexcept.obj
 0002:00010940       ??_C@_05KNGEOGJB@atan2?$AA@ 0000000140106940     LIBCMT:fpexcept.obj
 0002:00010948       ??_C@_04MLLJIGOK@atan?$AA@ 0000000140106948     LIBCMT:fpexcept.obj
 0002:00010950       ??_C@_04PDIFKINK@acos?$AA@ 0000000140106950     LIBCMT:fpexcept.obj
 0002:00010958       ??_C@_04FIHNOPOL@asin?$AA@ 0000000140106958     LIBCMT:fpexcept.obj
 0002:00010960       ??_C@_04FJHINJAO@tanh?$AA@ 0000000140106960     LIBCMT:fpexcept.obj
 0002:00010968       ??_C@_04HPJJNFIM@cosh?$AA@ 0000000140106968     LIBCMT:fpexcept.obj
 0002:00010970       ??_C@_04COOMCNPB@sinh?$AA@ 0000000140106970     LIBCMT:fpexcept.obj
 0002:00010978       ??_C@_05HGHHAHAP@log10?$AA@ 0000000140106978     LIBCMT:fpexcept.obj
 0002:00010980       ??_C@_03MGHMBJCF@log?$AA@  0000000140106980     LIBCMT:fpexcept.obj
 0002:00010984       ??_C@_03JGHBODFD@pow?$AA@  0000000140106984     LIBCMT:fpexcept.obj
 0002:00010988       ??_C@_03KHJOGHMM@exp?$AA@  0000000140106988     LIBCMT:fpexcept.obj
 0002:00010990       __newctype                 0000000140106990     LIBCMT:ctype.obj
 0002:00010c90       _wctype                    0000000140106c90     LIBCMT:ctype.obj
 0002:00010ea0       __newclmap                 0000000140106ea0     LIBCMT:ctype.obj
 0002:00011020       __newcumap                 0000000140107020     LIBCMT:ctype.obj
 0002:000111a0       ??_C@_08JCCMCCIL@HH?3mm?3ss?$AA@ 00000001401071a0     LIBCMT:strftime.obj
 0002:000111b0       ??_C@_0BE@CKGJFCPC@dddd?0?5MMMM?5dd?0?5yyyy?$AA@ 00000001401071b0     LIBCMT:strftime.obj
 0002:000111c8       ??_C@_08BPBNCDIB@MM?1dd?1yy?$AA@ 00000001401071c8     LIBCMT:strftime.obj
 0002:000111d4       ??_C@_02CJNFDJBF@PM?$AA@   00000001401071d4     LIBCMT:strftime.obj
 0002:000111d8       ??_C@_02DEDBPAFC@AM?$AA@   00000001401071d8     LIBCMT:strftime.obj
 0002:000111e0       ??_C@_08EDHMEBNP@December?$AA@ 00000001401071e0     LIBCMT:strftime.obj
 0002:000111f0       ??_C@_08HCHEGEOA@November?$AA@ 00000001401071f0     LIBCMT:strftime.obj
 0002:00011200       ??_C@_07JJNFCEND@October?$AA@ 0000000140107200     LIBCMT:strftime.obj
 0002:00011208       ??_C@_09BHHEALKD@September?$AA@ 0000000140107208     LIBCMT:strftime.obj
 0002:00011214       ??_C@_06LBBHFDDG@August?$AA@ 0000000140107214     LIBCMT:strftime.obj
 0002:0001121c       ??_C@_04MIEPOIFP@July?$AA@ 000000014010721c     LIBCMT:strftime.obj
 0002:00011224       ??_C@_04CNLMGBGM@June?$AA@ 0000000140107224     LIBCMT:strftime.obj
 0002:0001122c       ??_C@_05DMJDNLEJ@April?$AA@ 000000014010722c     LIBCMT:strftime.obj
 0002:00011234       ??_C@_05HPCKOFNC@March?$AA@ 0000000140107234     LIBCMT:strftime.obj
 0002:00011240       ??_C@_08GNJGEPFN@February?$AA@ 0000000140107240     LIBCMT:strftime.obj
 0002:00011250       ??_C@_07CGJPFGJA@January?$AA@ 0000000140107250     LIBCMT:strftime.obj
 0002:00011258       ??_C@_03MKABNOCG@Dec?$AA@  0000000140107258     LIBCMT:strftime.obj
 0002:0001125c       ??_C@_03JPJOFNIA@Nov?$AA@  000000014010725c     LIBCMT:strftime.obj
 0002:00011260       ??_C@_03BMAOKBAD@Oct?$AA@  0000000140107260     LIBCMT:strftime.obj
 0002:00011264       ??_C@_03GGCAPAJC@Sep?$AA@  0000000140107264     LIBCMT:strftime.obj
 0002:00011268       ??_C@_03IFJFEIGA@Aug?$AA@  0000000140107268     LIBCMT:strftime.obj
 0002:0001126c       ??_C@_03LBGABGKK@Jul?$AA@  000000014010726c     LIBCMT:strftime.obj
 0002:00011270       ??_C@_03IDFGHECI@Jun?$AA@  0000000140107270     LIBCMT:strftime.obj
 0002:00011274       ??_C@_03CNMDKL@May?$AA@    0000000140107274     LIBCMT:strftime.obj
 0002:00011278       ??_C@_03LEOLGMJP@Apr?$AA@  0000000140107278     LIBCMT:strftime.obj
 0002:0001127c       ??_C@_03ODNJBKGA@Mar?$AA@  000000014010727c     LIBCMT:strftime.obj
 0002:00011280       ??_C@_03HJBDCHOM@Feb?$AA@  0000000140107280     LIBCMT:strftime.obj
 0002:00011284       ??_C@_03JIHJHPIE@Jan?$AA@  0000000140107284     LIBCMT:strftime.obj
 0002:00011288       ??_C@_08INBOOONO@Saturday?$AA@ 0000000140107288     LIBCMT:strftime.obj
 0002:00011294       ??_C@_06JECMNKMI@Friday?$AA@ 0000000140107294     LIBCMT:strftime.obj
 0002:000112a0       ??_C@_08HACCIKIA@Thursday?$AA@ 00000001401072a0     LIBCMT:strftime.obj
 0002:000112b0       ??_C@_09DLIGFAKA@Wednesday?$AA@ 00000001401072b0     LIBCMT:strftime.obj
 0002:000112c0       ??_C@_07BAAGCFCM@Tuesday?$AA@ 00000001401072c0     LIBCMT:strftime.obj
 0002:000112c8       ??_C@_06JLEDEDGH@Monday?$AA@ 00000001401072c8     LIBCMT:strftime.obj
 0002:000112d0       ??_C@_06OOPIFAJ@Sunday?$AA@ 00000001401072d0     LIBCMT:strftime.obj
 0002:000112d8       ??_C@_03FEFJNEK@Sat?$AA@   00000001401072d8     LIBCMT:strftime.obj
 0002:000112dc       ??_C@_03IDIOELNC@Fri?$AA@  00000001401072dc     LIBCMT:strftime.obj
 0002:000112e0       ??_C@_03IOFIKPDN@Thu?$AA@  00000001401072e0     LIBCMT:strftime.obj
 0002:000112e4       ??_C@_03MHOMLAJA@Wed?$AA@  00000001401072e4     LIBCMT:strftime.obj
 0002:000112e8       ??_C@_03NAGEINEP@Tue?$AA@  00000001401072e8     LIBCMT:strftime.obj
 0002:000112ec       ??_C@_03PDAGKDH@Mon?$AA@   00000001401072ec     LIBCMT:strftime.obj
 0002:000112f0       ??_C@_03KOEHGMDN@Sun?$AA@  00000001401072f0     LIBCMT:strftime.obj
 0002:000112f4       ??_C@_03EBAPMIKO@a?1p?$AA@ 00000001401072f4     LIBCMT:strftime.obj
 0002:000112f8       ??_C@_05JAMEPDIN@am?1pm?$AA@ 00000001401072f8     LIBCMT:strftime.obj
 0002:00011300       ??_C@_0O@FMJNFNKE@united?9states?$AA@ 0000000140107300     LIBCMT:getqloc.obj
 0002:00011310       ??_C@_0P@NDHFFKCA@united?9kingdom?$AA@ 0000000140107310     LIBCMT:getqloc.obj
 0002:00011320       ??_C@_0BC@HHDADLGF@trinidad?5?$CG?5tobago?$AA@ 0000000140107320     LIBCMT:getqloc.obj
 0002:00011338       ??_C@_0M@IOAEBDAC@south?9korea?$AA@ 0000000140107338     LIBCMT:getqloc.obj
 0002:00011348       ??_C@_0N@FIELFKIJ@south?9africa?$AA@ 0000000140107348     LIBCMT:getqloc.obj
 0002:00011358       ??_C@_0M@OPNDHCMC@south?5korea?$AA@ 0000000140107358     LIBCMT:getqloc.obj
 0002:00011368       ??_C@_0N@MDEOEPFI@south?5africa?$AA@ 0000000140107368     LIBCMT:getqloc.obj
 0002:00011378       ??_C@_06FKAPCJLB@slovak?$AA@ 0000000140107378     LIBCMT:getqloc.obj
 0002:00011380       ??_C@_0M@EFJANOAL@puerto?9rico?$AA@ 0000000140107380     LIBCMT:getqloc.obj
 0002:00011390       ??_C@_08PGOJKDAI@pr?9china?$AA@ 0000000140107390     LIBCMT:getqloc.obj
 0002:000113a0       ??_C@_08JHDOMCMI@pr?5china?$AA@ 00000001401073a0     LIBCMT:getqloc.obj
 0002:000113ac       ??_C@_02JHCHFBLL@nz?$AA@   00000001401073ac     LIBCMT:getqloc.obj
 0002:000113b0       ??_C@_0M@LINHDHKP@new?9zealand?$AA@ 00000001401073b0     LIBCMT:getqloc.obj
 0002:000113c0       ??_C@_09IIIPPBDB@hong?9kong?$AA@ 00000001401073c0     LIBCMT:getqloc.obj
 0002:000113d0       ??_C@_07HJLCKBG@holland?$AA@ 00000001401073d0     LIBCMT:getqloc.obj
 0002:000113d8       ??_C@_0O@LEHGMHAG@great?5britain?$AA@ 00000001401073d8     LIBCMT:getqloc.obj
 0002:000113e8       ??_C@_07FACOMELA@england?$AA@ 00000001401073e8     LIBCMT:getqloc.obj
 0002:000113f0       ??_C@_05JIHCEICB@czech?$AA@ 00000001401073f0     LIBCMT:getqloc.obj
 0002:000113f8       ??_C@_05BBJOBLGB@china?$AA@ 00000001401073f8     LIBCMT:getqloc.obj
 0002:00011400       ??_C@_07GPKPHICP@britain?$AA@ 0000000140107400     LIBCMT:getqloc.obj
 0002:00011408       ??_C@_07MHIPBHMG@america?$AA@ 0000000140107408     LIBCMT:getqloc.obj
 0002:00011410       ??_C@_03KIALPMKC@usa?$AA@  0000000140107410     LIBCMT:getqloc.obj
 0002:00011414       ??_C@_02FGJGKGGD@us?$AA@   0000000140107414     LIBCMT:getqloc.obj
 0002:00011418       ??_C@_02NEINDODK@uk?$AA@   0000000140107418     LIBCMT:getqloc.obj
 0002:0001141c       ??_C@_05JMPCFJFJ@swiss?$AA@ 000000014010741c     LIBCMT:getqloc.obj
 0002:00011428       ??_C@_0BA@HLOCPIOD@swedish?9finland?$AA@ 0000000140107428     LIBCMT:getqloc.obj
 0002:00011438       ??_C@_0BC@PKCNIABK@spanish?9venezuela?$AA@ 0000000140107438     LIBCMT:getqloc.obj
 0002:00011450       ??_C@_0BA@GBHHMIJI@spanish?9uruguay?$AA@ 0000000140107450     LIBCMT:getqloc.obj
 0002:00011460       ??_C@_0BE@BHDOHPMC@spanish?9puerto?5rico?$AA@ 0000000140107460     LIBCMT:getqloc.obj
 0002:00011478       ??_C@_0N@KMOIDGGN@spanish?9peru?$AA@ 0000000140107478     LIBCMT:getqloc.obj
 0002:00011488       ??_C@_0BB@HMHLPGPH@spanish?9paraguay?$AA@ 0000000140107488     LIBCMT:getqloc.obj
 0002:000114a0       ??_C@_0P@MCPKNGFD@spanish?9panama?$AA@ 00000001401074a0     LIBCMT:getqloc.obj
 0002:000114b0       ??_C@_0BC@IHOHGAIL@spanish?9nicaragua?$AA@ 00000001401074b0     LIBCMT:getqloc.obj
 0002:000114c8       ??_C@_0P@KLMJDNFJ@spanish?9modern?$AA@ 00000001401074c8     LIBCMT:getqloc.obj
 0002:000114d8       ??_C@_0BA@BPAPGBCM@spanish?9mexican?$AA@ 00000001401074d8     LIBCMT:getqloc.obj
 0002:000114e8       ??_C@_0BB@PDECHHHE@spanish?9honduras?$AA@ 00000001401074e8     LIBCMT:getqloc.obj
 0002:00011500       ??_C@_0BC@KLHKFGDB@spanish?9guatemala?$AA@ 0000000140107500     LIBCMT:getqloc.obj
 0002:00011518       ??_C@_0BE@MFOOKJAI@spanish?9el?5salvador?$AA@ 0000000140107518     LIBCMT:getqloc.obj
 0002:00011530       ??_C@_0BA@FCOKFPFC@spanish?9ecuador?$AA@ 0000000140107530     LIBCMT:getqloc.obj
 0002:00011540       ??_C@_0BL@PLMGIMOO@spanish?9dominican?5republic?$AA@ 0000000140107540     LIBCMT:getqloc.obj
 0002:00011560       ??_C@_0BD@HLGDNMHB@spanish?9costa?5rica?$AA@ 0000000140107560     LIBCMT:getqloc.obj
 0002:00011578       ??_C@_0BB@PKCBKCPE@spanish?9colombia?$AA@ 0000000140107578     LIBCMT:getqloc.obj
 0002:00011590       ??_C@_0O@MCBIJGNE@spanish?9chile?$AA@ 0000000140107590     LIBCMT:getqloc.obj
 0002:000115a0       ??_C@_0BA@BEFEIGJJ@spanish?9bolivia?$AA@ 00000001401075a0     LIBCMT:getqloc.obj
 0002:000115b0       ??_C@_0BC@EMECMPD@spanish?9argentina?$AA@ 00000001401075b0     LIBCMT:getqloc.obj
 0002:000115c8       ??_C@_0BF@EALFLENP@portuguese?9brazilian?$AA@ 00000001401075c8     LIBCMT:getqloc.obj
 0002:000115e0       ??_C@_0BC@HBLEBLNN@norwegian?9nynorsk?$AA@ 00000001401075e0     LIBCMT:getqloc.obj
 0002:000115f8       ??_C@_0BB@HMACDDCK@norwegian?9bokmal?$AA@ 00000001401075f8     LIBCMT:getqloc.obj
 0002:00011610       ??_C@_09BAFFPPHE@norwegian?$AA@ 0000000140107610     LIBCMT:getqloc.obj
 0002:00011620       ??_C@_0O@EAJFJDFG@italian?9swiss?$AA@ 0000000140107620     LIBCMT:getqloc.obj
 0002:00011630       ??_C@_0O@CNOMPGD@irish?9english?$AA@ 0000000140107630     LIBCMT:getqloc.obj
 0002:00011640       ??_C@_0N@EDHBGCKG@german?9swiss?$AA@ 0000000140107640     LIBCMT:getqloc.obj
 0002:00011650       ??_C@_0BC@JACMHNBP@german?9luxembourg?$AA@ 0000000140107650     LIBCMT:getqloc.obj
 0002:00011668       ??_C@_0BE@HBGMGFEG@german?9lichtenstein?$AA@ 0000000140107668     LIBCMT:getqloc.obj
 0002:00011680       ??_C@_0BA@HKKBIBKL@german?9austrian?$AA@ 0000000140107680     LIBCMT:getqloc.obj
 0002:00011690       ??_C@_0N@GCAEPEBK@french?9swiss?$AA@ 0000000140107690     LIBCMT:getqloc.obj
 0002:000116a0       ??_C@_0BC@DJFJJCK@french?9luxembourg?$AA@ 00000001401076a0     LIBCMT:getqloc.obj
 0002:000116b8       ??_C@_0BA@NNCEDFIC@french?9canadian?$AA@ 00000001401076b8     LIBCMT:getqloc.obj
 0002:000116c8       ??_C@_0P@CMPOCLM@french?9belgian?$AA@ 00000001401076c8     LIBCMT:getqloc.obj
 0002:000116d8       ??_C@_0M@GHHDJOK@english?9usa?$AA@ 00000001401076d8     LIBCMT:getqloc.obj
 0002:000116e8       ??_C@_0L@PLDJKEIL@english?9us?$AA@ 00000001401076e8     LIBCMT:getqloc.obj
 0002:000116f8       ??_C@_0L@HJCCDMNC@english?9uk?$AA@ 00000001401076f8     LIBCMT:getqloc.obj
 0002:00011708       ??_C@_0BK@CKLIAGJB@english?9trinidad?5y?5tobago?$AA@ 0000000140107708     LIBCMT:getqloc.obj
 0002:00011728       ??_C@_0BF@JMJMGNNF@english?9south?5africa?$AA@ 0000000140107728     LIBCMT:getqloc.obj
 0002:00011740       ??_C@_0L@DKIIFDFD@english?9nz?$AA@ 0000000140107740     LIBCMT:getqloc.obj
 0002:00011750       ??_C@_0BA@ONHGJCLH@english?9jamaica?$AA@ 0000000140107750     LIBCMT:getqloc.obj
 0002:00011760       ??_C@_0M@HJBGHOPO@english?9ire?$AA@ 0000000140107760     LIBCMT:getqloc.obj
 0002:00011770       ??_C@_0BC@LFEKMIFB@english?9caribbean?$AA@ 0000000140107770     LIBCMT:getqloc.obj
 0002:00011788       ??_C@_0M@OLDPFKHI@english?9can?$AA@ 0000000140107788     LIBCMT:getqloc.obj
 0002:00011798       ??_C@_0P@OMDEHBMP@english?9belize?$AA@ 0000000140107798     LIBCMT:getqloc.obj
 0002:000117a8       ??_C@_0M@KFHFPFED@english?9aus?$AA@ 00000001401077a8     LIBCMT:getqloc.obj
 0002:000117b8       ??_C@_0BB@MNMBKDFE@english?9american?$AA@ 00000001401077b8     LIBCMT:getqloc.obj
 0002:000117d0       ??_C@_0O@KIDLNNBA@dutch?9belgian?$AA@ 00000001401077d0     LIBCMT:getqloc.obj
 0002:000117e0       ??_C@_0BE@JBKABBMH@chinese?9traditional?$AA@ 00000001401077e0     LIBCMT:getqloc.obj
 0002:000117f8       ??_C@_0BC@MJJMPKCG@chinese?9singapore?$AA@ 00000001401077f8     LIBCMT:getqloc.obj
 0002:00011810       ??_C@_0BD@FDKADDCP@chinese?9simplified?$AA@ 0000000140107810     LIBCMT:getqloc.obj
 0002:00011828       ??_C@_0BB@DBEFDDME@chinese?9hongkong?$AA@ 0000000140107828     LIBCMT:getqloc.obj
 0002:00011840       ??_C@_07DHNMFMCI@chinese?$AA@ 0000000140107840     LIBCMT:getqloc.obj
 0002:00011848       ??_C@_03FNDDCHI@chi?$AA@   0000000140107848     LIBCMT:getqloc.obj
 0002:0001184c       ??_C@_03BMMIADDJ@chh?$AA@  000000014010784c     LIBCMT:getqloc.obj
 0002:00011850       ??_C@_08OAIPJDGI@canadian?$AA@ 0000000140107850     LIBCMT:getqloc.obj
 0002:00011860       ??_C@_07HBPMNPNJ@belgian?$AA@ 0000000140107860     LIBCMT:getqloc.obj
 0002:00011868       ??_C@_0L@OEKOPBEL@australian?$AA@ 0000000140107868     LIBCMT:getqloc.obj
 0002:00011878       ??_C@_0BB@MEIMBEDG@american?9english?$AA@ 0000000140107878     LIBCMT:getqloc.obj
 0002:00011890       ??_C@_0BB@DFMDPDGB@american?5english?$AA@ 0000000140107890     LIBCMT:getqloc.obj
 0002:000118a8       ??_C@_08IJLOKOLL@american?$AA@ 00000001401078a8     LIBCMT:getqloc.obj
 0002:000118c0       __rg_language              00000001401078c0     LIBCMT:getqloc.obj
 0002:00011cd0       __rg_country               0000000140107cd0     LIBCMT:getqloc.obj
 0002:00011e40       __rglangidNotDefault       0000000140107e40     LIBCMT:getqloc.obj
 0002:00011e54       ??_C@_03NFKLAGEF@OCP?$AA@  0000000140107e54     LIBCMT:getqloc.obj
 0002:00011e58       ??_C@_03DFHEHBHG@ACP?$AA@  0000000140107e58     LIBCMT:getqloc.obj
 0002:00011e60       ??_C@_0BC@NFIEMBLL@Norwegian?9Nynorsk?$AA@ 0000000140107e60     LIBCMT:getqloc.obj
 0002:00011e74       ??_C@_06IMKFLFPG@1?$CDQNAN?$AA@ 0000000140107e74     LIBCMT:x10fout.obj
 0002:00011e7c       ??_C@_05DNEBIAHO@1?$CDINF?$AA@ 0000000140107e7c     LIBCMT:x10fout.obj
 0002:00011e84       ??_C@_05PHHOCPM@1?$CDIND?$AA@ 0000000140107e84     LIBCMT:x10fout.obj
 0002:00011e8c       ??_C@_06PGGFOGJG@1?$CDSNAN?$AA@ 0000000140107e8c     LIBCMT:x10fout.obj
 0002:00011eb8       ??_7HASH64withTransform@TaoCrypt@@6B@ 0000000140107eb8     taocrypt:hash.obj
 0002:00011f08       ??_7HASHwithTransform@TaoCrypt@@6B@ 0000000140107f08     taocrypt:hash.obj
 0002:00012048       ??_7MultiplicativeGroupT@AbstractRing@TaoCrypt@@6B@ 0000000140108048     taocrypt:integer.obj
 0002:000120b8       ??_7ModularArithmetic@TaoCrypt@@6B@ 00000001401080b8     taocrypt:integer.obj
 0002:00012198       ??_7MontgomeryRepresentation@TaoCrypt@@6B@ 0000000140108198     taocrypt:integer.obj
 0002:00012278       ??_7EuclideanDomainOf@TaoCrypt@@6B@ 0000000140108278     taocrypt:integer.obj
 0002:000126d8       ??_7SHA256@TaoCrypt@@6B@   00000001401086d8     taocrypt:sha.obj
 0002:00012728       ??_7SHA224@TaoCrypt@@6B@   0000000140108728     taocrypt:sha.obj
 0002:00012778       ??_7SHA512@TaoCrypt@@6B@   0000000140108778     taocrypt:sha.obj
 0002:000127c8       ??_7SHA384@TaoCrypt@@6B@   00000001401087c8     taocrypt:sha.obj
 0002:000130b0       ?Te@AES@TaoCrypt@@0QAY0BAA@$$CBIA 00000001401090b0     taocrypt:aes.obj
 0002:000144b0       ?Td@AES@TaoCrypt@@0QAY0BAA@$$CBIA 000000014010a4b0     taocrypt:aes.obj
 0002:000158b8       ??_7BER_Decoder@TaoCrypt@@6B@ 000000014010b8b8     taocrypt:dsa.obj
 0002:000158d0       ??_7DSA_Private_Decoder@TaoCrypt@@6B@ 000000014010b8d0     taocrypt:dsa.obj
 0002:000158e8       ??_7DSA_Public_Decoder@TaoCrypt@@6B@ 000000014010b8e8     taocrypt:dsa.obj
 0002:00015900       ??_7DH_Decoder@TaoCrypt@@6B@ 000000014010b900     taocrypt:dh.obj
 0002:00015910       __real@4014000000000000    000000014010b910     taocrypt:dh.obj
 0002:00015918       __real@4003333333333333    000000014010b918     taocrypt:dh.obj
 0002:00015920       __real@3fd5555555555555    000000014010b920     taocrypt:dh.obj
 0002:00015928       __real@3fe5555555555555    000000014010b928     taocrypt:dh.obj
 0002:00015938       ??_7RSA_Private_Decoder@TaoCrypt@@6B@ 000000014010b938     taocrypt:rsa.obj
 0002:00015950       ??_7RSA_Public_Decoder@TaoCrypt@@6B@ 000000014010b950     taocrypt:rsa.obj
 0002:00015968       ??_7PKCS12_Decoder@TaoCrypt@@6B@ 000000014010b968     taocrypt:asn.obj
 0002:00015980       ??_7DER_Encoder@TaoCrypt@@6B@ 000000014010b980     taocrypt:asn.obj
 0002:00015990       ??_7CertDecoder@TaoCrypt@@6B@ 000000014010b990     taocrypt:asn.obj
 0002:000159a0       ??_C@_0P@FGCJCCJK@?1emailAddress?$DN?$AA@ 000000014010b9a0     taocrypt:asn.obj
 0002:000159b0       ??_C@_04LJKEFMLJ@?1OU?$DN?$AA@ 000000014010b9b0     taocrypt:asn.obj
 0002:000159b8       ??_C@_03DHMEBNMI@?1O?$DN?$AA@ 000000014010b9b8     taocrypt:asn.obj
 0002:000159bc       ??_C@_04KCKJNOKJ@?1ST?$DN?$AA@ 000000014010b9bc     taocrypt:asn.obj
 0002:000159c4       ??_C@_03DFICKDJB@?1L?$DN?$AA@ 000000014010b9c4     taocrypt:asn.obj
 0002:000159c8       ??_C@_03DONOOEKM@?1C?$DN?$AA@ 000000014010b9c8     taocrypt:asn.obj
 0002:000159cc       ??_C@_04LDBIPIAP@?1SN?$DN?$AA@ 000000014010b9cc     taocrypt:asn.obj
 0002:00015a08       ??_7Signature_Encoder@TaoCrypt@@6B@ 000000014010ba08     taocrypt:asn.obj
 0002:00015a10       ??_C@_02GMLFBBN@wb?$AA@    000000014010ba10     taocrypt:file.obj
 0002:00015a18       ??_C@_1CC@LJGHMMH@?$AAn?$AA?5?$AA?$DO?$AA?5?$AAo?$AAt?$AAh?$AAe?$AAr?$AA?4?$AAs?$AAi?$AAz?$AAe?$AA?$CI?$AA?$CJ?$AA?$AA@ 000000014010ba18     taocrypt:algebra.obj
 0002:00015a40       ??_C@_1LO@CACPAIF@?$AAG?$AA?3?$AA?2?$AAm?$AAy?$AAs?$AAq?$AAl?$AA?9?$AA5?$AA?4?$AA1?$AA?4?$AA5?$AA3?$AA?9?$AAw?$AAi?$AAn?$AAb?$AAu?$AAi?$AAl?$AAd?$AA?2?$AAm?$AAy?$AAs?$AAq?$AAl?$AA?9?$AAc@ 000000014010ba40     taocrypt:algebra.obj
 0002:00015b00       ??_C@_1DA@DMJEOLMN@?$AAe?$AAx?$AAp?$AAB?$AAe?$AAg?$AAi?$AAn?$AA?9?$AA?$DO?$AAN?$AAo?$AAt?$AAN?$AAe?$AAg?$AAa?$AAt?$AAi?$AAv?$AAe?$AA?$CI?$AA?$CJ?$AA?$AA@ 000000014010bb00     taocrypt:algebra.obj
 0002:00015b30       ??_C@_1CE@JDMHDBFO@?$AA?4?$AA?2?$AAs?$AAr?$AAc?$AA?2?$AAa?$AAl?$AAg?$AAe?$AAb?$AAr?$AAa?$AA?4?$AAc?$AAp?$AAp?$AA?$AA@ 000000014010bb30     taocrypt:algebra.obj
 0002:00015b58       ?rcon_@AES@TaoCrypt@@0QBIB 000000014010bb58     taocrypt:aestables.obj
 0002:00015c88       ??_7MD2@TaoCrypt@@6B@      000000014010bc88     taocrypt:md2.obj
 0002:00016130       __real@3fe0000000000000    000000014010c130     LIBCMT:log.obj
 0002:00016138       __real@3f80000000000000    000000014010c138     LIBCMT:log.obj
 0002:00016140       __real@4000000000000000    000000014010c140     LIBCMT:log.obj
 0002:000169d0       ??_C@_15IABLJNFO@?$AA?6?$AA?6?$AA?$AA@ 000000014010c9d0     LIBCMT:wassert.obj
 0002:000169d8       ??_C@_13LBAGMAIH@?$AA?6?$AA?$AA@ 000000014010c9d8     LIBCMT:wassert.obj
 0002:000169e0       ??_C@_17LGKOMLJ@?$AA?4?$AA?4?$AA?4?$AA?$AA@ 000000014010c9e0     LIBCMT:wassert.obj
 0002:000169f0       ??_C@_1EK@MBDPDCGA@?$AAM?$AAi?$AAc?$AAr?$AAo?$AAs?$AAo?$AAf?$AAt?$AA?5?$AAV?$AAi?$AAs?$AAu?$AAa?$AAl?$AA?5?$AAC?$AA?$CL?$AA?$CL?$AA?5?$AAR?$AAu?$AAn?$AAt?$AAi?$AAm?$AAe?$AA?5?$AAL?$AAi?$AAb@ 000000014010c9f0     LIBCMT:wassert.obj
 0002:00016a40       ??_C@_1HK@POCJMFGK@?$AA?$CI?$AAP?$AAr?$AAe?$AAs?$AAs?$AA?5?$AAR?$AAe?$AAt?$AAr?$AAy?$AA?5?$AAt?$AAo?$AA?5?$AAd?$AAe?$AAb?$AAu?$AAg?$AA?5?$AAt?$AAh?$AAe?$AA?5?$AAa?$AAp?$AAp?$AAl?$AAi?$AAc@ 000000014010ca40     LIBCMT:wassert.obj
 0002:00016ac0       ??_C@_1OA@EGMLFBHJ@?$AAF?$AAo?$AAr?$AA?5?$AAi?$AAn?$AAf?$AAo?$AAr?$AAm?$AAa?$AAt?$AAi?$AAo?$AAn?$AA?5?$AAo?$AAn?$AA?5?$AAh?$AAo?$AAw?$AA?5?$AAy?$AAo?$AAu?$AAr?$AA?5?$AAp?$AAr?$AAo?$AAg@ 000000014010cac0     LIBCMT:wassert.obj
 0002:00016ba0       ??_C@_1BK@PEDCIPMA@?$AAE?$AAx?$AAp?$AAr?$AAe?$AAs?$AAs?$AAi?$AAo?$AAn?$AA?3?$AA?5?$AA?$AA@ 000000014010cba0     LIBCMT:wassert.obj
 0002:00016bc0       ??_C@_1O@KCAFKHJE@?$AAL?$AAi?$AAn?$AAe?$AA?3?$AA?5?$AA?$AA@ 000000014010cbc0     LIBCMT:wassert.obj
 0002:00016bd0       ??_C@_1O@HEMHKNDC@?$AAF?$AAi?$AAl?$AAe?$AA?3?$AA?5?$AA?$AA@ 000000014010cbd0     LIBCMT:wassert.obj
 0002:00016be0       ??_C@_1CO@EAEJAADC@?$AA?$DM?$AAp?$AAr?$AAo?$AAg?$AAr?$AAa?$AAm?$AA?5?$AAn?$AAa?$AAm?$AAe?$AA?5?$AAu?$AAn?$AAk?$AAn?$AAo?$AAw?$AAn?$AA?$DO?$AA?$AA@ 000000014010cbe0     LIBCMT:wassert.obj
 0002:00016c10       ??_C@_1BE@PHKBBGE@?$AAP?$AAr?$AAo?$AAg?$AAr?$AAa?$AAm?$AA?3?$AA?5?$AA?$AA@ 000000014010cc10     LIBCMT:wassert.obj
 0002:00016c28       ??_C@_1CE@OJBNHDMO@?$AAA?$AAs?$AAs?$AAe?$AAr?$AAt?$AAi?$AAo?$AAn?$AA?5?$AAf?$AAa?$AAi?$AAl?$AAe?$AAd?$AA?$CB?$AA?$AA@ 000000014010cc28     LIBCMT:wassert.obj
 0002:00016c50       ??_C@_0CG@KNFFOMBO@Filename?5cannot?5be?5displayed?5on?5@ 000000014010cc50     LIBCMT:wassert.obj
 0002:00016c78       ??_C@_0CI@FDIHEIE@Expression?5cannot?5be?5displayed?5o@ 000000014010cc78     LIBCMT:wassert.obj
 0002:00016ca0       ??_C@_0BK@DEKFELLI@GetUserObjectInformationW?$AA@ 000000014010cca0     LIBCMT:crtmboxw.obj
 0002:00016cc0       ??_C@_0M@DLDCCGNP@MessageBoxW?$AA@ 000000014010ccc0     LIBCMT:crtmboxw.obj
 0002:00016cd0       ??_C@_1BG@GOEBHBDC@?$AAU?$AAS?$AAE?$AAR?$AA3?$AA2?$AA?4?$AAD?$AAL?$AAL?$AA?$AA@ 000000014010ccd0     LIBCMT:crtmboxw.obj
 0002:00016ce8       ??_C@_0DN@EBBNMLME@?$CIPress?5Retry?5to?5debug?5the?5applic@ 000000014010cce8     LIBCMT:assert.obj
 0002:00016d30       ??_C@_0HA@OJHAGA@For?5information?5on?5how?5your?5prog@ 000000014010cd30     LIBCMT:assert.obj
 0002:00016da0       ??_C@_0N@MEECIJGN@Expression?3?5?$AA@ 000000014010cda0     LIBCMT:assert.obj
 0002:00016db0       ??_C@_06FIEBOLOH@Line?3?5?$AA@ 000000014010cdb0     LIBCMT:assert.obj
 0002:00016db8       ??_C@_06IGPBOHMJ@File?3?5?$AA@ 000000014010cdb8     LIBCMT:assert.obj
 0002:00016dc0       ??_C@_09KLGCKDOD@Program?3?5?$AA@ 000000014010cdc0     LIBCMT:assert.obj
 0002:00016dd0       ??_C@_0BC@LAIDCHCH@Assertion?5failed?$CB?$AA@ 000000014010cdd0     LIBCMT:assert.obj
 0002:0001a820       _tls_used                  0000000140110820     LIBCMT:tlssup.obj
 0002:0001ab00       ??_R4Command@@6B@          0000000140110b00     command.obj
 0002:0001ab28       ??_R3Command@@8            0000000140110b28     command.obj
 0002:0001ab40       ??_R2Command@@8            0000000140110b40     command.obj
 0002:0001ab50       ??_R1A@?0A@EA@Command@@8   0000000140110b50     command.obj
 0002:0001ab80       ??_R4Instance_cmd@@6B@     0000000140110b80     commands.obj
 0002:0001aba8       ??_R3Instance_cmd@@8       0000000140110ba8     commands.obj
 0002:0001abc0       ??_R2Instance_cmd@@8       0000000140110bc0     commands.obj
 0002:0001abd8       ??_R1A@?0A@EA@Instance_cmd@@8 0000000140110bd8     commands.obj
 0002:0001ac08       ??_R4Abstract_instance_cmd@@6B@ 0000000140110c08     commands.obj
 0002:0001ac30       ??_R3Abstract_instance_cmd@@8 0000000140110c30     commands.obj
 0002:0001ac48       ??_R2Abstract_instance_cmd@@8 0000000140110c48     commands.obj
 0002:0001ac70       ??_R1A@?0A@EA@Abstract_instance_cmd@@8 0000000140110c70     commands.obj
 0002:0001aca0       ??_R4Show_instance_status@@6B@ 0000000140110ca0     commands.obj
 0002:0001acc8       ??_R3Show_instance_status@@8 0000000140110cc8     commands.obj
 0002:0001ace0       ??_R2Show_instance_status@@8 0000000140110ce0     commands.obj
 0002:0001ad10       ??_R1A@?0A@EA@Show_instance_status@@8 0000000140110d10     commands.obj
 0002:0001ad40       ??_R4Show_instance_options@@6B@ 0000000140110d40     commands.obj
 0002:0001ad68       ??_R3Show_instance_options@@8 0000000140110d68     commands.obj
 0002:0001ad80       ??_R2Show_instance_options@@8 0000000140110d80     commands.obj
 0002:0001adb0       ??_R1A@?0A@EA@Show_instance_options@@8 0000000140110db0     commands.obj
 0002:0001ade0       ??_R4Start_instance@@6B@   0000000140110de0     commands.obj
 0002:0001ae08       ??_R3Start_instance@@8     0000000140110e08     commands.obj
 0002:0001ae20       ??_R2Start_instance@@8     0000000140110e20     commands.obj
 0002:0001ae50       ??_R1A@?0A@EA@Start_instance@@8 0000000140110e50     commands.obj
 0002:0001ae80       ??_R4Stop_instance@@6B@    0000000140110e80     commands.obj
 0002:0001aea8       ??_R3Stop_instance@@8      0000000140110ea8     commands.obj
 0002:0001aec0       ??_R2Stop_instance@@8      0000000140110ec0     commands.obj
 0002:0001aef0       ??_R1A@?0A@EA@Stop_instance@@8 0000000140110ef0     commands.obj
 0002:0001af20       ??_R4Create_instance@@6B@  0000000140110f20     commands.obj
 0002:0001af48       ??_R3Create_instance@@8    0000000140110f48     commands.obj
 0002:0001af60       ??_R2Create_instance@@8    0000000140110f60     commands.obj
 0002:0001af88       ??_R1A@?0A@EA@Create_instance@@8 0000000140110f88     commands.obj
 0002:0001afb8       ??_R4Drop_instance@@6B@    0000000140110fb8     commands.obj
 0002:0001afe0       ??_R3Drop_instance@@8      0000000140110fe0     commands.obj
 0002:0001aff8       ??_R2Drop_instance@@8      0000000140110ff8     commands.obj
 0002:0001b020       ??_R1A@?0A@EA@Drop_instance@@8 0000000140111020     commands.obj
 0002:0001b050       ??_R4Show_instance_log@@6B@ 0000000140111050     commands.obj
 0002:0001b078       ??_R3Show_instance_log@@8  0000000140111078     commands.obj
 0002:0001b090       ??_R2Show_instance_log@@8  0000000140111090     commands.obj
 0002:0001b0c0       ??_R1A@?0A@EA@Show_instance_log@@8 00000001401110c0     commands.obj
 0002:0001b0f0       ??_R4Show_instance_log_files@@6B@ 00000001401110f0     commands.obj
 0002:0001b118       ??_R3Show_instance_log_files@@8 0000000140111118     commands.obj
 0002:0001b130       ??_R2Show_instance_log_files@@8 0000000140111130     commands.obj
 0002:0001b160       ??_R1A@?0A@EA@Show_instance_log_files@@8 0000000140111160     commands.obj
 0002:0001b190       ??_R4Abstract_option_cmd@@6B@ 0000000140111190     commands.obj
 0002:0001b1b8       ??_R3Abstract_option_cmd@@8 00000001401111b8     commands.obj
 0002:0001b1d0       ??_R2Abstract_option_cmd@@8 00000001401111d0     commands.obj
 0002:0001b1e8       ??_R1A@?0A@EA@Abstract_option_cmd@@8 00000001401111e8     commands.obj
 0002:0001b218       ??_R4Thread@@6B@           0000000140111218     guardian.obj
 0002:0001b240       ??_R3Thread@@8             0000000140111240     guardian.obj
 0002:0001b258       ??_R2Thread@@8             0000000140111258     guardian.obj
 0002:0001b268       ??_R1A@?0A@EA@Thread@@8    0000000140111268     guardian.obj
 0002:0001b298       ??_R4Guardian@@6B@         0000000140111298     guardian.obj
 0002:0001b2c0       ??_R3Guardian@@8           00000001401112c0     guardian.obj
 0002:0001b2d8       ??_R2Guardian@@8           00000001401112d8     guardian.obj
 0002:0001b2f0       ??_R1A@?0A@EA@Guardian@@8  00000001401112f0     guardian.obj
 0002:0001b320       ??_R4Instance_monitor@@6B@ 0000000140111320     instance.obj
 0002:0001b348       ??_R3Instance_monitor@@8   0000000140111348     instance.obj
 0002:0001b360       ??_R2Instance_monitor@@8   0000000140111360     instance.obj
 0002:0001b378       ??_R1A@?0A@EA@Instance_monitor@@8 0000000140111378     instance.obj
 0002:0001b3a8       ??_R4Listener@@6B@         00000001401113a8     listener.obj
 0002:0001b3d0       ??_R3Listener@@8           00000001401113d0     listener.obj
 0002:0001b3e8       ??_R2Listener@@8           00000001401113e8     listener.obj
 0002:0001b400       ??_R1A@?0A@EA@Listener@@8  0000000140111400     listener.obj
 0002:0001b430       ??_R4ThreadModelChecker@?A0xfeba5fb5@@6B@ 0000000140111430     manager.obj
 0002:0001b458       ??_R3ThreadModelChecker@?A0xfeba5fb5@@8 0000000140111458     manager.obj
 0002:0001b470       ??_R2ThreadModelChecker@?A0xfeba5fb5@@8 0000000140111470     manager.obj
 0002:0001b488       ??_R1A@?0A@EA@ThreadModelChecker@?A0xfeba5fb5@@8 0000000140111488     manager.obj
 0002:0001b4b8       ??_R4Mysql_connection@@6B@ 00000001401114b8     mysql_connection.obj
 0002:0001b4e0       ??_R3Mysql_connection@@8   00000001401114e0     mysql_connection.obj
 0002:0001b4f8       ??_R2Mysql_connection@@8   00000001401114f8     mysql_connection.obj
 0002:0001b510       ??_R1A@?0A@EA@Mysql_connection@@8 0000000140111510     mysql_connection.obj
 0002:0001b540       ??_R4User_management_cmd@@6B@ 0000000140111540     options.obj
 0002:0001b568       ??_R3User_management_cmd@@8 0000000140111568     options.obj
 0002:0001b580       ??_R2User_management_cmd@@8 0000000140111580     options.obj
 0002:0001b590       ??_R1A@?0A@EA@User_management_cmd@@8 0000000140111590     options.obj
 0002:0001b5c0       ??_R4Print_password_line_cmd@@6B@ 00000001401115c0     options.obj
 0002:0001b5e8       ??_R3Print_password_line_cmd@@8 00000001401115e8     options.obj
 0002:0001b600       ??_R2Print_password_line_cmd@@8 0000000140111600     options.obj
 0002:0001b618       ??_R1A@?0A@EA@Print_password_line_cmd@@8 0000000140111618     options.obj
 0002:0001b648       ??_R4Add_user_cmd@@6B@     0000000140111648     options.obj
 0002:0001b670       ??_R3Add_user_cmd@@8       0000000140111670     options.obj
 0002:0001b688       ??_R2Add_user_cmd@@8       0000000140111688     options.obj
 0002:0001b6a0       ??_R1A@?0A@EA@Add_user_cmd@@8 00000001401116a0     options.obj
 0002:0001b6d0       ??_R4Drop_user_cmd@@6B@    00000001401116d0     options.obj
 0002:0001b6f8       ??_R3Drop_user_cmd@@8      00000001401116f8     options.obj
 0002:0001b710       ??_R2Drop_user_cmd@@8      0000000140111710     options.obj
 0002:0001b728       ??_R1A@?0A@EA@Drop_user_cmd@@8 0000000140111728     options.obj
 0002:0001b758       ??_R4Edit_user_cmd@@6B@    0000000140111758     options.obj
 0002:0001b780       ??_R3Edit_user_cmd@@8      0000000140111780     options.obj
 0002:0001b798       ??_R2Edit_user_cmd@@8      0000000140111798     options.obj
 0002:0001b7b0       ??_R1A@?0A@EA@Edit_user_cmd@@8 00000001401117b0     options.obj
 0002:0001b7e0       ??_R4Clean_db_cmd@@6B@     00000001401117e0     options.obj
 0002:0001b808       ??_R3Clean_db_cmd@@8       0000000140111808     options.obj
 0002:0001b820       ??_R2Clean_db_cmd@@8       0000000140111820     options.obj
 0002:0001b838       ??_R1A@?0A@EA@Clean_db_cmd@@8 0000000140111838     options.obj
 0002:0001b868       ??_R4Check_db_cmd@@6B@     0000000140111868     options.obj
 0002:0001b890       ??_R3Check_db_cmd@@8       0000000140111890     options.obj
 0002:0001b8a8       ??_R2Check_db_cmd@@8       00000001401118a8     options.obj
 0002:0001b8c0       ??_R1A@?0A@EA@Check_db_cmd@@8 00000001401118c0     options.obj
 0002:0001b8f0       ??_R4List_users_cmd@@6B@   00000001401118f0     options.obj
 0002:0001b918       ??_R3List_users_cmd@@8     0000000140111918     options.obj
 0002:0001b930       ??_R2List_users_cmd@@8     0000000140111930     options.obj
 0002:0001b948       ??_R1A@?0A@EA@List_users_cmd@@8 0000000140111948     options.obj
 0002:0001b978       ??_R4Show_instances@@6B@   0000000140111978     parse.obj
 0002:0001b9a0       ??_R3Show_instances@@8     00000001401119a0     parse.obj
 0002:0001b9b8       ??_R2Show_instances@@8     00000001401119b8     parse.obj
 0002:0001b9d0       ??_R1A@?0A@EA@Show_instances@@8 00000001401119d0     parse.obj
 0002:0001ba00       ??_R4Flush_instances@@6B@  0000000140111a00     parse.obj
 0002:0001ba28       ??_R3Flush_instances@@8    0000000140111a28     parse.obj
 0002:0001ba40       ??_R2Flush_instances@@8    0000000140111a40     parse.obj
 0002:0001ba58       ??_R1A@?0A@EA@Flush_instances@@8 0000000140111a58     parse.obj
 0002:0001ba88       ??_R4Set_option@@6B@       0000000140111a88     parse.obj
 0002:0001bab0       ??_R3Set_option@@8         0000000140111ab0     parse.obj
 0002:0001bac8       ??_R2Set_option@@8         0000000140111ac8     parse.obj
 0002:0001baf0       ??_R1A@?0A@EA@Set_option@@8 0000000140111af0     parse.obj
 0002:0001bb20       ??_R4Unset_option@@6B@     0000000140111b20     parse.obj
 0002:0001bb48       ??_R3Unset_option@@8       0000000140111b48     parse.obj
 0002:0001bb60       ??_R2Unset_option@@8       0000000140111b60     parse.obj
 0002:0001bb88       ??_R1A@?0A@EA@Unset_option@@8 0000000140111b88     parse.obj
 0002:0001bbb8       ??_R4Syntax_error@@6B@     0000000140111bb8     parse.obj
 0002:0001bbe0       ??_R3Syntax_error@@8       0000000140111be0     parse.obj
 0002:0001bbf8       ??_R2Syntax_error@@8       0000000140111bf8     parse.obj
 0002:0001bc10       ??_R1A@?0A@EA@Syntax_error@@8 0000000140111c10     parse.obj
 0002:0001bc40       ??_R4Mysqld_output_parser@?A0x493e448a@@6B@ 0000000140111c40     parse_output.obj
 0002:0001bc68       ??_R3Mysqld_output_parser@?A0x493e448a@@8 0000000140111c68     parse_output.obj
 0002:0001bc80       ??_R2Mysqld_output_parser@?A0x493e448a@@8 0000000140111c80     parse_output.obj
 0002:0001bc90       ??_R1A@?0A@EA@Mysqld_output_parser@?A0x493e448a@@8 0000000140111c90     parse_output.obj
 0002:0001bcc0       ??_R4Mysqld_output_parser_win@?A0x493e448a@@6B@ 0000000140111cc0     parse_output.obj
 0002:0001bce8       ??_R3Mysqld_output_parser_win@?A0x493e448a@@8 0000000140111ce8     parse_output.obj
 0002:0001bd00       ??_R2Mysqld_output_parser_win@?A0x493e448a@@8 0000000140111d00     parse_output.obj
 0002:0001bd18       ??_R1A@?0A@EA@Mysqld_output_parser_win@?A0x493e448a@@8 0000000140111d18     parse_output.obj
 0002:0001bd48       ??_R4IMService@@6B@        0000000140111d48     IMService.obj
 0002:0001bd70       ??_R3IMService@@8          0000000140111d70     IMService.obj
 0002:0001bd88       ??_R2IMService@@8          0000000140111d88     IMService.obj
 0002:0001bda0       ??_R1A@?0A@EA@IMService@@8 0000000140111da0     IMService.obj
 0002:0001bdd0       ??_R1A@?0A@EA@WindowsService@@8 0000000140111dd0     IMService.obj
 0002:0001be00       ??_R3WindowsService@@8     0000000140111e00     IMService.obj
 0002:0001be18       ??_R2WindowsService@@8     0000000140111e18     IMService.obj
 0002:0001be28       ??_R4WindowsService@@6B@   0000000140111e28     WindowsService.obj
 0002:0001be50       ??_R4Message@yaSSL@@6B@    0000000140111e50     yassl:ssl.obj
 0002:0001be70       ??_R3Message@yaSSL@@8      0000000140111e70     yassl:ssl.obj
 0002:0001be88       ??_R2Message@yaSSL@@8      0000000140111e88     yassl:ssl.obj
 0002:0001bea0       ??_R1A@?0A@EA@Message@yaSSL@@8 0000000140111ea0     yassl:ssl.obj
 0002:0001bec8       ??_R17?0A@EA@virtual_base@yaSSL@@8 0000000140111ec8     yassl:ssl.obj
 0002:0001bef0       ??_R3virtual_base@yaSSL@@8 0000000140111ef0     yassl:ssl.obj
 0002:0001bf08       ??_R2virtual_base@yaSSL@@8 0000000140111f08     yassl:ssl.obj
 0002:0001bf18       ??_R1A@?0A@EA@virtual_base@yaSSL@@8 0000000140111f18     yassl:ssl.obj
 0002:0001bf40       ??_R4HandShakeBase@yaSSL@@6B@ 0000000140111f40     yassl:ssl.obj
 0002:0001bf60       ??_R3HandShakeBase@yaSSL@@8 0000000140111f60     yassl:ssl.obj
 0002:0001bf78       ??_R2HandShakeBase@yaSSL@@8 0000000140111f78     yassl:ssl.obj
 0002:0001bf90       ??_R1A@?0A@EA@HandShakeBase@yaSSL@@8 0000000140111f90     yassl:ssl.obj
 0002:0001bfb8       ??_R4HASH@TaoCrypt@@6B@    0000000140111fb8     yassl:ssl.obj
 0002:0001bfd8       ??_R3HASH@TaoCrypt@@8      0000000140111fd8     yassl:ssl.obj
 0002:0001bff0       ??_R2HASH@TaoCrypt@@8      0000000140111ff0     yassl:ssl.obj
 0002:0001c008       ??_R1A@?0A@EA@HASH@TaoCrypt@@8 0000000140112008     yassl:ssl.obj
 0002:0001c030       ??_R17?0A@EA@virtual_base@TaoCrypt@@8 0000000140112030     yassl:ssl.obj
 0002:0001c058       ??_R3virtual_base@TaoCrypt@@8 0000000140112058     yassl:ssl.obj
 0002:0001c070       ??_R2virtual_base@TaoCrypt@@8 0000000140112070     yassl:ssl.obj
 0002:0001c080       ??_R1A@?0A@EA@virtual_base@TaoCrypt@@8 0000000140112080     yassl:ssl.obj
 0002:0001c0a8       ??_R4MD5@TaoCrypt@@6B@     00000001401120a8     yassl:ssl.obj
 0002:0001c0c8       ??_R3MD5@TaoCrypt@@8       00000001401120c8     yassl:ssl.obj
 0002:0001c0e0       ??_R2MD5@TaoCrypt@@8       00000001401120e0     yassl:ssl.obj
 0002:0001c108       ??_R1A@?0A@EA@MD5@TaoCrypt@@8 0000000140112108     yassl:ssl.obj
 0002:0001c130       ??_R1A@?0A@EA@HASHwithTransform@TaoCrypt@@8 0000000140112130     yassl:ssl.obj
 0002:0001c158       ??_R3HASHwithTransform@TaoCrypt@@8 0000000140112158     yassl:ssl.obj
 0002:0001c170       ??_R2HASHwithTransform@TaoCrypt@@8 0000000140112170     yassl:ssl.obj
 0002:0001c190       ??_R4MD4@TaoCrypt@@6B@     0000000140112190     yassl:ssl.obj
 0002:0001c1b0       ??_R3MD4@TaoCrypt@@8       00000001401121b0     yassl:ssl.obj
 0002:0001c1c8       ??_R2MD4@TaoCrypt@@8       00000001401121c8     yassl:ssl.obj
 0002:0001c1f0       ??_R1A@?0A@EA@MD4@TaoCrypt@@8 00000001401121f0     yassl:ssl.obj
 0002:0001c218       ??_R4Digest@yaSSL@@6B@     0000000140112218     yassl:crypto_wrapper.obj
 0002:0001c238       ??_R3Digest@yaSSL@@8       0000000140112238     yassl:crypto_wrapper.obj
 0002:0001c250       ??_R2Digest@yaSSL@@8       0000000140112250     yassl:crypto_wrapper.obj
 0002:0001c268       ??_R1A@?0A@EA@Digest@yaSSL@@8 0000000140112268     yassl:crypto_wrapper.obj
 0002:0001c290       ??_R4BulkCipher@yaSSL@@6B@ 0000000140112290     yassl:crypto_wrapper.obj
 0002:0001c2b0       ??_R3BulkCipher@yaSSL@@8   00000001401122b0     yassl:crypto_wrapper.obj
 0002:0001c2c8       ??_R2BulkCipher@yaSSL@@8   00000001401122c8     yassl:crypto_wrapper.obj
 0002:0001c2e0       ??_R1A@?0A@EA@BulkCipher@yaSSL@@8 00000001401122e0     yassl:crypto_wrapper.obj
 0002:0001c308       ??_R4Auth@yaSSL@@6B@       0000000140112308     yassl:crypto_wrapper.obj
 0002:0001c328       ??_R3Auth@yaSSL@@8         0000000140112328     yassl:crypto_wrapper.obj
 0002:0001c340       ??_R2Auth@yaSSL@@8         0000000140112340     yassl:crypto_wrapper.obj
 0002:0001c358       ??_R1A@?0A@EA@Auth@yaSSL@@8 0000000140112358     yassl:crypto_wrapper.obj
 0002:0001c380       ??_R4SHA@TaoCrypt@@6B@     0000000140112380     yassl:crypto_wrapper.obj
 0002:0001c3a0       ??_R3SHA@TaoCrypt@@8       00000001401123a0     yassl:crypto_wrapper.obj
 0002:0001c3b8       ??_R2SHA@TaoCrypt@@8       00000001401123b8     yassl:crypto_wrapper.obj
 0002:0001c3e0       ??_R1A@?0A@EA@SHA@TaoCrypt@@8 00000001401123e0     yassl:crypto_wrapper.obj
 0002:0001c408       ??_R4RIPEMD160@TaoCrypt@@6B@ 0000000140112408     yassl:crypto_wrapper.obj
 0002:0001c428       ??_R3RIPEMD160@TaoCrypt@@8 0000000140112428     yassl:crypto_wrapper.obj
 0002:0001c440       ??_R2RIPEMD160@TaoCrypt@@8 0000000140112440     yassl:crypto_wrapper.obj
 0002:0001c468       ??_R1A@?0A@EA@RIPEMD160@TaoCrypt@@8 0000000140112468     yassl:crypto_wrapper.obj
 0002:0001c490       ??_R4Mode_BASE@TaoCrypt@@6B@ 0000000140112490     yassl:crypto_wrapper.obj
 0002:0001c4b0       ??_R3Mode_BASE@TaoCrypt@@8 00000001401124b0     yassl:crypto_wrapper.obj
 0002:0001c4c8       ??_R2Mode_BASE@TaoCrypt@@8 00000001401124c8     yassl:crypto_wrapper.obj
 0002:0001c4e0       ??_R1A@?0A@EA@Mode_BASE@TaoCrypt@@8 00000001401124e0     yassl:crypto_wrapper.obj
 0002:0001c508       ??_R4DES@TaoCrypt@@6B@     0000000140112508     yassl:crypto_wrapper.obj
 0002:0001c528       ??_R3DES@TaoCrypt@@8       0000000140112528     yassl:crypto_wrapper.obj
 0002:0001c540       ??_R2DES@TaoCrypt@@8       0000000140112540     yassl:crypto_wrapper.obj
 0002:0001c568       ??_R1A@?0A@EA@DES@TaoCrypt@@8 0000000140112568     yassl:crypto_wrapper.obj
 0002:0001c590       ??_R1EI@?0A@EA@BasicDES@TaoCrypt@@8 0000000140112590     yassl:crypto_wrapper.obj
 0002:0001c5b8       ??_R3BasicDES@TaoCrypt@@8  00000001401125b8     yassl:crypto_wrapper.obj
 0002:0001c5d0       ??_R2BasicDES@TaoCrypt@@8  00000001401125d0     yassl:crypto_wrapper.obj
 0002:0001c5e0       ??_R1A@?0A@EA@BasicDES@TaoCrypt@@8 00000001401125e0     yassl:crypto_wrapper.obj
 0002:0001c608       ??_R4DES_EDE3@TaoCrypt@@6B@ 0000000140112608     yassl:crypto_wrapper.obj
 0002:0001c628       ??_R3DES_EDE3@TaoCrypt@@8  0000000140112628     yassl:crypto_wrapper.obj
 0002:0001c640       ??_R2DES_EDE3@TaoCrypt@@8  0000000140112640     yassl:crypto_wrapper.obj
 0002:0001c660       ??_R1A@?0A@EA@DES_EDE3@TaoCrypt@@8 0000000140112660     yassl:crypto_wrapper.obj
 0002:0001c688       ??_R4AES@TaoCrypt@@6B@     0000000140112688     yassl:crypto_wrapper.obj
 0002:0001c6a8       ??_R3AES@TaoCrypt@@8       00000001401126a8     yassl:crypto_wrapper.obj
 0002:0001c6c0       ??_R2AES@TaoCrypt@@8       00000001401126c0     yassl:crypto_wrapper.obj
 0002:0001c6e0       ??_R1A@?0A@EA@AES@TaoCrypt@@8 00000001401126e0     yassl:crypto_wrapper.obj
 0002:0001c708       ??_R4MD5@yaSSL@@6B@        0000000140112708     yassl:crypto_wrapper.obj
 0002:0001c728       ??_R3MD5@yaSSL@@8          0000000140112728     yassl:crypto_wrapper.obj
 0002:0001c740       ??_R2MD5@yaSSL@@8          0000000140112740     yassl:crypto_wrapper.obj
 0002:0001c760       ??_R1A@?0A@EA@MD5@yaSSL@@8 0000000140112760     yassl:crypto_wrapper.obj
 0002:0001c788       ??_R4SHA@yaSSL@@6B@        0000000140112788     yassl:crypto_wrapper.obj
 0002:0001c7a8       ??_R3SHA@yaSSL@@8          00000001401127a8     yassl:crypto_wrapper.obj
 0002:0001c7c0       ??_R2SHA@yaSSL@@8          00000001401127c0     yassl:crypto_wrapper.obj
 0002:0001c7e0       ??_R1A@?0A@EA@SHA@yaSSL@@8 00000001401127e0     yassl:crypto_wrapper.obj
 0002:0001c808       ??_R4RMD@yaSSL@@6B@        0000000140112808     yassl:crypto_wrapper.obj
 0002:0001c828       ??_R3RMD@yaSSL@@8          0000000140112828     yassl:crypto_wrapper.obj
 0002:0001c840       ??_R2RMD@yaSSL@@8          0000000140112840     yassl:crypto_wrapper.obj
 0002:0001c860       ??_R1A@?0A@EA@RMD@yaSSL@@8 0000000140112860     yassl:crypto_wrapper.obj
 0002:0001c888       ??_R4RC4@yaSSL@@6B@        0000000140112888     yassl:crypto_wrapper.obj
 0002:0001c8a8       ??_R3RC4@yaSSL@@8          00000001401128a8     yassl:crypto_wrapper.obj
 0002:0001c8c0       ??_R2RC4@yaSSL@@8          00000001401128c0     yassl:crypto_wrapper.obj
 0002:0001c8e0       ??_R1A@?0A@EA@RC4@yaSSL@@8 00000001401128e0     yassl:crypto_wrapper.obj
 0002:0001c908       ??_R4AES@yaSSL@@6B@        0000000140112908     yassl:crypto_wrapper.obj
 0002:0001c928       ??_R3AES@yaSSL@@8          0000000140112928     yassl:crypto_wrapper.obj
 0002:0001c940       ??_R2AES@yaSSL@@8          0000000140112940     yassl:crypto_wrapper.obj
 0002:0001c960       ??_R1A@?0A@EA@AES@yaSSL@@8 0000000140112960     yassl:crypto_wrapper.obj
 0002:0001c988       ??_R4HMAC_MD5@yaSSL@@6B@   0000000140112988     yassl:crypto_wrapper.obj
 0002:0001c9a8       ??_R3HMAC_MD5@yaSSL@@8     00000001401129a8     yassl:crypto_wrapper.obj
 0002:0001c9c0       ??_R2HMAC_MD5@yaSSL@@8     00000001401129c0     yassl:crypto_wrapper.obj
 0002:0001c9e0       ??_R1A@?0A@EA@HMAC_MD5@yaSSL@@8 00000001401129e0     yassl:crypto_wrapper.obj
 0002:0001ca08       ??_R4HMAC_SHA@yaSSL@@6B@   0000000140112a08     yassl:crypto_wrapper.obj
 0002:0001ca28       ??_R3HMAC_SHA@yaSSL@@8     0000000140112a28     yassl:crypto_wrapper.obj
 0002:0001ca40       ??_R2HMAC_SHA@yaSSL@@8     0000000140112a40     yassl:crypto_wrapper.obj
 0002:0001ca60       ??_R1A@?0A@EA@HMAC_SHA@yaSSL@@8 0000000140112a60     yassl:crypto_wrapper.obj
 0002:0001ca88       ??_R4HMAC_RMD@yaSSL@@6B@   0000000140112a88     yassl:crypto_wrapper.obj
 0002:0001caa8       ??_R3HMAC_RMD@yaSSL@@8     0000000140112aa8     yassl:crypto_wrapper.obj
 0002:0001cac0       ??_R2HMAC_RMD@yaSSL@@8     0000000140112ac0     yassl:crypto_wrapper.obj
 0002:0001cae0       ??_R1A@?0A@EA@HMAC_RMD@yaSSL@@8 0000000140112ae0     yassl:crypto_wrapper.obj
 0002:0001cb08       ??_R4DES@yaSSL@@6B@        0000000140112b08     yassl:crypto_wrapper.obj
 0002:0001cb28       ??_R3DES@yaSSL@@8          0000000140112b28     yassl:crypto_wrapper.obj
 0002:0001cb40       ??_R2DES@yaSSL@@8          0000000140112b40     yassl:crypto_wrapper.obj
 0002:0001cb60       ??_R1A@?0A@EA@DES@yaSSL@@8 0000000140112b60     yassl:crypto_wrapper.obj
 0002:0001cb88       ??_R4DES_EDE@yaSSL@@6B@    0000000140112b88     yassl:crypto_wrapper.obj
 0002:0001cba8       ??_R3DES_EDE@yaSSL@@8      0000000140112ba8     yassl:crypto_wrapper.obj
 0002:0001cbc0       ??_R2DES_EDE@yaSSL@@8      0000000140112bc0     yassl:crypto_wrapper.obj
 0002:0001cbe0       ??_R1A@?0A@EA@DES_EDE@yaSSL@@8 0000000140112be0     yassl:crypto_wrapper.obj
 0002:0001cc08       ??_R4DSS@yaSSL@@6B@        0000000140112c08     yassl:crypto_wrapper.obj
 0002:0001cc28       ??_R3DSS@yaSSL@@8          0000000140112c28     yassl:crypto_wrapper.obj
 0002:0001cc40       ??_R2DSS@yaSSL@@8          0000000140112c40     yassl:crypto_wrapper.obj
 0002:0001cc60       ??_R1A@?0A@EA@DSS@yaSSL@@8 0000000140112c60     yassl:crypto_wrapper.obj
 0002:0001cc88       ??_R4RSA@yaSSL@@6B@        0000000140112c88     yassl:crypto_wrapper.obj
 0002:0001cca8       ??_R3RSA@yaSSL@@8          0000000140112ca8     yassl:crypto_wrapper.obj
 0002:0001ccc0       ??_R2RSA@yaSSL@@8          0000000140112cc0     yassl:crypto_wrapper.obj
 0002:0001cce0       ??_R1A@?0A@EA@RSA@yaSSL@@8 0000000140112ce0     yassl:crypto_wrapper.obj
 0002:0001cd08       ??_R4HandShakeHeader@yaSSL@@6B@ 0000000140112d08     yassl:yassl_imp.obj
 0002:0001cd28       ??_R3HandShakeHeader@yaSSL@@8 0000000140112d28     yassl:yassl_imp.obj
 0002:0001cd40       ??_R2HandShakeHeader@yaSSL@@8 0000000140112d40     yassl:yassl_imp.obj
 0002:0001cd60       ??_R1A@?0A@EA@HandShakeHeader@yaSSL@@8 0000000140112d60     yassl:yassl_imp.obj
 0002:0001cd88       ??_R4ServerKeyBase@yaSSL@@6B@ 0000000140112d88     yassl:yassl_imp.obj
 0002:0001cda8       ??_R3ServerKeyBase@yaSSL@@8 0000000140112da8     yassl:yassl_imp.obj
 0002:0001cdc0       ??_R2ServerKeyBase@yaSSL@@8 0000000140112dc0     yassl:yassl_imp.obj
 0002:0001cdd8       ??_R1A@?0A@EA@ServerKeyBase@yaSSL@@8 0000000140112dd8     yassl:yassl_imp.obj
 0002:0001ce00       ??_R4ClientKeyBase@yaSSL@@6B@ 0000000140112e00     yassl:yassl_imp.obj
 0002:0001ce20       ??_R3ClientKeyBase@yaSSL@@8 0000000140112e20     yassl:yassl_imp.obj
 0002:0001ce38       ??_R2ClientKeyBase@yaSSL@@8 0000000140112e38     yassl:yassl_imp.obj
 0002:0001ce50       ??_R1A@?0A@EA@ClientKeyBase@yaSSL@@8 0000000140112e50     yassl:yassl_imp.obj
 0002:0001ce78       ??_R4ClientDiffieHellmanPublic@yaSSL@@6B@ 0000000140112e78     yassl:yassl_imp.obj
 0002:0001ce98       ??_R3ClientDiffieHellmanPublic@yaSSL@@8 0000000140112e98     yassl:yassl_imp.obj
 0002:0001ceb0       ??_R2ClientDiffieHellmanPublic@yaSSL@@8 0000000140112eb0     yassl:yassl_imp.obj
 0002:0001ced0       ??_R1A@?0A@EA@ClientDiffieHellmanPublic@yaSSL@@8 0000000140112ed0     yassl:yassl_imp.obj
 0002:0001cef8       ??_R4ChangeCipherSpec@yaSSL@@6B@ 0000000140112ef8     yassl:yassl_imp.obj
 0002:0001cf18       ??_R3ChangeCipherSpec@yaSSL@@8 0000000140112f18     yassl:yassl_imp.obj
 0002:0001cf30       ??_R2ChangeCipherSpec@yaSSL@@8 0000000140112f30     yassl:yassl_imp.obj
 0002:0001cf50       ??_R1A@?0A@EA@ChangeCipherSpec@yaSSL@@8 0000000140112f50     yassl:yassl_imp.obj
 0002:0001cf78       ??_R4Alert@yaSSL@@6B@      0000000140112f78     yassl:yassl_imp.obj
 0002:0001cf98       ??_R3Alert@yaSSL@@8        0000000140112f98     yassl:yassl_imp.obj
 0002:0001cfb0       ??_R2Alert@yaSSL@@8        0000000140112fb0     yassl:yassl_imp.obj
 0002:0001cfd0       ??_R1A@?0A@EA@Alert@yaSSL@@8 0000000140112fd0     yassl:yassl_imp.obj
 0002:0001cff8       ??_R4Data@yaSSL@@6B@       0000000140112ff8     yassl:yassl_imp.obj
 0002:0001d018       ??_R3Data@yaSSL@@8         0000000140113018     yassl:yassl_imp.obj
 0002:0001d030       ??_R2Data@yaSSL@@8         0000000140113030     yassl:yassl_imp.obj
 0002:0001d050       ??_R1A@?0A@EA@Data@yaSSL@@8 0000000140113050     yassl:yassl_imp.obj
 0002:0001d078       ??_R4Certificate@yaSSL@@6B@ 0000000140113078     yassl:yassl_imp.obj
 0002:0001d098       ??_R3Certificate@yaSSL@@8  0000000140113098     yassl:yassl_imp.obj
 0002:0001d0b0       ??_R2Certificate@yaSSL@@8  00000001401130b0     yassl:yassl_imp.obj
 0002:0001d0d0       ??_R1A@?0A@EA@Certificate@yaSSL@@8 00000001401130d0     yassl:yassl_imp.obj
 0002:0001d0f8       ??_R4ServerHello@yaSSL@@6B@ 00000001401130f8     yassl:yassl_imp.obj
 0002:0001d118       ??_R3ServerHello@yaSSL@@8  0000000140113118     yassl:yassl_imp.obj
 0002:0001d130       ??_R2ServerHello@yaSSL@@8  0000000140113130     yassl:yassl_imp.obj
 0002:0001d150       ??_R1A@?0A@EA@ServerHello@yaSSL@@8 0000000140113150     yassl:yassl_imp.obj
 0002:0001d178       ??_R4ServerHelloDone@yaSSL@@6B@ 0000000140113178     yassl:yassl_imp.obj
 0002:0001d198       ??_R3ServerHelloDone@yaSSL@@8 0000000140113198     yassl:yassl_imp.obj
 0002:0001d1b0       ??_R2ServerHelloDone@yaSSL@@8 00000001401131b0     yassl:yassl_imp.obj
 0002:0001d1d0       ??_R1A@?0A@EA@ServerHelloDone@yaSSL@@8 00000001401131d0     yassl:yassl_imp.obj
 0002:0001d1f8       ??_R4ClientHello@yaSSL@@6B@ 00000001401131f8     yassl:yassl_imp.obj
 0002:0001d218       ??_R3ClientHello@yaSSL@@8  0000000140113218     yassl:yassl_imp.obj
 0002:0001d230       ??_R2ClientHello@yaSSL@@8  0000000140113230     yassl:yassl_imp.obj
 0002:0001d250       ??_R1A@?0A@EA@ClientHello@yaSSL@@8 0000000140113250     yassl:yassl_imp.obj
 0002:0001d278       ??_R4ServerKeyExchange@yaSSL@@6B@ 0000000140113278     yassl:yassl_imp.obj
 0002:0001d298       ??_R3ServerKeyExchange@yaSSL@@8 0000000140113298     yassl:yassl_imp.obj
 0002:0001d2b0       ??_R2ServerKeyExchange@yaSSL@@8 00000001401132b0     yassl:yassl_imp.obj
 0002:0001d2d0       ??_R1A@?0A@EA@ServerKeyExchange@yaSSL@@8 00000001401132d0     yassl:yassl_imp.obj
 0002:0001d2f8       ??_R4CertificateVerify@yaSSL@@6B@ 00000001401132f8     yassl:yassl_imp.obj
 0002:0001d318       ??_R3CertificateVerify@yaSSL@@8 0000000140113318     yassl:yassl_imp.obj
 0002:0001d330       ??_R2CertificateVerify@yaSSL@@8 0000000140113330     yassl:yassl_imp.obj
 0002:0001d350       ??_R1A@?0A@EA@CertificateVerify@yaSSL@@8 0000000140113350     yassl:yassl_imp.obj
 0002:0001d378       ??_R4ClientKeyExchange@yaSSL@@6B@ 0000000140113378     yassl:yassl_imp.obj
 0002:0001d398       ??_R3ClientKeyExchange@yaSSL@@8 0000000140113398     yassl:yassl_imp.obj
 0002:0001d3b0       ??_R2ClientKeyExchange@yaSSL@@8 00000001401133b0     yassl:yassl_imp.obj
 0002:0001d3d0       ??_R1A@?0A@EA@ClientKeyExchange@yaSSL@@8 00000001401133d0     yassl:yassl_imp.obj
 0002:0001d3f8       ??_R4Finished@yaSSL@@6B@   00000001401133f8     yassl:yassl_imp.obj
 0002:0001d418       ??_R3Finished@yaSSL@@8     0000000140113418     yassl:yassl_imp.obj
 0002:0001d430       ??_R2Finished@yaSSL@@8     0000000140113430     yassl:yassl_imp.obj
 0002:0001d450       ??_R1A@?0A@EA@Finished@yaSSL@@8 0000000140113450     yassl:yassl_imp.obj
 0002:0001d478       ??_R4HelloRequest@yaSSL@@6B@ 0000000140113478     yassl:yassl_imp.obj
 0002:0001d498       ??_R3HelloRequest@yaSSL@@8 0000000140113498     yassl:yassl_imp.obj
 0002:0001d4b0       ??_R2HelloRequest@yaSSL@@8 00000001401134b0     yassl:yassl_imp.obj
 0002:0001d4d0       ??_R1A@?0A@EA@HelloRequest@yaSSL@@8 00000001401134d0     yassl:yassl_imp.obj
 0002:0001d4f8       ??_R4RSA_Server@yaSSL@@6B@ 00000001401134f8     yassl:yassl_imp.obj
 0002:0001d518       ??_R3RSA_Server@yaSSL@@8   0000000140113518     yassl:yassl_imp.obj
 0002:0001d530       ??_R2RSA_Server@yaSSL@@8   0000000140113530     yassl:yassl_imp.obj
 0002:0001d550       ??_R1A@?0A@EA@RSA_Server@yaSSL@@8 0000000140113550     yassl:yassl_imp.obj
 0002:0001d578       ??_R4Fortezza_Server@yaSSL@@6B@ 0000000140113578     yassl:yassl_imp.obj
 0002:0001d598       ??_R3Fortezza_Server@yaSSL@@8 0000000140113598     yassl:yassl_imp.obj
 0002:0001d5b0       ??_R2Fortezza_Server@yaSSL@@8 00000001401135b0     yassl:yassl_imp.obj
 0002:0001d5d0       ??_R1A@?0A@EA@Fortezza_Server@yaSSL@@8 00000001401135d0     yassl:yassl_imp.obj
 0002:0001d5f8       ??_R4FortezzaKeys@yaSSL@@6B@ 00000001401135f8     yassl:yassl_imp.obj
 0002:0001d618       ??_R3FortezzaKeys@yaSSL@@8 0000000140113618     yassl:yassl_imp.obj
 0002:0001d630       ??_R2FortezzaKeys@yaSSL@@8 0000000140113630     yassl:yassl_imp.obj
 0002:0001d650       ??_R1A@?0A@EA@FortezzaKeys@yaSSL@@8 0000000140113650     yassl:yassl_imp.obj
 0002:0001d678       ??_R4EncryptedPreMasterSecret@yaSSL@@6B@ 0000000140113678     yassl:yassl_imp.obj
 0002:0001d698       ??_R3EncryptedPreMasterSecret@yaSSL@@8 0000000140113698     yassl:yassl_imp.obj
 0002:0001d6b0       ??_R2EncryptedPreMasterSecret@yaSSL@@8 00000001401136b0     yassl:yassl_imp.obj
 0002:0001d6d0       ??_R1A@?0A@EA@EncryptedPreMasterSecret@yaSSL@@8 00000001401136d0     yassl:yassl_imp.obj
 0002:0001d6f8       ??_R4DH_Server@yaSSL@@6B@  00000001401136f8     yassl:yassl_imp.obj
 0002:0001d718       ??_R3DH_Server@yaSSL@@8    0000000140113718     yassl:yassl_imp.obj
 0002:0001d730       ??_R2DH_Server@yaSSL@@8    0000000140113730     yassl:yassl_imp.obj
 0002:0001d750       ??_R1A@?0A@EA@DH_Server@yaSSL@@8 0000000140113750     yassl:yassl_imp.obj
 0002:0001d778       ??_R4CertificateRequest@yaSSL@@6B@ 0000000140113778     yassl:yassl_imp.obj
 0002:0001d798       ??_R3CertificateRequest@yaSSL@@8 0000000140113798     yassl:yassl_imp.obj
 0002:0001d7b0       ??_R2CertificateRequest@yaSSL@@8 00000001401137b0     yassl:yassl_imp.obj
 0002:0001d7d0       ??_R1A@?0A@EA@CertificateRequest@yaSSL@@8 00000001401137d0     yassl:yassl_imp.obj
 0002:0001d7f8       ??_R4type_info@@6B@        00000001401137f8     LIBCMT:typinfo.obj
 0002:0001d820       ??_R3type_info@@8          0000000140113820     LIBCMT:typinfo.obj
 0002:0001d838       ??_R2type_info@@8          0000000140113838     LIBCMT:typinfo.obj
 0002:0001d848       ??_R1A@?0A@EA@type_info@@8 0000000140113848     LIBCMT:typinfo.obj
 0002:0001d870       ??_R4bad_alloc@std@@6B@    0000000140113870     LIBCMT:new.obj
 0002:0001d898       ??_R3bad_alloc@std@@8      0000000140113898     LIBCMT:new.obj
 0002:0001d8b0       ??_R2bad_alloc@std@@8      00000001401138b0     LIBCMT:new.obj
 0002:0001d8c8       ??_R1A@?0A@EA@bad_alloc@std@@8 00000001401138c8     LIBCMT:new.obj
 0002:0001d8f0       ??_R1A@?0A@EA@exception@std@@8 00000001401138f0     LIBCMT:new.obj
 0002:0001d918       ??_R3exception@std@@8      0000000140113918     LIBCMT:new.obj
 0002:0001d930       ??_R2exception@std@@8      0000000140113930     LIBCMT:new.obj
 0002:0001d940       ??_R4exception@std@@6B@    0000000140113940     LIBCMT:stdexcpt.obj
 0002:0001d968       ??_R4bad_cast@std@@6B@     0000000140113968     LIBCMT:stdexcpt.obj
 0002:0001d990       ??_R3bad_cast@std@@8       0000000140113990     LIBCMT:stdexcpt.obj
 0002:0001d9a8       ??_R2bad_cast@std@@8       00000001401139a8     LIBCMT:stdexcpt.obj
 0002:0001d9c0       ??_R1A@?0A@EA@bad_cast@std@@8 00000001401139c0     LIBCMT:stdexcpt.obj
 0002:0001d9e8       ??_R4bad_typeid@std@@6B@   00000001401139e8     LIBCMT:stdexcpt.obj
 0002:0001da10       ??_R3bad_typeid@std@@8     0000000140113a10     LIBCMT:stdexcpt.obj
 0002:0001da28       ??_R2bad_typeid@std@@8     0000000140113a28     LIBCMT:stdexcpt.obj
 0002:0001da40       ??_R1A@?0A@EA@bad_typeid@std@@8 0000000140113a40     LIBCMT:stdexcpt.obj
 0002:0001da68       ??_R4__non_rtti_object@std@@6B@ 0000000140113a68     LIBCMT:stdexcpt.obj
 0002:0001da90       ??_R3__non_rtti_object@std@@8 0000000140113a90     LIBCMT:stdexcpt.obj
 0002:0001daa8       ??_R2__non_rtti_object@std@@8 0000000140113aa8     LIBCMT:stdexcpt.obj
 0002:0001dac8       ??_R1A@?0A@EA@__non_rtti_object@std@@8 0000000140113ac8     LIBCMT:stdexcpt.obj
 0002:0001daf0       ??_R4DNameNode@@6B@        0000000140113af0     LIBCMT:undname.obj
 0002:0001db18       ??_R3DNameNode@@8          0000000140113b18     LIBCMT:undname.obj
 0002:0001db30       ??_R2DNameNode@@8          0000000140113b30     LIBCMT:undname.obj
 0002:0001db40       ??_R1A@?0A@EA@DNameNode@@8 0000000140113b40     LIBCMT:undname.obj
 0002:0001db68       ??_R4charNode@@6B@         0000000140113b68     LIBCMT:undname.obj
 0002:0001db90       ??_R3charNode@@8           0000000140113b90     LIBCMT:undname.obj
 0002:0001dba8       ??_R2charNode@@8           0000000140113ba8     LIBCMT:undname.obj
 0002:0001dbc0       ??_R1A@?0A@EA@charNode@@8  0000000140113bc0     LIBCMT:undname.obj
 0002:0001dbe8       ??_R4pDNameNode@@6B@       0000000140113be8     LIBCMT:undname.obj
 0002:0001dc10       ??_R3pDNameNode@@8         0000000140113c10     LIBCMT:undname.obj
 0002:0001dc28       ??_R2pDNameNode@@8         0000000140113c28     LIBCMT:undname.obj
 0002:0001dc40       ??_R1A@?0A@EA@pDNameNode@@8 0000000140113c40     LIBCMT:undname.obj
 0002:0001dc68       ??_R4DNameStatusNode@@6B@  0000000140113c68     LIBCMT:undname.obj
 0002:0001dc90       ??_R3DNameStatusNode@@8    0000000140113c90     LIBCMT:undname.obj
 0002:0001dca8       ??_R2DNameStatusNode@@8    0000000140113ca8     LIBCMT:undname.obj
 0002:0001dcc0       ??_R1A@?0A@EA@DNameStatusNode@@8 0000000140113cc0     LIBCMT:undname.obj
 0002:0001dce8       ??_R4pcharNode@@6B@        0000000140113ce8     LIBCMT:undname.obj
 0002:0001dd10       ??_R3pcharNode@@8          0000000140113d10     LIBCMT:undname.obj
 0002:0001dd28       ??_R2pcharNode@@8          0000000140113d28     LIBCMT:undname.obj
 0002:0001dd40       ??_R1A@?0A@EA@pcharNode@@8 0000000140113d40     LIBCMT:undname.obj
 0002:0001dd68       ??_R4HASH64withTransform@TaoCrypt@@6B@ 0000000140113d68     taocrypt:hash.obj
 0002:0001dd88       ??_R3HASH64withTransform@TaoCrypt@@8 0000000140113d88     taocrypt:hash.obj
 0002:0001dda0       ??_R2HASH64withTransform@TaoCrypt@@8 0000000140113da0     taocrypt:hash.obj
 0002:0001ddc0       ??_R1A@?0A@EA@HASH64withTransform@TaoCrypt@@8 0000000140113dc0     taocrypt:hash.obj
 0002:0001dde8       ??_R4HASHwithTransform@TaoCrypt@@6B@ 0000000140113de8     taocrypt:hash.obj
 0002:0001de08       ??_R4MultiplicativeGroupT@AbstractRing@TaoCrypt@@6B@ 0000000140113e08     taocrypt:integer.obj
 0002:0001de28       ??_R3MultiplicativeGroupT@AbstractRing@TaoCrypt@@8 0000000140113e28     taocrypt:integer.obj
 0002:0001de40       ??_R2MultiplicativeGroupT@AbstractRing@TaoCrypt@@8 0000000140113e40     taocrypt:integer.obj
 0002:0001de60       ??_R1A@?0A@EA@MultiplicativeGroupT@AbstractRing@TaoCrypt@@8 0000000140113e60     taocrypt:integer.obj
 0002:0001de88       ??_R1A@?0A@EA@AbstractGroup@TaoCrypt@@8 0000000140113e88     taocrypt:integer.obj
 0002:0001deb0       ??_R3AbstractGroup@TaoCrypt@@8 0000000140113eb0     taocrypt:integer.obj
 0002:0001dec8       ??_R2AbstractGroup@TaoCrypt@@8 0000000140113ec8     taocrypt:integer.obj
 0002:0001dee0       ??_R4ModularArithmetic@TaoCrypt@@6B@ 0000000140113ee0     taocrypt:integer.obj
 0002:0001df00       ??_R3ModularArithmetic@TaoCrypt@@8 0000000140113f00     taocrypt:integer.obj
 0002:0001df18       ??_R2ModularArithmetic@TaoCrypt@@8 0000000140113f18     taocrypt:integer.obj
 0002:0001df40       ??_R1A@?0A@EA@ModularArithmetic@TaoCrypt@@8 0000000140113f40     taocrypt:integer.obj
 0002:0001df68       ??_R1A@?0A@EA@AbstractRing@TaoCrypt@@8 0000000140113f68     taocrypt:integer.obj
 0002:0001df90       ??_R3AbstractRing@TaoCrypt@@8 0000000140113f90     taocrypt:integer.obj
 0002:0001dfa8       ??_R2AbstractRing@TaoCrypt@@8 0000000140113fa8     taocrypt:integer.obj
 0002:0001dfc8       ??_R4MontgomeryRepresentation@TaoCrypt@@6B@ 0000000140113fc8     taocrypt:integer.obj
 0002:0001dfe8       ??_R3MontgomeryRepresentation@TaoCrypt@@8 0000000140113fe8     taocrypt:integer.obj
 0002:0001e000       ??_R2MontgomeryRepresentation@TaoCrypt@@8 0000000140114000     taocrypt:integer.obj
 0002:0001e030       ??_R1A@?0A@EA@MontgomeryRepresentation@TaoCrypt@@8 0000000140114030     taocrypt:integer.obj
 0002:0001e058       ??_R4EuclideanDomainOf@TaoCrypt@@6B@ 0000000140114058     taocrypt:integer.obj
 0002:0001e078       ??_R3EuclideanDomainOf@TaoCrypt@@8 0000000140114078     taocrypt:integer.obj
 0002:0001e090       ??_R2EuclideanDomainOf@TaoCrypt@@8 0000000140114090     taocrypt:integer.obj
 0002:0001e0c0       ??_R1A@?0A@EA@EuclideanDomainOf@TaoCrypt@@8 00000001401140c0     taocrypt:integer.obj
 0002:0001e0e8       ??_R1A@?0A@EA@AbstractEuclideanDomain@TaoCrypt@@8 00000001401140e8     taocrypt:integer.obj
 0002:0001e110       ??_R3AbstractEuclideanDomain@TaoCrypt@@8 0000000140114110     taocrypt:integer.obj
 0002:0001e128       ??_R2AbstractEuclideanDomain@TaoCrypt@@8 0000000140114128     taocrypt:integer.obj
 0002:0001e150       ??_R4SHA256@TaoCrypt@@6B@  0000000140114150     taocrypt:sha.obj
 0002:0001e170       ??_R3SHA256@TaoCrypt@@8    0000000140114170     taocrypt:sha.obj
 0002:0001e188       ??_R2SHA256@TaoCrypt@@8    0000000140114188     taocrypt:sha.obj
 0002:0001e1b0       ??_R1A@?0A@EA@SHA256@TaoCrypt@@8 00000001401141b0     taocrypt:sha.obj
 0002:0001e1d8       ??_R4SHA224@TaoCrypt@@6B@  00000001401141d8     taocrypt:sha.obj
 0002:0001e1f8       ??_R3SHA224@TaoCrypt@@8    00000001401141f8     taocrypt:sha.obj
 0002:0001e210       ??_R2SHA224@TaoCrypt@@8    0000000140114210     taocrypt:sha.obj
 0002:0001e238       ??_R1A@?0A@EA@SHA224@TaoCrypt@@8 0000000140114238     taocrypt:sha.obj
 0002:0001e260       ??_R4SHA512@TaoCrypt@@6B@  0000000140114260     taocrypt:sha.obj
 0002:0001e280       ??_R3SHA512@TaoCrypt@@8    0000000140114280     taocrypt:sha.obj
 0002:0001e298       ??_R2SHA512@TaoCrypt@@8    0000000140114298     taocrypt:sha.obj
 0002:0001e2c0       ??_R1A@?0A@EA@SHA512@TaoCrypt@@8 00000001401142c0     taocrypt:sha.obj
 0002:0001e2e8       ??_R4SHA384@TaoCrypt@@6B@  00000001401142e8     taocrypt:sha.obj
 0002:0001e308       ??_R3SHA384@TaoCrypt@@8    0000000140114308     taocrypt:sha.obj
 0002:0001e320       ??_R2SHA384@TaoCrypt@@8    0000000140114320     taocrypt:sha.obj
 0002:0001e348       ??_R1A@?0A@EA@SHA384@TaoCrypt@@8 0000000140114348     taocrypt:sha.obj
 0002:0001e370       ??_R4BER_Decoder@TaoCrypt@@6B@ 0000000140114370     taocrypt:dsa.obj
 0002:0001e390       ??_R3BER_Decoder@TaoCrypt@@8 0000000140114390     taocrypt:dsa.obj
 0002:0001e3a8       ??_R2BER_Decoder@TaoCrypt@@8 00000001401143a8     taocrypt:dsa.obj
 0002:0001e3c0       ??_R1A@?0A@EA@BER_Decoder@TaoCrypt@@8 00000001401143c0     taocrypt:dsa.obj
 0002:0001e3e8       ??_R4DSA_Private_Decoder@TaoCrypt@@6B@ 00000001401143e8     taocrypt:dsa.obj
 0002:0001e408       ??_R3DSA_Private_Decoder@TaoCrypt@@8 0000000140114408     taocrypt:dsa.obj
 0002:0001e420       ??_R2DSA_Private_Decoder@TaoCrypt@@8 0000000140114420     taocrypt:dsa.obj
 0002:0001e440       ??_R1A@?0A@EA@DSA_Private_Decoder@TaoCrypt@@8 0000000140114440     taocrypt:dsa.obj
 0002:0001e468       ??_R4DSA_Public_Decoder@TaoCrypt@@6B@ 0000000140114468     taocrypt:dsa.obj
 0002:0001e488       ??_R3DSA_Public_Decoder@TaoCrypt@@8 0000000140114488     taocrypt:dsa.obj
 0002:0001e4a0       ??_R2DSA_Public_Decoder@TaoCrypt@@8 00000001401144a0     taocrypt:dsa.obj
 0002:0001e4c0       ??_R1A@?0A@EA@DSA_Public_Decoder@TaoCrypt@@8 00000001401144c0     taocrypt:dsa.obj
 0002:0001e4e8       ??_R4DH_Decoder@TaoCrypt@@6B@ 00000001401144e8     taocrypt:dh.obj
 0002:0001e508       ??_R3DH_Decoder@TaoCrypt@@8 0000000140114508     taocrypt:dh.obj
 0002:0001e520       ??_R2DH_Decoder@TaoCrypt@@8 0000000140114520     taocrypt:dh.obj
 0002:0001e540       ??_R1A@?0A@EA@DH_Decoder@TaoCrypt@@8 0000000140114540     taocrypt:dh.obj
 0002:0001e568       ??_R4RSA_Private_Decoder@TaoCrypt@@6B@ 0000000140114568     taocrypt:rsa.obj
 0002:0001e588       ??_R3RSA_Private_Decoder@TaoCrypt@@8 0000000140114588     taocrypt:rsa.obj
 0002:0001e5a0       ??_R2RSA_Private_Decoder@TaoCrypt@@8 00000001401145a0     taocrypt:rsa.obj
 0002:0001e5c0       ??_R1A@?0A@EA@RSA_Private_Decoder@TaoCrypt@@8 00000001401145c0     taocrypt:rsa.obj
 0002:0001e5e8       ??_R4RSA_Public_Decoder@TaoCrypt@@6B@ 00000001401145e8     taocrypt:rsa.obj
 0002:0001e608       ??_R3RSA_Public_Decoder@TaoCrypt@@8 0000000140114608     taocrypt:rsa.obj
 0002:0001e620       ??_R2RSA_Public_Decoder@TaoCrypt@@8 0000000140114620     taocrypt:rsa.obj
 0002:0001e640       ??_R1A@?0A@EA@RSA_Public_Decoder@TaoCrypt@@8 0000000140114640     taocrypt:rsa.obj
 0002:0001e668       ??_R4PKCS12_Decoder@TaoCrypt@@6B@ 0000000140114668     taocrypt:asn.obj
 0002:0001e688       ??_R3PKCS12_Decoder@TaoCrypt@@8 0000000140114688     taocrypt:asn.obj
 0002:0001e6a0       ??_R2PKCS12_Decoder@TaoCrypt@@8 00000001401146a0     taocrypt:asn.obj
 0002:0001e6c0       ??_R1A@?0A@EA@PKCS12_Decoder@TaoCrypt@@8 00000001401146c0     taocrypt:asn.obj
 0002:0001e6e8       ??_R4DER_Encoder@TaoCrypt@@6B@ 00000001401146e8     taocrypt:asn.obj
 0002:0001e708       ??_R3DER_Encoder@TaoCrypt@@8 0000000140114708     taocrypt:asn.obj
 0002:0001e720       ??_R2DER_Encoder@TaoCrypt@@8 0000000140114720     taocrypt:asn.obj
 0002:0001e738       ??_R1A@?0A@EA@DER_Encoder@TaoCrypt@@8 0000000140114738     taocrypt:asn.obj
 0002:0001e760       ??_R4CertDecoder@TaoCrypt@@6B@ 0000000140114760     taocrypt:asn.obj
 0002:0001e780       ??_R3CertDecoder@TaoCrypt@@8 0000000140114780     taocrypt:asn.obj
 0002:0001e798       ??_R2CertDecoder@TaoCrypt@@8 0000000140114798     taocrypt:asn.obj
 0002:0001e7b8       ??_R1A@?0A@EA@CertDecoder@TaoCrypt@@8 00000001401147b8     taocrypt:asn.obj
 0002:0001e7e0       ??_R4Signature_Encoder@TaoCrypt@@6B@ 00000001401147e0     taocrypt:asn.obj
 0002:0001e800       ??_R3Signature_Encoder@TaoCrypt@@8 0000000140114800     taocrypt:asn.obj
 0002:0001e818       ??_R2Signature_Encoder@TaoCrypt@@8 0000000140114818     taocrypt:asn.obj
 0002:0001e838       ??_R1A@?0A@EA@Signature_Encoder@TaoCrypt@@8 0000000140114838     taocrypt:asn.obj
 0002:0001e860       ??_R4MD2@TaoCrypt@@6B@     0000000140114860     taocrypt:md2.obj
 0002:0001e880       ??_R3MD2@TaoCrypt@@8       0000000140114880     taocrypt:md2.obj
 0002:0001e898       ??_R2MD2@TaoCrypt@@8       0000000140114898     taocrypt:md2.obj
 0002:0001e8b8       ??_R1A@?0A@EA@MD2@TaoCrypt@@8 00000001401148b8     taocrypt:md2.obj
 0002:0001f2e8       __rtc_iaa                  00000001401152e8     LIBCMT:initsect.obj
 0002:0001f3f8       __rtc_izz                  00000001401153f8     LIBCMT:initsect.obj
 0002:0001f508       __rtc_taa                  0000000140115508     LIBCMT:initsect.obj
 0002:0001f618       __rtc_tzz                  0000000140115618     LIBCMT:initsect.obj
 0002:00031500       _TI2?AVbad_alloc@std@@     0000000140127500     LIBCMT:new.obj
 0002:00031520       _CTA2?AVbad_alloc@std@@    0000000140127520     LIBCMT:new.obj
 0002:00031538       _CT??_R0?AVbad_alloc@std@@@8??0bad_alloc@std@@QEAA@AEBV01@@Z24 0000000140127538     LIBCMT:new.obj
 0002:00031560       _CT??_R0?AVexception@std@@@8??0exception@std@@QEAA@AEBV01@@Z24 0000000140127560     LIBCMT:new.obj
 0003:00000020       ??_R0?AVCommand@@@8        0000000140128020     command.obj
 0003:00000058       ??_R0?AVInstance_cmd@@@8   0000000140128058     commands.obj
 0003:00000088       ??_R0?AVAbstract_instance_cmd@@@8 0000000140128088     commands.obj
 0003:000000c0       ??_R0?AVShow_instance_status@@@8 00000001401280c0     commands.obj
 0003:000000f8       ??_R0?AVShow_instance_options@@@8 00000001401280f8     commands.obj
 0003:00000130       ??_R0?AVStart_instance@@@8 0000000140128130     commands.obj
 0003:00000160       ??_R0?AVStop_instance@@@8  0000000140128160     commands.obj
 0003:00000190       ??_R0?AVCreate_instance@@@8 0000000140128190     commands.obj
 0003:000001c0       ??_R0?AVDrop_instance@@@8  00000001401281c0     commands.obj
 0003:000001f0       ??_R0?AVShow_instance_log@@@8 00000001401281f0     commands.obj
 0003:00000220       ??_R0?AVShow_instance_log_files@@@8 0000000140128220     commands.obj
 0003:00000258       ??_R0?AVAbstract_option_cmd@@@8 0000000140128258     commands.obj
 0003:000002a0       ??_R0?AVThread@@@8         00000001401282a0     guardian.obj
 0003:000002c8       ??_R0?AVGuardian@@@8       00000001401282c8     guardian.obj
 0003:00000300       ??_R0?AVInstance_monitor@@@8 0000000140128300     instance.obj
 0003:000003b8       ??_R0?AVListener@@@8       00000001401283b8     listener.obj
 0003:00000400       ??_R0?AVThreadModelChecker@?A0xfeba5fb5@@@8 0000000140128400     manager.obj
 0003:00000460       ??_R0?AVMysql_connection@@@8 0000000140128460     mysql_connection.obj
 0003:000004a8       ?config_file@Main@Options@@2PEBDEB 00000001401284a8     options.obj
 0003:000004b0       ?password_file_name@Main@Options@@2PEBDEB 00000001401284b0     options.obj
 0003:000004b8       ?pid_file_name@Main@Options@@2PEBDEB 00000001401284b8     options.obj
 0003:000004c0       ?default_mysqld_path@Main@Options@@2PEBDEB 00000001401284c0     options.obj
 0003:000004c8       ?monitoring_interval@Main@Options@@2IA 00000001401284c8     options.obj
 0003:000004cc       ?port_number@Main@Options@@2IA 00000001401284cc     options.obj
 0003:00001028       ??_R0?AVUser_management_cmd@@@8 0000000140129028     options.obj
 0003:00001060       ??_R0?AVPrint_password_line_cmd@@@8 0000000140129060     options.obj
 0003:00001098       ??_R0?AVAdd_user_cmd@@@8   0000000140129098     options.obj
 0003:000010c8       ??_R0?AVDrop_user_cmd@@@8  00000001401290c8     options.obj
 0003:000010f8       ??_R0?AVEdit_user_cmd@@@8  00000001401290f8     options.obj
 0003:00001128       ??_R0?AVClean_db_cmd@@@8   0000000140129128     options.obj
 0003:00001158       ??_R0?AVCheck_db_cmd@@@8   0000000140129158     options.obj
 0003:00001188       ??_R0?AVList_users_cmd@@@8 0000000140129188     options.obj
 0003:00001320       ??_R0?AVShow_instances@@@8 0000000140129320     parse.obj
 0003:00001350       ??_R0?AVFlush_instances@@@8 0000000140129350     parse.obj
 0003:00001380       ??_R0?AVSet_option@@@8     0000000140129380     parse.obj
 0003:000013a8       ??_R0?AVUnset_option@@@8   00000001401293a8     parse.obj
 0003:000013d8       ??_R0?AVSyntax_error@@@8   00000001401293d8     parse.obj
 0003:00001418       ??_R0?AVMysqld_output_parser@?A0x493e448a@@@8 0000000140129418     parse_output.obj
 0003:00001460       ??_R0?AVMysqld_output_parser_win@?A0x493e448a@@@8 0000000140129460     parse_output.obj
 0003:000014b0       ?net_buffer_length@@3KA    00000001401294b0     priv.obj
 0003:000014b4       ?max_allowed_packet@@3KA   00000001401294b4     priv.obj
 0003:000014b8       ?net_read_timeout@@3KA     00000001401294b8     priv.obj
 0003:000014bc       ?net_write_timeout@@3KA    00000001401294bc     priv.obj
 0003:000014c0       ?net_retry_count@@3KA      00000001401294c0     priv.obj
 0003:000014c4       ?mysqld_net_retry_count@@3KA 00000001401294c4     priv.obj
 0003:00001510       ??_R0?AVIMService@@@8      0000000140129510     IMService.obj
 0003:00001538       ??_R0?AVWindowsService@@@8 0000000140129538     IMService.obj
 0003:000015a0       sqlstate_map               00000001401295a0     sql_state.obj
 0003:00002d30       unknown_sqlstate           000000014012ad30     client.obj
 0003:00002d38       not_error_sqlstate         000000014012ad38     client.obj
 0003:00002d40       cant_connect_sqlstate      000000014012ad40     client.obj
 0003:00002d48       default_client_charset_info 000000014012ad48     client.obj
 0003:00002e88       sql_protocol_names_lib     000000014012ae88     client.obj
 0003:00002eb0       sql_protocol_typelib       000000014012aeb0     client.obj
 0003:00002f60       client_errors              000000014012af60     errmsg.obj
 0003:00003198       default_charset_info       000000014012b198     mysys:charset.obj
 0003:00003378       my_thread_end_wait_time    000000014012b378     mysys:my_thr_init.obj
 0003:00003380       my_umask                   000000014012b380     mysys:my_static.obj
 0003:00003384       my_umask_dir               000000014012b384     mysys:my_static.obj
 0003:00003388       my_file_limit              000000014012b388     mysys:my_static.obj
 0003:0000338c       my_default_record_cache_size 000000014012b38c     mysys:my_static.obj
 0003:00003390       my_file_info               000000014012b390     mysys:my_static.obj
 0003:00003398       soundex_map                000000014012b398     mysys:my_static.obj
 0003:000033a0       my_once_extra              000000014012b3a0     mysys:my_static.obj
 0003:000033a4       my_time_to_wait_for_lock   000000014012b3a4     mysys:my_static.obj
 0003:000033a8       sf_min_adress              000000014012b3a8     mysys:my_static.obj
 0003:000033b0       my_abort_hook              000000014012b3b0     mysys:my_static.obj
 0003:000033b8       error_handler_hook         000000014012b3b8     mysys:my_static.obj
 0003:000033c0       fatal_error_handler_hook   000000014012b3c0     mysys:my_static.obj
 0003:000033c8       my_thread_stack_size       000000014012b3c8     mysys:my_init.obj
 0003:000033d0       my_getopt_error_reporter   000000014012b3d0     mysys:my_getopt.obj
 0003:00003408       disabled_my_option         000000014012b408     mysys:my_getopt.obj
 0003:00003410       my_getopt_print_errors     000000014012b410     mysys:my_getopt.obj
 0003:00003414       my_pthread_create_detached 000000014012b414     mysys:my_pthread.obj
 0003:00003440       next_alarm_expire_time     000000014012b440     mysys:thr_alarm.obj
 0003:00003450       globerrs                   000000014012b450     mysys:errors.obj
 0003:00003550       _dig_vec_upper             000000014012b550     strings:int2str.obj
 0003:00003578       _dig_vec_lower             000000014012b578     strings:int2str.obj
 0003:000039e0       cs_to_uni                  000000014012b9e0     strings:ctype-latin1.obj
 0003:00003be0       pl00                       000000014012bbe0     strings:ctype-latin1.obj
 0003:00003ce0       pl01                       000000014012bce0     strings:ctype-latin1.obj
 0003:00003de0       pl02                       000000014012bde0     strings:ctype-latin1.obj
 0003:00003ee0       pl20                       000000014012bee0     strings:ctype-latin1.obj
 0003:00003fe0       pl21                       000000014012bfe0     strings:ctype-latin1.obj
 0003:000040e0       uni_to_cs                  000000014012c0e0     strings:ctype-latin1.obj
 0003:000049c0       my_charset_latin1          000000014012c9c0     strings:ctype-latin1.obj
 0003:00004b70       combo1map                  000000014012cb70     strings:ctype-latin1.obj
 0003:00004c70       combo2map                  000000014012cc70     strings:ctype-latin1.obj
 0003:00004de0       my_charset_latin1_german2_ci 000000014012cde0     strings:ctype-latin1.obj
 0003:00004e90       my_charset_latin1_bin      000000014012ce90     strings:ctype-latin1.obj
 0003:00004fe0       my_charset_8bit_handler    000000014012cfe0     strings:ctype-simple.obj
 0003:000050c0       my_collation_8bit_simple_ci_handler 000000014012d0c0     strings:ctype-simple.obj
 0003:00005330       my_collation_8bit_bin_handler 000000014012d330     strings:ctype-bin.obj
 0003:000054d0       my_charset_bin             000000014012d4d0     strings:ctype-bin.obj
 0003:00005770       page000data                000000014012d770     strings:ctype-uca.obj
 0003:00005f70       page001data                000000014012df70     strings:ctype-uca.obj
 0003:00006570       page002data                000000014012e570     strings:ctype-uca.obj
 0003:00006b70       page003data                000000014012eb70     strings:ctype-uca.obj
 0003:00007370       page004data                000000014012f370     strings:ctype-uca.obj
 0003:00007970       page005data                000000014012f970     strings:ctype-uca.obj
 0003:00007f70       page006data                000000014012ff70     strings:ctype-uca.obj
 0003:00008570       page007data                0000000140130570     strings:ctype-uca.obj
 0003:00008b70       page009data                0000000140130b70     strings:ctype-uca.obj
 0003:00009170       page00Adata                0000000140131170     strings:ctype-uca.obj
 0003:00009770       page00Bdata                0000000140131770     strings:ctype-uca.obj
 0003:00009d70       page00Cdata                0000000140131d70     strings:ctype-uca.obj
 0003:0000a370       page00Ddata                0000000140132370     strings:ctype-uca.obj
 0003:0000a970       page00Edata                0000000140132970     strings:ctype-uca.obj
 0003:0000af70       page00Fdata                0000000140132f70     strings:ctype-uca.obj
 0003:0000b570       page010data                0000000140133570     strings:ctype-uca.obj
 0003:0000bb70       page011data                0000000140133b70     strings:ctype-uca.obj
 0003:0000c170       page012data                0000000140134170     strings:ctype-uca.obj
 0003:0000c770       page013data                0000000140134770     strings:ctype-uca.obj
 0003:0000cd70       page014data                0000000140134d70     strings:ctype-uca.obj
 0003:0000d370       page015data                0000000140135370     strings:ctype-uca.obj
 0003:0000d770       page016data                0000000140135770     strings:ctype-uca.obj
 0003:0000dd70       page017data                0000000140135d70     strings:ctype-uca.obj
 0003:0000e370       page018data                0000000140136370     strings:ctype-uca.obj
 0003:0000e970       page019data                0000000140136970     strings:ctype-uca.obj
 0003:0000ef70       page01Ddata                0000000140136f70     strings:ctype-uca.obj
 0003:0000f570       page01Edata                0000000140137570     strings:ctype-uca.obj
 0003:0000fb70       page01Fdata                0000000140137b70     strings:ctype-uca.obj
 0003:00010170       page020data                0000000140138170     strings:ctype-uca.obj
 0003:00010b70       page021data                0000000140138b70     strings:ctype-uca.obj
 0003:00011570       page022data                0000000140139570     strings:ctype-uca.obj
 0003:00011d70       page023data                0000000140139d70     strings:ctype-uca.obj
 0003:00012370       page024data                000000014013a370     strings:ctype-uca.obj
 0003:00012d70       page025data                000000014013ad70     strings:ctype-uca.obj
 0003:00013170       page026data                000000014013b170     strings:ctype-uca.obj
 0003:00013770       page027data                000000014013b770     strings:ctype-uca.obj
 0003:00013d70       page028data                000000014013bd70     strings:ctype-uca.obj
 0003:00014170       page029data                000000014013c170     strings:ctype-uca.obj
 0003:00014570       page02Adata                000000014013c570     strings:ctype-uca.obj
 0003:00014f70       page02Bdata                000000014013cf70     strings:ctype-uca.obj
 0003:00015570       page02Edata                000000014013d570     strings:ctype-uca.obj
 0003:00015b70       page02Fdata                000000014013db70     strings:ctype-uca.obj
 0003:00016170       page030data                000000014013e170     strings:ctype-uca.obj
 0003:00016770       page031data                000000014013e770     strings:ctype-uca.obj
 0003:00016d70       page032data                000000014013ed70     strings:ctype-uca.obj
 0003:00017d70       page033data                000000014013fd70     strings:ctype-uca.obj
 0003:00018f70       page04Ddata                0000000140140f70     strings:ctype-uca.obj
 0003:00019570       page0A0data                0000000140141570     strings:ctype-uca.obj
 0003:00019970       page0A1data                0000000140141970     strings:ctype-uca.obj
 0003:00019d70       page0A2data                0000000140141d70     strings:ctype-uca.obj
 0003:0001a170       page0A3data                0000000140142170     strings:ctype-uca.obj
 0003:0001a570       page0A4data                0000000140142570     strings:ctype-uca.obj
 0003:0001ab70       page0F9data                0000000140142b70     strings:ctype-uca.obj
 0003:0001b170       page0FAdata                0000000140143170     strings:ctype-uca.obj
 0003:0001b770       page0FBdata                0000000140143770     strings:ctype-uca.obj
 0003:0001bf70       page0FCdata                0000000140143f70     strings:ctype-uca.obj
 0003:0001c570       page0FDdata                0000000140144570     strings:ctype-uca.obj
 0003:0001d770       page0FEdata                0000000140145770     strings:ctype-uca.obj
 0003:0001dd70       page0FFdata                0000000140145d70     strings:ctype-uca.obj
 0003:0001e370       uca_length                 0000000140146370     strings:ctype-uca.obj
 0003:0001e470       uca_weight                 0000000140146470     strings:ctype-uca.obj
 0003:0001ec90       my_collation_ucs2_uca_handler 0000000140146c90     strings:ctype-uca.obj
 0003:0001ecf0       my_charset_ucs2_unicode_ci 0000000140146cf0     strings:ctype-uca.obj
 0003:0001eda0       my_charset_ucs2_icelandic_uca_ci 0000000140146da0     strings:ctype-uca.obj
 0003:0001ee50       my_charset_ucs2_latvian_uca_ci 0000000140146e50     strings:ctype-uca.obj
 0003:0001ef00       my_charset_ucs2_romanian_uca_ci 0000000140146f00     strings:ctype-uca.obj
 0003:0001efb0       my_charset_ucs2_slovenian_uca_ci 0000000140146fb0     strings:ctype-uca.obj
 0003:0001f060       my_charset_ucs2_polish_uca_ci 0000000140147060     strings:ctype-uca.obj
 0003:0001f110       my_charset_ucs2_estonian_uca_ci 0000000140147110     strings:ctype-uca.obj
 0003:0001f1c0       my_charset_ucs2_spanish_uca_ci 00000001401471c0     strings:ctype-uca.obj
 0003:0001f270       my_charset_ucs2_swedish_uca_ci 0000000140147270     strings:ctype-uca.obj
 0003:0001f320       my_charset_ucs2_turkish_uca_ci 0000000140147320     strings:ctype-uca.obj
 0003:0001f3d0       my_charset_ucs2_czech_uca_ci 00000001401473d0     strings:ctype-uca.obj
 0003:0001f480       my_charset_ucs2_danish_uca_ci 0000000140147480     strings:ctype-uca.obj
 0003:0001f530       my_charset_ucs2_lithuanian_uca_ci 0000000140147530     strings:ctype-uca.obj
 0003:0001f5e0       my_charset_ucs2_slovak_uca_ci 00000001401475e0     strings:ctype-uca.obj
 0003:0001f690       my_charset_ucs2_spanish2_uca_ci 0000000140147690     strings:ctype-uca.obj
 0003:0001f740       my_charset_ucs2_roman_uca_ci 0000000140147740     strings:ctype-uca.obj
 0003:0001f7f0       my_charset_ucs2_persian_uca_ci 00000001401477f0     strings:ctype-uca.obj
 0003:0001f8a0       my_charset_ucs2_esperanto_uca_ci 00000001401478a0     strings:ctype-uca.obj
 0003:0001f950       my_charset_ucs2_hungarian_uca_ci 0000000140147950     strings:ctype-uca.obj
 0003:0001fa00       my_collation_any_uca_handler 0000000140147a00     strings:ctype-uca.obj
 0003:0001fb70       my_charset_utf8_unicode_ci 0000000140147b70     strings:ctype-uca.obj
 0003:0001fc20       my_charset_utf8_icelandic_uca_ci 0000000140147c20     strings:ctype-uca.obj
 0003:0001fcd0       my_charset_utf8_latvian_uca_ci 0000000140147cd0     strings:ctype-uca.obj
 0003:0001fd80       my_charset_utf8_romanian_uca_ci 0000000140147d80     strings:ctype-uca.obj
 0003:0001fe30       my_charset_utf8_slovenian_uca_ci 0000000140147e30     strings:ctype-uca.obj
 0003:0001fee0       my_charset_utf8_polish_uca_ci 0000000140147ee0     strings:ctype-uca.obj
 0003:0001ff90       my_charset_utf8_estonian_uca_ci 0000000140147f90     strings:ctype-uca.obj
 0003:00020040       my_charset_utf8_spanish_uca_ci 0000000140148040     strings:ctype-uca.obj
 0003:000200f0       my_charset_utf8_swedish_uca_ci 00000001401480f0     strings:ctype-uca.obj
 0003:000201a0       my_charset_utf8_turkish_uca_ci 00000001401481a0     strings:ctype-uca.obj
 0003:00020250       my_charset_utf8_czech_uca_ci 0000000140148250     strings:ctype-uca.obj
 0003:00020300       my_charset_utf8_danish_uca_ci 0000000140148300     strings:ctype-uca.obj
 0003:000203b0       my_charset_utf8_lithuanian_uca_ci 00000001401483b0     strings:ctype-uca.obj
 0003:00020460       my_charset_utf8_slovak_uca_ci 0000000140148460     strings:ctype-uca.obj
 0003:00020510       my_charset_utf8_spanish2_uca_ci 0000000140148510     strings:ctype-uca.obj
 0003:000205c0       my_charset_utf8_roman_uca_ci 00000001401485c0     strings:ctype-uca.obj
 0003:00020670       my_charset_utf8_persian_uca_ci 0000000140148670     strings:ctype-uca.obj
 0003:00020720       my_charset_utf8_esperanto_uca_ci 0000000140148720     strings:ctype-uca.obj
 0003:000207d0       my_charset_utf8_hungarian_uca_ci 00000001401487d0     strings:ctype-uca.obj
 0003:00033c90       my_charset_cp932_japanese_ci 000000014015bc90     strings:ctype-cp932.obj
 0003:00033d40       my_charset_cp932_bin       000000014015bd40     strings:ctype-cp932.obj
 0003:00033df0       ctype_dec8_swedish_ci      000000014015bdf0     strings:ctype-extra.obj
 0003:00033f00       to_lower_dec8_swedish_ci   000000014015bf00     strings:ctype-extra.obj
 0003:00034000       to_upper_dec8_swedish_ci   000000014015c000     strings:ctype-extra.obj
 0003:00034100       sort_order_dec8_swedish_ci 000000014015c100     strings:ctype-extra.obj
 0003:00034200       to_uni_dec8_swedish_ci     000000014015c200     strings:ctype-extra.obj
 0003:00034400       ctype_cp850_general_ci     000000014015c400     strings:ctype-extra.obj
 0003:00034510       to_lower_cp850_general_ci  000000014015c510     strings:ctype-extra.obj
 0003:00034610       to_upper_cp850_general_ci  000000014015c610     strings:ctype-extra.obj
 0003:00034710       sort_order_cp850_general_ci 000000014015c710     strings:ctype-extra.obj
 0003:00034810       to_uni_cp850_general_ci    000000014015c810     strings:ctype-extra.obj
 0003:00034a10       ctype_latin1_german1_ci    000000014015ca10     strings:ctype-extra.obj
 0003:00034b20       to_lower_latin1_german1_ci 000000014015cb20     strings:ctype-extra.obj
 0003:00034c20       to_upper_latin1_german1_ci 000000014015cc20     strings:ctype-extra.obj
 0003:00034d20       sort_order_latin1_german1_ci 000000014015cd20     strings:ctype-extra.obj
 0003:00034e20       to_uni_latin1_german1_ci   000000014015ce20     strings:ctype-extra.obj
 0003:00035020       ctype_hp8_english_ci       000000014015d020     strings:ctype-extra.obj
 0003:00035130       to_lower_hp8_english_ci    000000014015d130     strings:ctype-extra.obj
 0003:00035230       to_upper_hp8_english_ci    000000014015d230     strings:ctype-extra.obj
 0003:00035330       sort_order_hp8_english_ci  000000014015d330     strings:ctype-extra.obj
 0003:00035430       to_uni_hp8_english_ci      000000014015d430     strings:ctype-extra.obj
 0003:00035630       ctype_koi8r_general_ci     000000014015d630     strings:ctype-extra.obj
 0003:00035740       to_lower_koi8r_general_ci  000000014015d740     strings:ctype-extra.obj
 0003:00035840       to_upper_koi8r_general_ci  000000014015d840     strings:ctype-extra.obj
 0003:00035940       sort_order_koi8r_general_ci 000000014015d940     strings:ctype-extra.obj
 0003:00035a40       to_uni_koi8r_general_ci    000000014015da40     strings:ctype-extra.obj
 0003:00035c40       ctype_latin2_general_ci    000000014015dc40     strings:ctype-extra.obj
 0003:00035d50       to_lower_latin2_general_ci 000000014015dd50     strings:ctype-extra.obj
 0003:00035e50       to_upper_latin2_general_ci 000000014015de50     strings:ctype-extra.obj
 0003:00035f50       sort_order_latin2_general_ci 000000014015df50     strings:ctype-extra.obj
 0003:00036050       to_uni_latin2_general_ci   000000014015e050     strings:ctype-extra.obj
 0003:00036250       ctype_swe7_swedish_ci      000000014015e250     strings:ctype-extra.obj
 0003:00036360       to_lower_swe7_swedish_ci   000000014015e360     strings:ctype-extra.obj
 0003:00036460       to_upper_swe7_swedish_ci   000000014015e460     strings:ctype-extra.obj
 0003:00036560       sort_order_swe7_swedish_ci 000000014015e560     strings:ctype-extra.obj
 0003:00036660       to_uni_swe7_swedish_ci     000000014015e660     strings:ctype-extra.obj
 0003:00036860       ctype_ascii_general_ci     000000014015e860     strings:ctype-extra.obj
 0003:00036970       to_lower_ascii_general_ci  000000014015e970     strings:ctype-extra.obj
 0003:00036a70       to_upper_ascii_general_ci  000000014015ea70     strings:ctype-extra.obj
 0003:00036b70       sort_order_ascii_general_ci 000000014015eb70     strings:ctype-extra.obj
 0003:00036c70       to_uni_ascii_general_ci    000000014015ec70     strings:ctype-extra.obj
 0003:00036e70       ctype_cp1251_bulgarian_ci  000000014015ee70     strings:ctype-extra.obj
 0003:00036f80       to_lower_cp1251_bulgarian_ci 000000014015ef80     strings:ctype-extra.obj
 0003:00037080       to_upper_cp1251_bulgarian_ci 000000014015f080     strings:ctype-extra.obj
 0003:00037180       sort_order_cp1251_bulgarian_ci 000000014015f180     strings:ctype-extra.obj
 0003:00037280       to_uni_cp1251_bulgarian_ci 000000014015f280     strings:ctype-extra.obj
 0003:00037480       ctype_latin1_danish_ci     000000014015f480     strings:ctype-extra.obj
 0003:00037590       to_lower_latin1_danish_ci  000000014015f590     strings:ctype-extra.obj
 0003:00037690       to_upper_latin1_danish_ci  000000014015f690     strings:ctype-extra.obj
 0003:00037790       sort_order_latin1_danish_ci 000000014015f790     strings:ctype-extra.obj
 0003:00037890       to_uni_latin1_danish_ci    000000014015f890     strings:ctype-extra.obj
 0003:00037a90       ctype_hebrew_general_ci    000000014015fa90     strings:ctype-extra.obj
 0003:00037ba0       to_lower_hebrew_general_ci 000000014015fba0     strings:ctype-extra.obj
 0003:00037ca0       to_upper_hebrew_general_ci 000000014015fca0     strings:ctype-extra.obj
 0003:00037da0       sort_order_hebrew_general_ci 000000014015fda0     strings:ctype-extra.obj
 0003:00037ea0       to_uni_hebrew_general_ci   000000014015fea0     strings:ctype-extra.obj
 0003:000380a0       ctype_latin7_estonian_cs   00000001401600a0     strings:ctype-extra.obj
 0003:000381b0       to_lower_latin7_estonian_cs 00000001401601b0     strings:ctype-extra.obj
 0003:000382b0       to_upper_latin7_estonian_cs 00000001401602b0     strings:ctype-extra.obj
 0003:000383b0       sort_order_latin7_estonian_cs 00000001401603b0     strings:ctype-extra.obj
 0003:000384b0       to_uni_latin7_estonian_cs  00000001401604b0     strings:ctype-extra.obj
 0003:000386b0       ctype_latin2_hungarian_ci  00000001401606b0     strings:ctype-extra.obj
 0003:000387c0       to_lower_latin2_hungarian_ci 00000001401607c0     strings:ctype-extra.obj
 0003:000388c0       to_upper_latin2_hungarian_ci 00000001401608c0     strings:ctype-extra.obj
 0003:000389c0       sort_order_latin2_hungarian_ci 00000001401609c0     strings:ctype-extra.obj
 0003:00038ac0       to_uni_latin2_hungarian_ci 0000000140160ac0     strings:ctype-extra.obj
 0003:00038cc0       ctype_koi8u_general_ci     0000000140160cc0     strings:ctype-extra.obj
 0003:00038dd0       to_lower_koi8u_general_ci  0000000140160dd0     strings:ctype-extra.obj
 0003:00038ed0       to_upper_koi8u_general_ci  0000000140160ed0     strings:ctype-extra.obj
 0003:00038fd0       sort_order_koi8u_general_ci 0000000140160fd0     strings:ctype-extra.obj
 0003:000390d0       to_uni_koi8u_general_ci    00000001401610d0     strings:ctype-extra.obj
 0003:000392d0       ctype_cp1251_ukrainian_ci  00000001401612d0     strings:ctype-extra.obj
 0003:000393e0       to_lower_cp1251_ukrainian_ci 00000001401613e0     strings:ctype-extra.obj
 0003:000394e0       to_upper_cp1251_ukrainian_ci 00000001401614e0     strings:ctype-extra.obj
 0003:000395e0       sort_order_cp1251_ukrainian_ci 00000001401615e0     strings:ctype-extra.obj
 0003:000396e0       to_uni_cp1251_ukrainian_ci 00000001401616e0     strings:ctype-extra.obj
 0003:000398e0       ctype_greek_general_ci     00000001401618e0     strings:ctype-extra.obj
 0003:000399f0       to_lower_greek_general_ci  00000001401619f0     strings:ctype-extra.obj
 0003:00039af0       to_upper_greek_general_ci  0000000140161af0     strings:ctype-extra.obj
 0003:00039bf0       sort_order_greek_general_ci 0000000140161bf0     strings:ctype-extra.obj
 0003:00039cf0       to_uni_greek_general_ci    0000000140161cf0     strings:ctype-extra.obj
 0003:00039ef0       ctype_cp1250_general_ci    0000000140161ef0     strings:ctype-extra.obj
 0003:0003a000       to_lower_cp1250_general_ci 0000000140162000     strings:ctype-extra.obj
 0003:0003a100       to_upper_cp1250_general_ci 0000000140162100     strings:ctype-extra.obj
 0003:0003a200       sort_order_cp1250_general_ci 0000000140162200     strings:ctype-extra.obj
 0003:0003a300       to_uni_cp1250_general_ci   0000000140162300     strings:ctype-extra.obj
 0003:0003a500       ctype_latin2_croatian_ci   0000000140162500     strings:ctype-extra.obj
 0003:0003a610       to_lower_latin2_croatian_ci 0000000140162610     strings:ctype-extra.obj
 0003:0003a710       to_upper_latin2_croatian_ci 0000000140162710     strings:ctype-extra.obj
 0003:0003a810       sort_order_latin2_croatian_ci 0000000140162810     strings:ctype-extra.obj
 0003:0003a910       to_uni_latin2_croatian_ci  0000000140162910     strings:ctype-extra.obj
 0003:0003ab10       ctype_cp1257_lithuanian_ci 0000000140162b10     strings:ctype-extra.obj
 0003:0003ac20       to_lower_cp1257_lithuanian_ci 0000000140162c20     strings:ctype-extra.obj
 0003:0003ad20       to_upper_cp1257_lithuanian_ci 0000000140162d20     strings:ctype-extra.obj
 0003:0003ae20       sort_order_cp1257_lithuanian_ci 0000000140162e20     strings:ctype-extra.obj
 0003:0003af20       to_uni_cp1257_lithuanian_ci 0000000140162f20     strings:ctype-extra.obj
 0003:0003b120       ctype_latin5_turkish_ci    0000000140163120     strings:ctype-extra.obj
 0003:0003b230       to_lower_latin5_turkish_ci 0000000140163230     strings:ctype-extra.obj
 0003:0003b330       to_upper_latin5_turkish_ci 0000000140163330     strings:ctype-extra.obj
 0003:0003b430       sort_order_latin5_turkish_ci 0000000140163430     strings:ctype-extra.obj
 0003:0003b530       to_uni_latin5_turkish_ci   0000000140163530     strings:ctype-extra.obj
 0003:0003b730       ctype_armscii8_general_ci  0000000140163730     strings:ctype-extra.obj
 0003:0003b840       to_lower_armscii8_general_ci 0000000140163840     strings:ctype-extra.obj
 0003:0003b940       to_upper_armscii8_general_ci 0000000140163940     strings:ctype-extra.obj
 0003:0003ba40       sort_order_armscii8_general_ci 0000000140163a40     strings:ctype-extra.obj
 0003:0003bb40       to_uni_armscii8_general_ci 0000000140163b40     strings:ctype-extra.obj
 0003:0003bd40       ctype_cp866_general_ci     0000000140163d40     strings:ctype-extra.obj
 0003:0003be50       to_lower_cp866_general_ci  0000000140163e50     strings:ctype-extra.obj
 0003:0003bf50       to_upper_cp866_general_ci  0000000140163f50     strings:ctype-extra.obj
 0003:0003c050       sort_order_cp866_general_ci 0000000140164050     strings:ctype-extra.obj
 0003:0003c150       to_uni_cp866_general_ci    0000000140164150     strings:ctype-extra.obj
 0003:0003c350       ctype_keybcs2_general_ci   0000000140164350     strings:ctype-extra.obj
 0003:0003c460       to_lower_keybcs2_general_ci 0000000140164460     strings:ctype-extra.obj
 0003:0003c560       to_upper_keybcs2_general_ci 0000000140164560     strings:ctype-extra.obj
 0003:0003c660       sort_order_keybcs2_general_ci 0000000140164660     strings:ctype-extra.obj
 0003:0003c760       to_uni_keybcs2_general_ci  0000000140164760     strings:ctype-extra.obj
 0003:0003c960       ctype_macce_general_ci     0000000140164960     strings:ctype-extra.obj
 0003:0003ca70       to_lower_macce_general_ci  0000000140164a70     strings:ctype-extra.obj
 0003:0003cb70       to_upper_macce_general_ci  0000000140164b70     strings:ctype-extra.obj
 0003:0003cc70       sort_order_macce_general_ci 0000000140164c70     strings:ctype-extra.obj
 0003:0003cd70       to_uni_macce_general_ci    0000000140164d70     strings:ctype-extra.obj
 0003:0003cf70       ctype_macroman_general_ci  0000000140164f70     strings:ctype-extra.obj
 0003:0003d080       to_lower_macroman_general_ci 0000000140165080     strings:ctype-extra.obj
 0003:0003d180       to_upper_macroman_general_ci 0000000140165180     strings:ctype-extra.obj
 0003:0003d280       sort_order_macroman_general_ci 0000000140165280     strings:ctype-extra.obj
 0003:0003d380       to_uni_macroman_general_ci 0000000140165380     strings:ctype-extra.obj
 0003:0003d580       ctype_cp852_general_ci     0000000140165580     strings:ctype-extra.obj
 0003:0003d690       to_lower_cp852_general_ci  0000000140165690     strings:ctype-extra.obj
 0003:0003d790       to_upper_cp852_general_ci  0000000140165790     strings:ctype-extra.obj
 0003:0003d890       sort_order_cp852_general_ci 0000000140165890     strings:ctype-extra.obj
 0003:0003d990       to_uni_cp852_general_ci    0000000140165990     strings:ctype-extra.obj
 0003:0003db90       ctype_latin7_general_ci    0000000140165b90     strings:ctype-extra.obj
 0003:0003dca0       to_lower_latin7_general_ci 0000000140165ca0     strings:ctype-extra.obj
 0003:0003dda0       to_upper_latin7_general_ci 0000000140165da0     strings:ctype-extra.obj
 0003:0003dea0       sort_order_latin7_general_ci 0000000140165ea0     strings:ctype-extra.obj
 0003:0003dfa0       to_uni_latin7_general_ci   0000000140165fa0     strings:ctype-extra.obj
 0003:0003e1a0       ctype_latin7_general_cs    00000001401661a0     strings:ctype-extra.obj
 0003:0003e2b0       to_lower_latin7_general_cs 00000001401662b0     strings:ctype-extra.obj
 0003:0003e3b0       to_upper_latin7_general_cs 00000001401663b0     strings:ctype-extra.obj
 0003:0003e4b0       sort_order_latin7_general_cs 00000001401664b0     strings:ctype-extra.obj
 0003:0003e5b0       to_uni_latin7_general_cs   00000001401665b0     strings:ctype-extra.obj
 0003:0003e7b0       ctype_macce_bin            00000001401667b0     strings:ctype-extra.obj
 0003:0003e8c0       to_lower_macce_bin         00000001401668c0     strings:ctype-extra.obj
 0003:0003e9c0       to_upper_macce_bin         00000001401669c0     strings:ctype-extra.obj
 0003:0003eac0       to_uni_macce_bin           0000000140166ac0     strings:ctype-extra.obj
 0003:0003ecc0       ctype_cp1250_croatian_ci   0000000140166cc0     strings:ctype-extra.obj
 0003:0003edd0       to_lower_cp1250_croatian_ci 0000000140166dd0     strings:ctype-extra.obj
 0003:0003eed0       to_upper_cp1250_croatian_ci 0000000140166ed0     strings:ctype-extra.obj
 0003:0003efd0       sort_order_cp1250_croatian_ci 0000000140166fd0     strings:ctype-extra.obj
 0003:0003f0d0       to_uni_cp1250_croatian_ci  00000001401670d0     strings:ctype-extra.obj
 0003:0003f2d0       ctype_latin1_general_ci    00000001401672d0     strings:ctype-extra.obj
 0003:0003f3e0       to_lower_latin1_general_ci 00000001401673e0     strings:ctype-extra.obj
 0003:0003f4e0       to_upper_latin1_general_ci 00000001401674e0     strings:ctype-extra.obj
 0003:0003f5e0       sort_order_latin1_general_ci 00000001401675e0     strings:ctype-extra.obj
 0003:0003f6e0       to_uni_latin1_general_ci   00000001401676e0     strings:ctype-extra.obj
 0003:0003f8e0       ctype_latin1_general_cs    00000001401678e0     strings:ctype-extra.obj
 0003:0003f9f0       to_lower_latin1_general_cs 00000001401679f0     strings:ctype-extra.obj
 0003:0003faf0       to_upper_latin1_general_cs 0000000140167af0     strings:ctype-extra.obj
 0003:0003fbf0       sort_order_latin1_general_cs 0000000140167bf0     strings:ctype-extra.obj
 0003:0003fcf0       to_uni_latin1_general_cs   0000000140167cf0     strings:ctype-extra.obj
 0003:0003fef0       ctype_cp1251_bin           0000000140167ef0     strings:ctype-extra.obj
 0003:00040000       to_lower_cp1251_bin        0000000140168000     strings:ctype-extra.obj
 0003:00040100       to_upper_cp1251_bin        0000000140168100     strings:ctype-extra.obj
 0003:00040200       to_uni_cp1251_bin          0000000140168200     strings:ctype-extra.obj
 0003:00040400       ctype_cp1251_general_ci    0000000140168400     strings:ctype-extra.obj
 0003:00040510       to_lower_cp1251_general_ci 0000000140168510     strings:ctype-extra.obj
 0003:00040610       to_upper_cp1251_general_ci 0000000140168610     strings:ctype-extra.obj
 0003:00040710       sort_order_cp1251_general_ci 0000000140168710     strings:ctype-extra.obj
 0003:00040810       to_uni_cp1251_general_ci   0000000140168810     strings:ctype-extra.obj
 0003:00040a10       ctype_cp1251_general_cs    0000000140168a10     strings:ctype-extra.obj
 0003:00040b20       to_lower_cp1251_general_cs 0000000140168b20     strings:ctype-extra.obj
 0003:00040c20       to_upper_cp1251_general_cs 0000000140168c20     strings:ctype-extra.obj
 0003:00040d20       sort_order_cp1251_general_cs 0000000140168d20     strings:ctype-extra.obj
 0003:00040e20       to_uni_cp1251_general_cs   0000000140168e20     strings:ctype-extra.obj
 0003:00041020       ctype_macroman_bin         0000000140169020     strings:ctype-extra.obj
 0003:00041130       to_lower_macroman_bin      0000000140169130     strings:ctype-extra.obj
 0003:00041230       to_upper_macroman_bin      0000000140169230     strings:ctype-extra.obj
 0003:00041330       to_uni_macroman_bin        0000000140169330     strings:ctype-extra.obj
 0003:00041530       ctype_cp1256_general_ci    0000000140169530     strings:ctype-extra.obj
 0003:00041640       to_lower_cp1256_general_ci 0000000140169640     strings:ctype-extra.obj
 0003:00041740       to_upper_cp1256_general_ci 0000000140169740     strings:ctype-extra.obj
 0003:00041840       sort_order_cp1256_general_ci 0000000140169840     strings:ctype-extra.obj
 0003:00041940       to_uni_cp1256_general_ci   0000000140169940     strings:ctype-extra.obj
 0003:00041b40       ctype_cp1257_bin           0000000140169b40     strings:ctype-extra.obj
 0003:00041c50       to_lower_cp1257_bin        0000000140169c50     strings:ctype-extra.obj
 0003:00041d50       to_upper_cp1257_bin        0000000140169d50     strings:ctype-extra.obj
 0003:00041e50       to_uni_cp1257_bin          0000000140169e50     strings:ctype-extra.obj
 0003:00042050       ctype_cp1257_general_ci    000000014016a050     strings:ctype-extra.obj
 0003:00042160       to_lower_cp1257_general_ci 000000014016a160     strings:ctype-extra.obj
 0003:00042260       to_upper_cp1257_general_ci 000000014016a260     strings:ctype-extra.obj
 0003:00042360       sort_order_cp1257_general_ci 000000014016a360     strings:ctype-extra.obj
 0003:00042460       to_uni_cp1257_general_ci   000000014016a460     strings:ctype-extra.obj
 0003:00042660       ctype_armscii8_bin         000000014016a660     strings:ctype-extra.obj
 0003:00042770       to_lower_armscii8_bin      000000014016a770     strings:ctype-extra.obj
 0003:00042870       to_upper_armscii8_bin      000000014016a870     strings:ctype-extra.obj
 0003:00042970       to_uni_armscii8_bin        000000014016a970     strings:ctype-extra.obj
 0003:00042b70       ctype_ascii_bin            000000014016ab70     strings:ctype-extra.obj
 0003:00042c80       to_lower_ascii_bin         000000014016ac80     strings:ctype-extra.obj
 0003:00042d80       to_upper_ascii_bin         000000014016ad80     strings:ctype-extra.obj
 0003:00042e80       to_uni_ascii_bin           000000014016ae80     strings:ctype-extra.obj
 0003:00043080       ctype_cp1250_bin           000000014016b080     strings:ctype-extra.obj
 0003:00043190       to_lower_cp1250_bin        000000014016b190     strings:ctype-extra.obj
 0003:00043290       to_upper_cp1250_bin        000000014016b290     strings:ctype-extra.obj
 0003:00043390       to_uni_cp1250_bin          000000014016b390     strings:ctype-extra.obj
 0003:00043590       ctype_cp1256_bin           000000014016b590     strings:ctype-extra.obj
 0003:000436a0       to_lower_cp1256_bin        000000014016b6a0     strings:ctype-extra.obj
 0003:000437a0       to_upper_cp1256_bin        000000014016b7a0     strings:ctype-extra.obj
 0003:000438a0       to_uni_cp1256_bin          000000014016b8a0     strings:ctype-extra.obj
 0003:00043aa0       ctype_cp866_bin            000000014016baa0     strings:ctype-extra.obj
 0003:00043bb0       to_lower_cp866_bin         000000014016bbb0     strings:ctype-extra.obj
 0003:00043cb0       to_upper_cp866_bin         000000014016bcb0     strings:ctype-extra.obj
 0003:00043db0       to_uni_cp866_bin           000000014016bdb0     strings:ctype-extra.obj
 0003:00043fb0       ctype_dec8_bin             000000014016bfb0     strings:ctype-extra.obj
 0003:000440c0       to_lower_dec8_bin          000000014016c0c0     strings:ctype-extra.obj
 0003:000441c0       to_upper_dec8_bin          000000014016c1c0     strings:ctype-extra.obj
 0003:000442c0       to_uni_dec8_bin            000000014016c2c0     strings:ctype-extra.obj
 0003:000444c0       ctype_greek_bin            000000014016c4c0     strings:ctype-extra.obj
 0003:000445d0       to_lower_greek_bin         000000014016c5d0     strings:ctype-extra.obj
 0003:000446d0       to_upper_greek_bin         000000014016c6d0     strings:ctype-extra.obj
 0003:000447d0       to_uni_greek_bin           000000014016c7d0     strings:ctype-extra.obj
 0003:000449d0       ctype_hebrew_bin           000000014016c9d0     strings:ctype-extra.obj
 0003:00044ae0       to_lower_hebrew_bin        000000014016cae0     strings:ctype-extra.obj
 0003:00044be0       to_upper_hebrew_bin        000000014016cbe0     strings:ctype-extra.obj
 0003:00044ce0       to_uni_hebrew_bin          000000014016cce0     strings:ctype-extra.obj
 0003:00044ee0       ctype_hp8_bin              000000014016cee0     strings:ctype-extra.obj
 0003:00044ff0       to_lower_hp8_bin           000000014016cff0     strings:ctype-extra.obj
 0003:000450f0       to_upper_hp8_bin           000000014016d0f0     strings:ctype-extra.obj
 0003:000451f0       to_uni_hp8_bin             000000014016d1f0     strings:ctype-extra.obj
 0003:000453f0       ctype_keybcs2_bin          000000014016d3f0     strings:ctype-extra.obj
 0003:00045500       to_lower_keybcs2_bin       000000014016d500     strings:ctype-extra.obj
 0003:00045600       to_upper_keybcs2_bin       000000014016d600     strings:ctype-extra.obj
 0003:00045700       to_uni_keybcs2_bin         000000014016d700     strings:ctype-extra.obj
 0003:00045900       ctype_koi8r_bin            000000014016d900     strings:ctype-extra.obj
 0003:00045a10       to_lower_koi8r_bin         000000014016da10     strings:ctype-extra.obj
 0003:00045b10       to_upper_koi8r_bin         000000014016db10     strings:ctype-extra.obj
 0003:00045c10       to_uni_koi8r_bin           000000014016dc10     strings:ctype-extra.obj
 0003:00045e10       ctype_koi8u_bin            000000014016de10     strings:ctype-extra.obj
 0003:00045f20       to_lower_koi8u_bin         000000014016df20     strings:ctype-extra.obj
 0003:00046020       to_upper_koi8u_bin         000000014016e020     strings:ctype-extra.obj
 0003:00046120       to_uni_koi8u_bin           000000014016e120     strings:ctype-extra.obj
 0003:00046320       ctype_latin2_bin           000000014016e320     strings:ctype-extra.obj
 0003:00046430       to_lower_latin2_bin        000000014016e430     strings:ctype-extra.obj
 0003:00046530       to_upper_latin2_bin        000000014016e530     strings:ctype-extra.obj
 0003:00046630       to_uni_latin2_bin          000000014016e630     strings:ctype-extra.obj
 0003:00046830       ctype_latin5_bin           000000014016e830     strings:ctype-extra.obj
 0003:00046940       to_lower_latin5_bin        000000014016e940     strings:ctype-extra.obj
 0003:00046a40       to_upper_latin5_bin        000000014016ea40     strings:ctype-extra.obj
 0003:00046b40       to_uni_latin5_bin          000000014016eb40     strings:ctype-extra.obj
 0003:00046d40       ctype_latin7_bin           000000014016ed40     strings:ctype-extra.obj
 0003:00046e50       to_lower_latin7_bin        000000014016ee50     strings:ctype-extra.obj
 0003:00046f50       to_upper_latin7_bin        000000014016ef50     strings:ctype-extra.obj
 0003:00047050       to_uni_latin7_bin          000000014016f050     strings:ctype-extra.obj
 0003:00047250       ctype_cp850_bin            000000014016f250     strings:ctype-extra.obj
 0003:00047360       to_lower_cp850_bin         000000014016f360     strings:ctype-extra.obj
 0003:00047460       to_upper_cp850_bin         000000014016f460     strings:ctype-extra.obj
 0003:00047560       to_uni_cp850_bin           000000014016f560     strings:ctype-extra.obj
 0003:00047760       ctype_cp852_bin            000000014016f760     strings:ctype-extra.obj
 0003:00047870       to_lower_cp852_bin         000000014016f870     strings:ctype-extra.obj
 0003:00047970       to_upper_cp852_bin         000000014016f970     strings:ctype-extra.obj
 0003:00047a70       to_uni_cp852_bin           000000014016fa70     strings:ctype-extra.obj
 0003:00047c70       ctype_swe7_bin             000000014016fc70     strings:ctype-extra.obj
 0003:00047d80       to_lower_swe7_bin          000000014016fd80     strings:ctype-extra.obj
 0003:00047e80       to_upper_swe7_bin          000000014016fe80     strings:ctype-extra.obj
 0003:00047f80       to_uni_swe7_bin            000000014016ff80     strings:ctype-extra.obj
 0003:00048180       ctype_geostd8_general_ci   0000000140170180     strings:ctype-extra.obj
 0003:00048290       to_lower_geostd8_general_ci 0000000140170290     strings:ctype-extra.obj
 0003:00048390       to_upper_geostd8_general_ci 0000000140170390     strings:ctype-extra.obj
 0003:00048490       sort_order_geostd8_general_ci 0000000140170490     strings:ctype-extra.obj
 0003:00048590       to_uni_geostd8_general_ci  0000000140170590     strings:ctype-extra.obj
 0003:00048790       ctype_geostd8_bin          0000000140170790     strings:ctype-extra.obj
 0003:000488a0       to_lower_geostd8_bin       00000001401708a0     strings:ctype-extra.obj
 0003:000489a0       to_upper_geostd8_bin       00000001401709a0     strings:ctype-extra.obj
 0003:00048aa0       to_uni_geostd8_bin         0000000140170aa0     strings:ctype-extra.obj
 0003:00048ca0       ctype_latin1_spanish_ci    0000000140170ca0     strings:ctype-extra.obj
 0003:00048db0       to_lower_latin1_spanish_ci 0000000140170db0     strings:ctype-extra.obj
 0003:00048eb0       to_upper_latin1_spanish_ci 0000000140170eb0     strings:ctype-extra.obj
 0003:00048fb0       sort_order_latin1_spanish_ci 0000000140170fb0     strings:ctype-extra.obj
 0003:000490b0       to_uni_latin1_spanish_ci   00000001401710b0     strings:ctype-extra.obj
 0003:000492b0       ctype_cp1250_polish_ci     00000001401712b0     strings:ctype-extra.obj
 0003:000493c0       to_lower_cp1250_polish_ci  00000001401713c0     strings:ctype-extra.obj
 0003:000494c0       to_upper_cp1250_polish_ci  00000001401714c0     strings:ctype-extra.obj
 0003:000495c0       sort_order_cp1250_polish_ci 00000001401715c0     strings:ctype-extra.obj
 0003:000496c0       to_uni_cp1250_polish_ci    00000001401716c0     strings:ctype-extra.obj
 0003:000498c0       compiled_charsets          00000001401718c0     strings:ctype-extra.obj
 0003:000500c0       my_uni_ctype               00000001401780c0     strings:ctype-utf8.obj
 0003:000552c0       my_unicase_default         000000014017d2c0     strings:ctype-utf8.obj
 0003:000560c0       my_unicase_turkish         000000014017e0c0     strings:ctype-utf8.obj
 0003:00056c30       my_charset_utf8_handler    000000014017ec30     strings:ctype-utf8.obj
 0003:00056d10       my_charset_utf8_general_ci 000000014017ed10     strings:ctype-utf8.obj
 0003:00056dc0       my_charset_utf8_bin        000000014017edc0     strings:ctype-utf8.obj
 0003:0005afd0       my_charset_filename        0000000140182fd0     strings:ctype-utf8.obj
 0003:00075890       my_charset_ujis_japanese_ci 000000014019d890     strings:ctype-ujis.obj
 0003:00075940       my_charset_ujis_bin        000000014019d940     strings:ctype-ujis.obj
 0003:00075df0       my_charset_ucs2_handler    000000014019ddf0     strings:ctype-ucs2.obj
 0003:00075ed0       my_charset_ucs2_general_ci 000000014019ded0     strings:ctype-ucs2.obj
 0003:00075f80       my_charset_ucs2_bin        000000014019df80     strings:ctype-ucs2.obj
 0003:00078680       my_charset_tis620_thai_ci  00000001401a0680     strings:ctype-tis620.obj
 0003:00078730       my_charset_tis620_bin      00000001401a0730     strings:ctype-tis620.obj
 0003:00088940       my_charset_sjis_japanese_ci 00000001401b0940     strings:ctype-sjis.obj
 0003:000889f0       my_charset_sjis_bin        00000001401b09f0     strings:ctype-sjis.obj
 0003:000b0320       my_charset_gbk_chinese_ci  00000001401d8320     strings:ctype-gbk.obj
 0003:000b03d0       my_charset_gbk_bin         00000001401d83d0     strings:ctype-gbk.obj
 0003:000c59e0       my_charset_gb2312_chinese_ci 00000001401ed9e0     strings:ctype-gb2312.obj
 0003:000c5a90       my_charset_gb2312_bin      00000001401eda90     strings:ctype-gb2312.obj
 0003:000e67f0       my_charset_euckr_korean_ci 000000014020e7f0     strings:ctype-euc_kr.obj
 0003:000e68a0       my_charset_euckr_bin       000000014020e8a0     strings:ctype-euc_kr.obj
 0003:00101660       my_charset_eucjpms_japanese_ci 0000000140229660     strings:ctype-eucjpms.obj
 0003:00101710       my_charset_eucjpms_bin     0000000140229710     strings:ctype-eucjpms.obj
 0003:00102080       my_charset_latin2_czech_ci 000000014022a080     strings:ctype-czech.obj
 0003:00102e90       my_charset_cp1250_czech_ci 000000014022ae90     strings:ctype-win1250ch.obj
 0003:00119850       my_charset_big5_chinese_ci 0000000140241850     strings:ctype-big5.obj
 0003:00119900       my_charset_big5_bin        0000000140241900     strings:ctype-big5.obj
 0003:0011b8b0       my_collation_mb_bin_handler 00000001402438b0     strings:ctype-mb.obj
 0003:0011b908       my_str_malloc              0000000140243908     strings:str_alloc.obj
 0003:0011b910       my_str_free                0000000140243910     strings:str_alloc.obj
 0003:0011bdb0       ??_R0?AUMessage@yaSSL@@@8  0000000140243db0     yassl:ssl.obj
 0003:0011bdd8       ??_R0?AVvirtual_base@yaSSL@@@8 0000000140243dd8     yassl:ssl.obj
 0003:0011be08       ??_R0?AVHandShakeBase@yaSSL@@@8 0000000140243e08     yassl:ssl.obj
 0003:0011be38       ??_R0?AVHASH@TaoCrypt@@@8  0000000140243e38     yassl:ssl.obj
 0003:0011be60       ??_R0?AVvirtual_base@TaoCrypt@@@8 0000000140243e60     yassl:ssl.obj
 0003:0011be90       ??_R0?AVMD5@TaoCrypt@@@8   0000000140243e90     yassl:ssl.obj
 0003:0011beb8       ??_R0?AVHASHwithTransform@TaoCrypt@@@8 0000000140243eb8     yassl:ssl.obj
 0003:0011bef0       ??_R0?AVMD4@TaoCrypt@@@8   0000000140243ef0     yassl:ssl.obj
 0003:0011c770       ??_R0?AUDigest@yaSSL@@@8   0000000140244770     yassl:crypto_wrapper.obj
 0003:0011c798       ??_R0?AUBulkCipher@yaSSL@@@8 0000000140244798     yassl:crypto_wrapper.obj
 0003:0011c7c0       ??_R0?AUAuth@yaSSL@@@8     00000001402447c0     yassl:crypto_wrapper.obj
 0003:0011c7e8       ??_R0?AVSHA@TaoCrypt@@@8   00000001402447e8     yassl:crypto_wrapper.obj
 0003:0011c810       ??_R0?AVRIPEMD160@TaoCrypt@@@8 0000000140244810     yassl:crypto_wrapper.obj
 0003:0011c840       ??_R0?AVMode_BASE@TaoCrypt@@@8 0000000140244840     yassl:crypto_wrapper.obj
 0003:0011c870       ??_R0?AVDES@TaoCrypt@@@8   0000000140244870     yassl:crypto_wrapper.obj
 0003:0011c898       ??_R0?AVBasicDES@TaoCrypt@@@8 0000000140244898     yassl:crypto_wrapper.obj
 0003:0011c8c0       ??_R0?AVDES_EDE3@TaoCrypt@@@8 00000001402448c0     yassl:crypto_wrapper.obj
 0003:0011c8e8       ??_R0?AVAES@TaoCrypt@@@8   00000001402448e8     yassl:crypto_wrapper.obj
 0003:0011c910       ??_R0?AVMD5@yaSSL@@@8      0000000140244910     yassl:crypto_wrapper.obj
 0003:0011c930       ??_R0?AVSHA@yaSSL@@@8      0000000140244930     yassl:crypto_wrapper.obj
 0003:0011c950       ??_R0?AVRMD@yaSSL@@@8      0000000140244950     yassl:crypto_wrapper.obj
 0003:0011c970       ??_R0?AVRC4@yaSSL@@@8      0000000140244970     yassl:crypto_wrapper.obj
 0003:0011c990       ??_R0?AVAES@yaSSL@@@8      0000000140244990     yassl:crypto_wrapper.obj
 0003:0011c9b0       ??_R0?AVHMAC_MD5@yaSSL@@@8 00000001402449b0     yassl:crypto_wrapper.obj
 0003:0011c9d8       ??_R0?AVHMAC_SHA@yaSSL@@@8 00000001402449d8     yassl:crypto_wrapper.obj
 0003:0011ca00       ??_R0?AVHMAC_RMD@yaSSL@@@8 0000000140244a00     yassl:crypto_wrapper.obj
 0003:0011ca28       ??_R0?AVDES@yaSSL@@@8      0000000140244a28     yassl:crypto_wrapper.obj
 0003:0011ca48       ??_R0?AVDES_EDE@yaSSL@@@8  0000000140244a48     yassl:crypto_wrapper.obj
 0003:0011ca70       ??_R0?AVDSS@yaSSL@@@8      0000000140244a70     yassl:crypto_wrapper.obj
 0003:0011ca90       ??_R0?AVRSA@yaSSL@@@8      0000000140244a90     yassl:crypto_wrapper.obj
 0003:0011cec0       ??_R0?AVHandShakeHeader@yaSSL@@@8 0000000140244ec0     yassl:yassl_imp.obj
 0003:0011cef0       ??_R0?AUServerKeyBase@yaSSL@@@8 0000000140244ef0     yassl:yassl_imp.obj
 0003:0011cf20       ??_R0?AUClientKeyBase@yaSSL@@@8 0000000140244f20     yassl:yassl_imp.obj
 0003:0011cf50       ??_R0?AVClientDiffieHellmanPublic@yaSSL@@@8 0000000140244f50     yassl:yassl_imp.obj
 0003:0011cf88       ??_R0?AVChangeCipherSpec@yaSSL@@@8 0000000140244f88     yassl:yassl_imp.obj
 0003:0011cfb8       ??_R0?AVAlert@yaSSL@@@8    0000000140244fb8     yassl:yassl_imp.obj
 0003:0011cfe0       ??_R0?AVData@yaSSL@@@8     0000000140244fe0     yassl:yassl_imp.obj
 0003:0011d008       ??_R0?AVCertificate@yaSSL@@@8 0000000140245008     yassl:yassl_imp.obj
 0003:0011d030       ??_R0?AVServerHello@yaSSL@@@8 0000000140245030     yassl:yassl_imp.obj
 0003:0011d058       ??_R0?AUServerHelloDone@yaSSL@@@8 0000000140245058     yassl:yassl_imp.obj
 0003:0011d088       ??_R0?AVClientHello@yaSSL@@@8 0000000140245088     yassl:yassl_imp.obj
 0003:0011d0b0       ??_R0?AVServerKeyExchange@yaSSL@@@8 00000001402450b0     yassl:yassl_imp.obj
 0003:0011d0e0       ??_R0?AVCertificateVerify@yaSSL@@@8 00000001402450e0     yassl:yassl_imp.obj
 0003:0011d110       ??_R0?AVClientKeyExchange@yaSSL@@@8 0000000140245110     yassl:yassl_imp.obj
 0003:0011d140       ??_R0?AVFinished@yaSSL@@@8 0000000140245140     yassl:yassl_imp.obj
 0003:0011d168       ??_R0?AUHelloRequest@yaSSL@@@8 0000000140245168     yassl:yassl_imp.obj
 0003:0011d198       ??_R0?AURSA_Server@yaSSL@@@8 0000000140245198     yassl:yassl_imp.obj
 0003:0011d1c0       ??_R0?AUFortezza_Server@yaSSL@@@8 00000001402451c0     yassl:yassl_imp.obj
 0003:0011d1f0       ??_R0?AUFortezzaKeys@yaSSL@@@8 00000001402451f0     yassl:yassl_imp.obj
 0003:0011d220       ??_R0?AVEncryptedPreMasterSecret@yaSSL@@@8 0000000140245220     yassl:yassl_imp.obj
 0003:0011d258       ??_R0?AVDH_Server@yaSSL@@@8 0000000140245258     yassl:yassl_imp.obj
 0003:0011d280       ??_R0?AVCertificateRequest@yaSSL@@@8 0000000140245280     yassl:yassl_imp.obj
 0003:0011df38       _fltused                   0000000140245f38     LIBCMT:fpinit.obj
 0003:0011df3c       _ldused                    0000000140245f3c     LIBCMT:fpinit.obj
 0003:0011df48       ??_R0?AVtype_info@@@8      0000000140245f48     LIBCMT:typinfo.obj
 0003:0011df70       __security_cookie          0000000140245f70     LIBCMT:gs_cookie.obj
 0003:0011df78       __security_cookie_complement 0000000140245f78     LIBCMT:gs_cookie.obj
 0003:0011df88       ??_R0?AVbad_alloc@std@@@8  0000000140245f88     LIBCMT:new.obj
 0003:0011dfb0       ??_R0?AVexception@std@@@8  0000000140245fb0     LIBCMT:new.obj
 0003:0011e150       _iob                       0000000140246150     LIBCMT:_file.obj
 0003:0011e510       _aexit_rtn                 0000000140246510     LIBCMT:crt0dat.obj
 0003:0011e524       __app_type                 0000000140246524     LIBCMT:crt0.obj
 0003:0011e550       _cfltcvt_tab               0000000140246550     LIBCMT:cmiscdat.obj
 0003:0011e5a8       __abort_behavior           00000001402465a8     LIBCMT:abort.obj
 0003:0011e720       __flsindex                 0000000140246720     LIBCMT:tidtable.obj
 0003:0011e724       __getvalueindex            0000000140246724     LIBCMT:tidtable.obj
 0003:0011e730       ??_R0?AVbad_cast@std@@@8   0000000140246730     LIBCMT:stdexcpt.obj
 0003:0011e758       ??_R0?AVbad_typeid@std@@@8 0000000140246758     LIBCMT:stdexcpt.obj
 0003:0011e780       ??_R0?AV__non_rtti_object@std@@@8 0000000140246780     LIBCMT:stdexcpt.obj
 0003:0011e7b0       _sys_errlist               00000001402467b0     LIBCMT:syserr.obj
 0003:0011e910       _sys_nerr                  0000000140246910     LIBCMT:syserr.obj
 0003:0011e918       __nullstring               0000000140246918     LIBCMT:output.obj
 0003:0011e920       __wnullstring              0000000140246920     LIBCMT:output.obj
 0003:0011e930       __badioinfo                0000000140246930     LIBCMT:ioinit.obj
 0003:0011ebd0       _XcptActTab                0000000140246bd0     LIBCMT:winxfltr.obj
 0003:0011ec70       _First_FPE_Indx            0000000140246c70     LIBCMT:winxfltr.obj
 0003:0011ec74       _Num_FPE                   0000000140246c74     LIBCMT:winxfltr.obj
 0003:0011ec78       _XcptActTabSize            0000000140246c78     LIBCMT:winxfltr.obj
 0003:0011ec7c       _XcptActTabCount           0000000140246c7c     LIBCMT:winxfltr.obj
 0003:0011ec80       __initialmbcinfo           0000000140246c80     LIBCMT:mbctype.obj
 0003:0011eea0       _mbctype                   0000000140246ea0     LIBCMT:mbctype.obj
 0003:0011efb0       _mbcasemap                 0000000140246fb0     LIBCMT:mbctype.obj
 0003:0011f0b0       __ptmbcinfo                00000001402470b0     LIBCMT:mbctype.obj
 0003:0011f1b8       __globallocalestatus       00000001402471b8     LIBCMT:glstatus.obj
 0003:0011f1c0       __clocalestr               00000001402471c0     LIBCMT:nlsdata2.obj
 0003:0011f1d0       __initiallocinfo           00000001402471d0     LIBCMT:nlsdata2.obj
 0003:0011f330       __ptlocinfo                0000000140247330     LIBCMT:nlsdata2.obj
 0003:0011f338       __lc_clike                 0000000140247338     LIBCMT:nlsdata2.obj
 0003:0011f340       __initiallocalestructinfo  0000000140247340     LIBCMT:nlsdata2.obj
 0003:0011f350       _coninpfh                  0000000140247350     LIBCMT:initcon.obj
 0003:0011f358       _confh                     0000000140247358     LIBCMT:initcon.obj
 0003:0011f360       _amblksiz                  0000000140247360     LIBCMT:heapinit.obj
 0003:0011f370       _timezone                  0000000140247370     LIBCMT:timeset.obj
 0003:0011f374       _daylight                  0000000140247374     LIBCMT:timeset.obj
 0003:0011f378       _dstbias                   0000000140247378     LIBCMT:timeset.obj
 0003:0011f400       _tzname                    0000000140247400     LIBCMT:timeset.obj
 0003:0011f410       _lpdays                    0000000140247410     LIBCMT:days.obj
 0003:0011f448       _days                      0000000140247448     LIBCMT:days.obj
 0003:0011f480       _lookuptrailbytes          0000000140247480     LIBCMT:read.obj
 0003:0011f580       ??_R0?AVDNameNode@@@8      0000000140247580     LIBCMT:undname.obj
 0003:0011f5a0       ??_R0?AVcharNode@@@8       00000001402475a0     LIBCMT:undname.obj
 0003:0011f5c0       ??_R0?AVpDNameNode@@@8     00000001402475c0     LIBCMT:undname.obj
 0003:0011f5e8       ??_R0?AVDNameStatusNode@@@8 00000001402475e8     LIBCMT:undname.obj
 0003:0011f610       ??_R0?AVpcharNode@@@8      0000000140247610     LIBCMT:undname.obj
 0003:0011f810       _matherr_flag              0000000140247810     LIBCMT:matherr.obj
 0003:0011f818       _pctype                    0000000140247818     LIBCMT:ctype.obj
 0003:0011f820       _pwctype                   0000000140247820     LIBCMT:ctype.obj
 0003:0011f830       __lc_time_c                0000000140247830     LIBCMT:strftime.obj
 0003:0011f998       __lc_time_curr             0000000140247998     LIBCMT:strftime.obj
 0003:0011f9a0       __lconv_static_decimal     00000001402479a0     LIBCMT:lconv.obj
 0003:0011f9b0       __lconv_c                  00000001402479b0     LIBCMT:lconv.obj
 0003:0011fa08       __lconv                    0000000140247a08     LIBCMT:lconv.obj
 0003:0011fa10       __mb_cur_max               0000000140247a10     LIBCMT:nlsdata1.obj
 0003:0011fa14       __decimal_point            0000000140247a14     LIBCMT:nlsdata1.obj
 0003:0011fa18       __decimal_point_length     0000000140247a18     LIBCMT:nlsdata1.obj
 0003:0011fa50       _d_inf                     0000000140247a50     LIBCMT:util.obj
 0003:0011fa58       _d_ind                     0000000140247a58     LIBCMT:util.obj
 0003:0011fa60       _d_max                     0000000140247a60     LIBCMT:util.obj
 0003:0011fa68       _d_min                     0000000140247a68     LIBCMT:util.obj
 0003:0011fa70       _d_mzero                   0000000140247a70     LIBCMT:util.obj
 0003:0011fa80       _pow10pos                  0000000140247a80     LIBCMT:constpow.obj
 0003:0011fbe0       _pow10neg                  0000000140247be0     LIBCMT:constpow.obj
 0003:0011fd40       ??_R0?AVHASH64withTransform@TaoCrypt@@@8 0000000140247d40     taocrypt:hash.obj
 0003:0011fd80       ??_R0?AVMultiplicativeGroupT@AbstractRing@TaoCrypt@@@8 0000000140247d80     taocrypt:integer.obj
 0003:0011fdc8       ??_R0?AVAbstractGroup@TaoCrypt@@@8 0000000140247dc8     taocrypt:integer.obj
 0003:0011fdf8       ??_R0?AVModularArithmetic@TaoCrypt@@@8 0000000140247df8     taocrypt:integer.obj
 0003:0011fe30       ??_R0?AVAbstractRing@TaoCrypt@@@8 0000000140247e30     taocrypt:integer.obj
 0003:0011fe60       ??_R0?AVMontgomeryRepresentation@TaoCrypt@@@8 0000000140247e60     taocrypt:integer.obj
 0003:0011fe98       ??_R0?AVEuclideanDomainOf@TaoCrypt@@@8 0000000140247e98     taocrypt:integer.obj
 0003:0011fed0       ??_R0?AVAbstractEuclideanDomain@TaoCrypt@@@8 0000000140247ed0     taocrypt:integer.obj
 0003:0011ff08       ??_R0?AVSHA256@TaoCrypt@@@8 0000000140247f08     taocrypt:sha.obj
 0003:0011ff30       ??_R0?AVSHA224@TaoCrypt@@@8 0000000140247f30     taocrypt:sha.obj
 0003:0011ff58       ??_R0?AVSHA512@TaoCrypt@@@8 0000000140247f58     taocrypt:sha.obj
 0003:0011ff80       ??_R0?AVSHA384@TaoCrypt@@@8 0000000140247f80     taocrypt:sha.obj
 0003:0011ffa8       ?Te0@AES@TaoCrypt@@0PEBIEB 0000000140247fa8     taocrypt:aes.obj
 0003:0011ffb0       ?Te1@AES@TaoCrypt@@0PEBIEB 0000000140247fb0     taocrypt:aes.obj
 0003:0011ffb8       ?Te2@AES@TaoCrypt@@0PEBIEB 0000000140247fb8     taocrypt:aes.obj
 0003:0011ffc0       ?Te3@AES@TaoCrypt@@0PEBIEB 0000000140247fc0     taocrypt:aes.obj
 0003:0011ffc8       ?Te4@AES@TaoCrypt@@0PEBIEB 0000000140247fc8     taocrypt:aes.obj
 0003:0011ffd0       ?Td0@AES@TaoCrypt@@0PEBIEB 0000000140247fd0     taocrypt:aes.obj
 0003:0011ffd8       ?Td1@AES@TaoCrypt@@0PEBIEB 0000000140247fd8     taocrypt:aes.obj
 0003:0011ffe0       ?Td2@AES@TaoCrypt@@0PEBIEB 0000000140247fe0     taocrypt:aes.obj
 0003:0011ffe8       ?Td3@AES@TaoCrypt@@0PEBIEB 0000000140247fe8     taocrypt:aes.obj
 0003:0011fff0       ?Td4@AES@TaoCrypt@@0PEBIEB 0000000140247ff0     taocrypt:aes.obj
 0003:00120000       ??_R0?AVBER_Decoder@TaoCrypt@@@8 0000000140248000     taocrypt:dsa.obj
 0003:00120030       ??_R0?AVDSA_Private_Decoder@TaoCrypt@@@8 0000000140248030     taocrypt:dsa.obj
 0003:00120068       ??_R0?AVDSA_Public_Decoder@TaoCrypt@@@8 0000000140248068     taocrypt:dsa.obj
 0003:001200a8       ??_R0?AVDH_Decoder@TaoCrypt@@@8 00000001402480a8     taocrypt:dh.obj
 0003:001200e0       ??_R0?AVRSA_Private_Decoder@TaoCrypt@@@8 00000001402480e0     taocrypt:rsa.obj
 0003:00120118       ??_R0?AVRSA_Public_Decoder@TaoCrypt@@@8 0000000140248118     taocrypt:rsa.obj
 0003:00120158       ??_R0?AVPKCS12_Decoder@TaoCrypt@@@8 0000000140248158     taocrypt:asn.obj
 0003:00120188       ??_R0?AVDER_Encoder@TaoCrypt@@@8 0000000140248188     taocrypt:asn.obj
 0003:001201b8       ??_R0?AVCertDecoder@TaoCrypt@@@8 00000001402481b8     taocrypt:asn.obj
 0003:001201e8       ??_R0?AVSignature_Encoder@TaoCrypt@@@8 00000001402481e8     taocrypt:asn.obj
 0003:00120228       ??_R0?AVMD2@TaoCrypt@@@8   0000000140248228     taocrypt:md2.obj
 0003:001594c0       ?p_guardian@Manager@@0PEAVGuardian@@EA 00000001402814c0     manager.obj
 0003:001594c8       ?p_user_map@Manager@@0PEAVUser_map@@EA 00000001402814c8     manager.obj
 0003:001594d0       ?p_thread_registry@Manager@@0PEAVThread_registry@@EA 00000001402814d0     manager.obj
 0003:001594d8       ?have_signal@@3_NA         00000001402814d8     manager.obj
 0003:001594e0       ?p_instance_map@Manager@@0PEAVInstance_map@@EA 00000001402814e0     manager.obj
 0003:001594f0       ?remove_service@Service@Options@@2DA 00000001402814f0     options.obj
 0003:001594f1       ?install_as_service@Service@Options@@2DA 00000001402814f1     options.obj
 0003:001594f2       ?stand_alone@Service@Options@@2DA 00000001402814f2     options.obj
 0003:00159d00       ?is_forced_default_file@Main@Options@@2_NA 0000000140281d00     options.obj
 0003:00159d01       ?mysqld_safe_compatible@Main@Options@@2DA 0000000140281d01     options.obj
 0003:00159d08       ?bind_address@Main@Options@@2PEBDEB 0000000140281d08     options.obj
 0003:00159d10       ?default_directories@Options@@2PEAPEBDEA 0000000140281d10     options.obj
 0003:00159d18       ?user_name@User_management@Options@@2PEADEA 0000000140281d18     options.obj
 0003:00159d20       ?password@User_management@Options@@2PEADEA 0000000140281d20     options.obj
 0003:00159d28       ?cmd@User_management@Options@@2PEAVUser_management_cmd@@EA 0000000140281d28     options.obj
 0003:00159d30       ?saved_argv@Options@@0PEAPEADEA 0000000140281d30     options.obj
 0003:00159ee0       ?open_files_limit@@3KA     0000000140281ee0     priv.obj
 0003:00159ee4       ?test_flags@@3IA           0000000140281ee4     priv.obj
 0003:00159ee8       ?bytes_sent@@3KA           0000000140281ee8     priv.obj
 0003:00159eec       ?bytes_received@@3KA       0000000140281eec     priv.obj
 0003:0015a660       mysql_port                 0000000140282660     client.obj
 0003:0015a668       mysql_unix_port            0000000140282668     client.obj
 0003:0015a680       charsets_dir               0000000140282680     mysys:charset.obj
 0003:0015a690       all_charsets               0000000140282690     mysys:charset.obj
 0003:0015ae98       my_defaults_file           0000000140282e98     mysys:default.obj
 0003:0015aea0       my_defaults_group_suffix   0000000140282ea0     mysys:default.obj
 0003:0015aea8       my_defaults_extra_file     0000000140282ea8     mysys:default.obj
 0003:0015aeb8       THR_thread_count           0000000140282eb8     mysys:my_thr_init.obj
 0003:0015aec0       timed_mutexes              0000000140282ec0     mysys:my_static.obj
 0003:0015aec1       my_disable_locking         0000000140282ec1     mysys:my_static.obj
 0003:0015aec2       my_disable_async_io        0000000140282ec2     mysys:my_static.obj
 0003:0015aec3       my_disable_flush_key_blocks 0000000140282ec3     mysys:my_static.obj
 0003:0015aec4       my_stream_opened           0000000140282ec4     mysys:my_static.obj
 0003:0015aec8       home_dir                   0000000140282ec8     mysys:my_static.obj
 0003:0015aed0       my_progname                0000000140282ed0     mysys:my_static.obj
 0003:0015aed8       my_file_opened             0000000140282ed8     mysys:my_static.obj
 0003:0015aedc       my_tmp_file_created        0000000140282edc     mysys:my_static.obj
 0003:0015aee0       curr_dir                   0000000140282ee0     mysys:my_static.obj
 0003:0015b0e0       home_dir_buff              00000001402830e0     mysys:my_static.obj
 0003:0015b2e0       my_file_total_opened       00000001402832e0     mysys:my_static.obj
 0003:0015b2e4       my_dont_interrupt          00000001402832e4     mysys:my_static.obj
 0003:0015b2e8       _my_signals                00000001402832e8     mysys:my_static.obj
 0003:0015b2ec       sf_malloc_prehunc          00000001402832ec     mysys:my_static.obj
 0003:0015b2f0       my_file_info_default       00000001402832f0     mysys:my_static.obj
 0003:0015c0f0       _my_sig_remember           00000001402840f0     mysys:my_static.obj
 0003:0015c190       my_once_root_block         0000000140284190     mysys:my_static.obj
 0003:0015c198       sf_malloc_endhunc          0000000140284198     mysys:my_static.obj
 0003:0015c19c       sf_malloc_quick            000000014028419c     mysys:my_static.obj
 0003:0015c1a0       sf_malloc_cur_memory       00000001402841a0     mysys:my_static.obj
 0003:0015c1a8       sf_malloc_max_memory       00000001402841a8     mysys:my_static.obj
 0003:0015c1b0       sf_malloc_count            00000001402841b0     mysys:my_static.obj
 0003:0015c1b4       my_have_got_alarm          00000001402841b4     mysys:my_static.obj
 0003:0015c1b8       sf_max_adress              00000001402841b8     mysys:my_static.obj
 0003:0015c1c0       sf_malloc_root             00000001402841c0     mysys:my_static.obj
 0003:0015c1c8       my_disable_symlinks        00000001402841c8     mysys:my_static.obj
 0003:0015c1c9       mysys_uses_curses          00000001402841c9     mysys:my_static.obj
 0003:0015c1cc       have_tcpip                 00000001402841cc     mysys:my_init.obj
 0003:0015c1cd       my_init_done               00000001402841cd     mysys:my_init.obj
 0003:0015c1d0       mysys_usage_id             00000001402841d0     mysys:my_init.obj
 0003:0015c1e0       my_getopt_skip_unknown     00000001402841e0     mysys:my_getopt.obj
 0003:0015c1e4       thd_lib_detected           00000001402841e4     mysys:my_pthread.obj
 0003:0015c210       thr_alarm_inited           0000000140284210     mysys:thr_alarm.obj
 0003:0015c211       alarm_thread_running       0000000140284211     mysys:thr_alarm.obj
 0003:0015c212       my_use_symdir              0000000140284212     mysys:mf_pack.obj
 0003:0015c244       __fastflag                 0000000140284244     LIBCMT:fpinit.obj
 0003:0015c270       _cflush                    0000000140284270     LIBCMT:_file.obj
 0003:0015c278       _umaskval                  0000000140284278     LIBCMT:crt0dat.obj
 0003:0015c27c       _osplatform                000000014028427c     LIBCMT:crt0dat.obj
 0003:0015c280       _osver                     0000000140284280     LIBCMT:crt0dat.obj
 0003:0015c284       _winver                    0000000140284284     LIBCMT:crt0dat.obj
 0003:0015c288       _winmajor                  0000000140284288     LIBCMT:crt0dat.obj
 0003:0015c28c       _winminor                  000000014028428c     LIBCMT:crt0dat.obj
 0003:0015c290       __argc                     0000000140284290     LIBCMT:crt0dat.obj
 0003:0015c294       _exitflag                  0000000140284294     LIBCMT:crt0dat.obj
 0003:0015c298       __argv                     0000000140284298     LIBCMT:crt0dat.obj
 0003:0015c2a0       __wargv                    00000001402842a0     LIBCMT:crt0dat.obj
 0003:0015c2a8       _environ                   00000001402842a8     LIBCMT:crt0dat.obj
 0003:0015c2b0       __initenv                  00000001402842b0     LIBCMT:crt0dat.obj
 0003:0015c2b8       _wenviron                  00000001402842b8     LIBCMT:crt0dat.obj
 0003:0015c2c0       __winitenv                 00000001402842c0     LIBCMT:crt0dat.obj
 0003:0015c2c8       _pgmptr                    00000001402842c8     LIBCMT:crt0dat.obj
 0003:0015c2d0       _wpgmptr                   00000001402842d0     LIBCMT:crt0dat.obj
 0003:0015c2d8       _C_Termination_Done        00000001402842d8     LIBCMT:crt0dat.obj
 0003:0015c2dc       _C_Exit_Done               00000001402842dc     LIBCMT:crt0dat.obj
 0003:0015c308       _aenvptr                   0000000140284308     LIBCMT:crt0.obj
 0003:0015c310       _wenvptr                   0000000140284310     LIBCMT:crt0.obj
 0003:0015c318       __error_mode               0000000140284318     LIBCMT:crt0.obj
 0003:0015c31c       _tls_index                 000000014028431c     LIBCMT:tlssup.obj
 0003:0015c3e0       __pInvalidArgHandler       00000001402843e0     LIBCMT:invarg.obj
 0003:0015c720       __pPurecall                0000000140284720     LIBCMT:inithelp.obj
 0003:0015cca0       ?_pnhHeap@@3P6AH_K@ZEA     0000000140284ca0     LIBCMT:handler.obj
 0003:0015cca8       _maxwait                   0000000140284ca8     LIBCMT:crtheap.obj
 0003:0015ccb0       _stdbuf                    0000000140284cb0     LIBCMT:_sftbuf.obj
 0003:0015cef0       ?__pInconsistency@@3P6AXXZEA 0000000140284ef0     LIBCMT:hooks.obj
 0003:0015cf10       __mbulinfo                 0000000140284f10     LIBCMT:mbctype.obj
 0003:0015cf1c       __mbcodepage               0000000140284f1c     LIBCMT:mbctype.obj
 0003:0015cf20       __ismbcodepage             0000000140284f20     LIBCMT:mbctype.obj
 0003:0015cf24       __mblcid                   0000000140284f24     LIBCMT:mbctype.obj
 0003:0015cf28       __locale_changed           0000000140284f28     LIBCMT:setlocal.obj
 0003:0015cf30       __lc_handle                0000000140284f30     LIBCMT:nlsdata2.obj
 0003:0015cf48       __lc_codepage              0000000140284f48     LIBCMT:nlsdata2.obj
 0003:0015cf4c       __lc_collate_cp            0000000140284f4c     LIBCMT:nlsdata2.obj
 0003:0015d060       _crtheap                   0000000140285060     LIBCMT:heapinit.obj
 0003:0015d068       _newmode                   0000000140285068     LIBCMT:_newmode.obj
 0003:0015d06c       _outputformat              000000014028506c     LIBCMT:outputformat.obj
 0003:0015d070       ?pArgList@UnDecorator@@0PEAVReplicator@@EA 0000000140285070     LIBCMT:undname.obj
 0003:0015d0a0       ?pZNameList@UnDecorator@@0PEAVReplicator@@EA 00000001402850a0     LIBCMT:undname.obj
 0003:0015d0a8       ?pTemplateArgList@UnDecorator@@0PEAVReplicator@@EA 00000001402850a8     LIBCMT:undname.obj
 0003:0015d0b0       ?gName@UnDecorator@@0PEBDEB 00000001402850b0     LIBCMT:undname.obj
 0003:0015d0b8       ?name@UnDecorator@@0PEBDEB 00000001402850b8     LIBCMT:undname.obj
 0003:0015d0c0       ?outputString@UnDecorator@@0PEADEA 00000001402850c0     LIBCMT:undname.obj
 0003:0015d0c8       ?maxStringLength@UnDecorator@@0HA 00000001402850c8     LIBCMT:undname.obj
 0003:0015d0cc       ?disableFlags@UnDecorator@@0KA 00000001402850cc     LIBCMT:undname.obj
 0003:0015d0d0       ?m_pGetParameter@UnDecorator@@0P6APEADJ@ZEA 00000001402850d0     LIBCMT:undname.obj
 0003:0015d0d8       ?fExplicitTemplateParams@UnDecorator@@0_NA 00000001402850d8     LIBCMT:undname.obj
 0003:0015d0d9       ?fGetTemplateArgumentList@UnDecorator@@0_NA 00000001402850d9     LIBCMT:undname.obj
 0003:0015d11c       __lconv_static_null        000000014028511c     LIBCMT:lconv.obj
 0003:0015d120       _commode                   0000000140285120     LIBCMT:ncommode.obj
 0003:0015d128       _fmode                     0000000140285128     LIBCMT:txtmode.obj
 0003:0015d180       mysql_server_last_error    0000000140285180     <common>
 0003:0015d3f0       mysql_server_last_errno    00000001402853f0     <common>
 0003:0015d3f4       thr_client_alarm           00000001402853f4     <common>
 0003:0015d400       query_performance_frequency 0000000140285400     <common>
 0003:0015d414       my_signals                 0000000140285414     <common>
 0003:0015d418       query_performance_offset   0000000140285418     <common>
 0003:0015d420       THR_LOCK_threads           0000000140285420     <common>
 0003:0015d4e0       LOCK_gethostbyname_r       00000001402854e0     <common>
 0003:0015d520       THR_LOCK_myisam_mmap       0000000140285520     <common>
 0003:0015d560       THR_LOCK_time              0000000140285560     <common>
 0003:0015d5a0       THR_COND_threads           00000001402855a0     <common>
 0003:0015d600       THR_LOCK_malloc            0000000140285600     <common>
 0003:0015d640       THR_LOCK_isam              0000000140285640     <common>
 0003:0015d680       THR_LOCK_myisam            0000000140285680     <common>
 0003:0015d6c0       THR_LOCK_heap              00000001402856c0     <common>
 0003:0015d700       THR_LOCK_open              0000000140285700     <common>
 0003:0015d740       THR_LOCK_charset           0000000140285740     <common>
 0003:0015d780       THR_LOCK_lock              0000000140285780     <common>
 0003:0015d7c0       LOCK_localtime_r           00000001402857c0     <common>
 0003:0015d800       THR_LOCK_net               0000000140285800     <common>
 0003:0015d828       _debugger_hook_dummy       0000000140285828     <common>
 0003:0015d834       __setlc_active             0000000140285834     <common>
 0003:0015d844       __unguarded_readlc_active  0000000140285844     <common>
 0003:0015d848       _nhandle                   0000000140285848     <common>
 0003:0015d8c0       __pioinfo                  00000001402858c0     <common>
 0003:0015dac0       _pDestructExceptionObject  0000000140285ac0     <common>
 0003:0015dad8       _acmdln                    0000000140285ad8     <common>
 0003:0015daec       __env_initialized          0000000140285aec     <common>
 0003:0015db00       __onexitend                0000000140285b00     <common>
 0003:0015db08       __onexitbegin              0000000140285b08     <common>
 0003:0015db10       __mbctype_initialized      0000000140285b10     <common>
 0003:0015db18       __dyn_tls_init_callback    0000000140285b18     <common>
 0003:0015db20       __piob                     0000000140285b20     <common>
 0003:0015de80       _bufin                     0000000140285e80     <common>
 0003:0015ee80       _nstream                   0000000140286e80     <common>
 0005:00000000       __IMPORT_DESCRIPTOR_KERNEL32 0000000140295000     kernel32:KERNEL32.dll
 0005:00000014       __IMPORT_DESCRIPTOR_ADVAPI32 0000000140295014     advapi32:ADVAPI32.dll
 0005:00000028       __IMPORT_DESCRIPTOR_WSOCK32 0000000140295028     wsock32:WSOCK32.dll
 0005:0000003c       __IMPORT_DESCRIPTOR_USER32 000000014029503c     user32:USER32.dll
 0005:00000050       __NULL_IMPORT_DESCRIPTOR   0000000140295050     kernel32:KERNEL32.dll
 0005:00000890       __imp_CryptGenRandom       0000000140295890     advapi32:ADVAPI32.dll
 0005:00000898       __imp_RegEnumValueA        0000000140295898     advapi32:ADVAPI32.dll
 0005:000008a0       __imp_RegOpenKeyExA        00000001402958a0     advapi32:ADVAPI32.dll
 0005:000008a8       __imp_CryptAcquireContextA 00000001402958a8     advapi32:ADVAPI32.dll
 0005:000008b0       __imp_CryptReleaseContext  00000001402958b0     advapi32:ADVAPI32.dll
 0005:000008b8       __imp_StartServiceCtrlDispatcherA 00000001402958b8     advapi32:ADVAPI32.dll
 0005:000008c0       __imp_RegisterServiceCtrlHandlerA 00000001402958c0     advapi32:ADVAPI32.dll
 0005:000008c8       __imp_DeleteService        00000001402958c8     advapi32:ADVAPI32.dll
 0005:000008d0       __imp_CreateServiceA       00000001402958d0     advapi32:ADVAPI32.dll
 0005:000008d8       __imp_SetServiceStatus     00000001402958d8     advapi32:ADVAPI32.dll
 0005:000008e0       __imp_OpenSCManagerA       00000001402958e0     advapi32:ADVAPI32.dll
 0005:000008e8       __imp_OpenServiceA         00000001402958e8     advapi32:ADVAPI32.dll
 0005:000008f0       __imp_CloseServiceHandle   00000001402958f0     advapi32:ADVAPI32.dll
 0005:000008f8       __imp_RegCloseKey          00000001402958f8     advapi32:ADVAPI32.dll
 0005:00000900       \177ADVAPI32_NULL_THUNK_DATA 0000000140295900     advapi32:ADVAPI32.dll
 0005:00000968       __imp_GetModuleHandleA     0000000140295968     kernel32:KERNEL32.dll
 0005:00000970       __imp_TerminateProcess     0000000140295970     kernel32:KERNEL32.dll
 0005:00000978       __imp_OpenProcess          0000000140295978     kernel32:KERNEL32.dll
 0005:00000980       __imp_GetCurrentThreadId   0000000140295980     kernel32:KERNEL32.dll
 0005:00000988       __imp_Sleep                0000000140295988     kernel32:KERNEL32.dll
 0005:00000990       __imp_GetFullPathNameA     0000000140295990     kernel32:KERNEL32.dll
 0005:00000998       __imp_GetModuleFileNameA   0000000140295998     kernel32:KERNEL32.dll
 0005:000009a0       __imp_SetHandleInformation 00000001402959a0     kernel32:KERNEL32.dll
 0005:000009a8       __imp_GetCurrentProcess    00000001402959a8     kernel32:KERNEL32.dll
 0005:000009b0       __imp_ReadFile             00000001402959b0     kernel32:KERNEL32.dll
 0005:000009b8       __imp_SetNamedPipeHandleState 00000001402959b8     kernel32:KERNEL32.dll
 0005:000009c0       __imp_WaitNamedPipeA       00000001402959c0     kernel32:KERNEL32.dll
 0005:000009c8       __imp_CreateFileA          00000001402959c8     kernel32:KERNEL32.dll
 0005:000009d0       __imp_DuplicateHandle      00000001402959d0     kernel32:KERNEL32.dll
 0005:000009d8       __imp_GetProcAddress       00000001402959d8     kernel32:KERNEL32.dll
 0005:000009e0       __imp_CreateRemoteThread   00000001402959e0     kernel32:KERNEL32.dll
 0005:000009e8       __imp_GetLastError         00000001402959e8     kernel32:KERNEL32.dll
 0005:000009f0       __imp_SetLastError         00000001402959f0     kernel32:KERNEL32.dll
 0005:000009f8       __imp_CreateProcessA       00000001402959f8     kernel32:KERNEL32.dll
 0005:00000a00       __imp_WaitForSingleObject  0000000140295a00     kernel32:KERNEL32.dll
 0005:00000a08       __imp_GetExitCodeProcess   0000000140295a08     kernel32:KERNEL32.dll
 0005:00000a10       __imp_CloseHandle          0000000140295a10     kernel32:KERNEL32.dll
 0005:00000a18       __imp_GetSystemTimeAsFileTime 0000000140295a18     kernel32:KERNEL32.dll
 0005:00000a20       __imp_DeleteCriticalSection 0000000140295a20     kernel32:KERNEL32.dll
 0005:00000a28       __imp_LoadLibraryW         0000000140295a28     kernel32:KERNEL32.dll
 0005:00000a30       __imp_SetEnvironmentVariableW 0000000140295a30     kernel32:KERNEL32.dll
 0005:00000a38       __imp_GetModuleFileNameW   0000000140295a38     kernel32:KERNEL32.dll
 0005:00000a40       __imp_DebugBreak           0000000140295a40     kernel32:KERNEL32.dll
 0005:00000a48       __imp_LeaveCriticalSection 0000000140295a48     kernel32:KERNEL32.dll
 0005:00000a50       __imp_EnterCriticalSection 0000000140295a50     kernel32:KERNEL32.dll
 0005:00000a58       __imp_CreatePipe           0000000140295a58     kernel32:KERNEL32.dll
 0005:00000a60       __imp_IsValidLocale        0000000140295a60     kernel32:KERNEL32.dll
 0005:00000a68       __imp_EnumSystemLocalesA   0000000140295a68     kernel32:KERNEL32.dll
 0005:00000a70       __imp_GetUserDefaultLCID   0000000140295a70     kernel32:KERNEL32.dll
 0005:00000a78       __imp_GetTimeFormatA       0000000140295a78     kernel32:KERNEL32.dll
 0005:00000a80       __imp_GetDateFormatA       0000000140295a80     kernel32:KERNEL32.dll
 0005:00000a88       __imp_GetStringTypeW       0000000140295a88     kernel32:KERNEL32.dll
 0005:00000a90       __imp_GetStringTypeA       0000000140295a90     kernel32:KERNEL32.dll
 0005:00000a98       __imp_SetEnvironmentVariableA 0000000140295a98     kernel32:KERNEL32.dll
 0005:00000aa0       __imp_CompareStringW       0000000140295aa0     kernel32:KERNEL32.dll
 0005:00000aa8       __imp_CompareStringA       0000000140295aa8     kernel32:KERNEL32.dll
 0005:00000ab0       __imp_WriteConsoleW        0000000140295ab0     kernel32:KERNEL32.dll
 0005:00000ab8       __imp_GetConsoleOutputCP   0000000140295ab8     kernel32:KERNEL32.dll
 0005:00000ac0       __imp_WriteConsoleA        0000000140295ac0     kernel32:KERNEL32.dll
 0005:00000ac8       __imp_LCMapStringW         0000000140295ac8     kernel32:KERNEL32.dll
 0005:00000ad0       __imp_LCMapStringA         0000000140295ad0     kernel32:KERNEL32.dll
 0005:00000ad8       __imp_GetLocaleInfoW       0000000140295ad8     kernel32:KERNEL32.dll
 0005:00000ae0       __imp_GetLocaleInfoA       0000000140295ae0     kernel32:KERNEL32.dll
 0005:00000ae8       __imp_CreateEventA         0000000140295ae8     kernel32:KERNEL32.dll
 0005:00000af0       __imp_SetEvent             0000000140295af0     kernel32:KERNEL32.dll
 0005:00000af8       __imp_ResetEvent           0000000140295af8     kernel32:KERNEL32.dll
 0005:00000b00       __imp_WaitForMultipleObjects 0000000140295b00     kernel32:KERNEL32.dll
 0005:00000b08       __imp_GetFileAttributesExA 0000000140295b08     kernel32:KERNEL32.dll
 0005:00000b10       __imp_GetSystemDirectoryA  0000000140295b10     kernel32:KERNEL32.dll
 0005:00000b18       __imp_GetWindowsDirectoryA 0000000140295b18     kernel32:KERNEL32.dll
 0005:00000b20       __imp_DeleteFileA          0000000140295b20     kernel32:KERNEL32.dll
 0005:00000b28       __imp_MoveFileA            0000000140295b28     kernel32:KERNEL32.dll
 0005:00000b30       __imp_GetTickCount         0000000140295b30     kernel32:KERNEL32.dll
 0005:00000b38       __imp_QueryPerformanceCounter 0000000140295b38     kernel32:KERNEL32.dll
 0005:00000b40       __imp_QueryPerformanceFrequency 0000000140295b40     kernel32:KERNEL32.dll
 0005:00000b48       __imp_TryEnterCriticalSection 0000000140295b48     kernel32:KERNEL32.dll
 0005:00000b50       __imp_SetThreadPriority    0000000140295b50     kernel32:KERNEL32.dll
 0005:00000b58       __imp_SetEndOfFile         0000000140295b58     kernel32:KERNEL32.dll
 0005:00000b60       __imp_SetFilePointer       0000000140295b60     kernel32:KERNEL32.dll
 0005:00000b68       __imp_GetFileAttributesA   0000000140295b68     kernel32:KERNEL32.dll
 0005:00000b70       __imp_GetOverlappedResult  0000000140295b70     kernel32:KERNEL32.dll
 0005:00000b78       __imp_CancelIo             0000000140295b78     kernel32:KERNEL32.dll
 0005:00000b80       __imp_WriteFile            0000000140295b80     kernel32:KERNEL32.dll
 0005:00000b88       __imp_DisconnectNamedPipe  0000000140295b88     kernel32:KERNEL32.dll
 0005:00000b90       __imp_UnmapViewOfFile      0000000140295b90     kernel32:KERNEL32.dll
 0005:00000b98       __imp_FindClose            0000000140295b98     kernel32:KERNEL32.dll
 0005:00000ba0       __imp_FindNextFileA        0000000140295ba0     kernel32:KERNEL32.dll
 0005:00000ba8       __imp_FindFirstFileA       0000000140295ba8     kernel32:KERNEL32.dll
 0005:00000bb0       __imp_FileTimeToSystemTime 0000000140295bb0     kernel32:KERNEL32.dll
 0005:00000bb8       __imp_FileTimeToLocalFileTime 0000000140295bb8     kernel32:KERNEL32.dll
 0005:00000bc0       __imp_GetDriveTypeA        0000000140295bc0     kernel32:KERNEL32.dll
 0005:00000bc8       __imp_ExitProcess          0000000140295bc8     kernel32:KERNEL32.dll
 0005:00000bd0       __imp_SetConsoleCtrlHandler 0000000140295bd0     kernel32:KERNEL32.dll
 0005:00000bd8       __imp_ReadConsoleInputA    0000000140295bd8     kernel32:KERNEL32.dll
 0005:00000be0       __imp_SetConsoleMode       0000000140295be0     kernel32:KERNEL32.dll
 0005:00000be8       __imp_GetConsoleMode       0000000140295be8     kernel32:KERNEL32.dll
 0005:00000bf0       __imp_PeekConsoleInputA    0000000140295bf0     kernel32:KERNEL32.dll
 0005:00000bf8       __imp_GetNumberOfConsoleInputEvents 0000000140295bf8     kernel32:KERNEL32.dll
 0005:00000c00       __imp_GetCommandLineA      0000000140295c00     kernel32:KERNEL32.dll
 0005:00000c08       __imp_HeapFree             0000000140295c08     kernel32:KERNEL32.dll
 0005:00000c10       __imp_GetVersionExA        0000000140295c10     kernel32:KERNEL32.dll
 0005:00000c18       __imp_HeapAlloc            0000000140295c18     kernel32:KERNEL32.dll
 0005:00000c20       __imp_GetProcessHeap       0000000140295c20     kernel32:KERNEL32.dll
 0005:00000c28       __imp_HeapReAlloc          0000000140295c28     kernel32:KERNEL32.dll
 0005:00000c30       __imp_GetFileInformationByHandle 0000000140295c30     kernel32:KERNEL32.dll
 0005:00000c38       __imp_PeekNamedPipe        0000000140295c38     kernel32:KERNEL32.dll
 0005:00000c40       __imp_GetFileType          0000000140295c40     kernel32:KERNEL32.dll
 0005:00000c48       __imp_SetStdHandle         0000000140295c48     kernel32:KERNEL32.dll
 0005:00000c50       __imp_WideCharToMultiByte  0000000140295c50     kernel32:KERNEL32.dll
 0005:00000c58       __imp_GetTimeZoneInformation 0000000140295c58     kernel32:KERNEL32.dll
 0005:00000c60       __imp_UnhandledExceptionFilter 0000000140295c60     kernel32:KERNEL32.dll
 0005:00000c68       __imp_SetUnhandledExceptionFilter 0000000140295c68     kernel32:KERNEL32.dll
 0005:00000c70       __imp_IsDebuggerPresent    0000000140295c70     kernel32:KERNEL32.dll
 0005:00000c78       __imp_RtlCaptureContext    0000000140295c78     kernel32:KERNEL32.dll
 0005:00000c80       __imp_ExitThread           0000000140295c80     kernel32:KERNEL32.dll
 0005:00000c88       __imp_ResumeThread         0000000140295c88     kernel32:KERNEL32.dll
 0005:00000c90       __imp_CreateThread         0000000140295c90     kernel32:KERNEL32.dll
 0005:00000c98       __imp_FlushFileBuffers     0000000140295c98     kernel32:KERNEL32.dll
 0005:00000ca0       __imp_GetStdHandle         0000000140295ca0     kernel32:KERNEL32.dll
 0005:00000ca8       __imp_FlsGetValue          0000000140295ca8     kernel32:KERNEL32.dll
 0005:00000cb0       __imp_TlsAlloc             0000000140295cb0     kernel32:KERNEL32.dll
 0005:00000cb8       __imp_FlsSetValue          0000000140295cb8     kernel32:KERNEL32.dll
 0005:00000cc0       __imp_TlsFree              0000000140295cc0     kernel32:KERNEL32.dll
 0005:00000cc8       __imp_FlsFree              0000000140295cc8     kernel32:KERNEL32.dll
 0005:00000cd0       __imp_TlsSetValue          0000000140295cd0     kernel32:KERNEL32.dll
 0005:00000cd8       __imp_GetCurrentThread     0000000140295cd8     kernel32:KERNEL32.dll
 0005:00000ce0       __imp_FlsAlloc             0000000140295ce0     kernel32:KERNEL32.dll
 0005:00000ce8       __imp_GetCurrentDirectoryA 0000000140295ce8     kernel32:KERNEL32.dll
 0005:00000cf0       __imp_SetCurrentDirectoryA 0000000140295cf0     kernel32:KERNEL32.dll
 0005:00000cf8       __imp_RtlVirtualUnwind     0000000140295cf8     kernel32:KERNEL32.dll
 0005:00000d00       __imp_RtlLookupFunctionEntry 0000000140295d00     kernel32:KERNEL32.dll
 0005:00000d08       __imp_RaiseException       0000000140295d08     kernel32:KERNEL32.dll
 0005:00000d10       __imp_RtlPcToFileHeader    0000000140295d10     kernel32:KERNEL32.dll
 0005:00000d18       __imp_RtlUnwindEx          0000000140295d18     kernel32:KERNEL32.dll
 0005:00000d20       __imp_SetHandleCount       0000000140295d20     kernel32:KERNEL32.dll
 0005:00000d28       __imp_GetStartupInfoA      0000000140295d28     kernel32:KERNEL32.dll
 0005:00000d30       __imp_FatalAppExitA        0000000140295d30     kernel32:KERNEL32.dll
 0005:00000d38       __imp_GetConsoleCP         0000000140295d38     kernel32:KERNEL32.dll
 0005:00000d40       __imp_FreeLibrary          0000000140295d40     kernel32:KERNEL32.dll
 0005:00000d48       __imp_LoadLibraryA         0000000140295d48     kernel32:KERNEL32.dll
 0005:00000d50       __imp_GetCPInfo            0000000140295d50     kernel32:KERNEL32.dll
 0005:00000d58       __imp_GetACP               0000000140295d58     kernel32:KERNEL32.dll
 0005:00000d60       __imp_GetOEMCP             0000000140295d60     kernel32:KERNEL32.dll
 0005:00000d68       __imp_IsValidCodePage      0000000140295d68     kernel32:KERNEL32.dll
 0005:00000d70       __imp_FreeEnvironmentStringsA 0000000140295d70     kernel32:KERNEL32.dll
 0005:00000d78       __imp_GetEnvironmentStrings 0000000140295d78     kernel32:KERNEL32.dll
 0005:00000d80       __imp_FreeEnvironmentStringsW 0000000140295d80     kernel32:KERNEL32.dll
 0005:00000d88       __imp_GetEnvironmentStringsW 0000000140295d88     kernel32:KERNEL32.dll
 0005:00000d90       __imp_HeapSetInformation   0000000140295d90     kernel32:KERNEL32.dll
 0005:00000d98       __imp_HeapCreate           0000000140295d98     kernel32:KERNEL32.dll
 0005:00000da0       __imp_HeapDestroy          0000000140295da0     kernel32:KERNEL32.dll
 0005:00000da8       __imp_GetCurrentProcessId  0000000140295da8     kernel32:KERNEL32.dll
 0005:00000db0       __imp_HeapSize             0000000140295db0     kernel32:KERNEL32.dll
 0005:00000db8       __imp_MultiByteToWideChar  0000000140295db8     kernel32:KERNEL32.dll
 0005:00000dc0       __imp_InitializeCriticalSection 0000000140295dc0     kernel32:KERNEL32.dll
 0005:00000dc8       \177KERNEL32_NULL_THUNK_DATA 0000000140295dc8     kernel32:KERNEL32.dll
 0005:00000f00       __imp_PeekMessageA         0000000140295f00     user32:USER32.dll
 0005:00000f08       __imp_KillTimer            0000000140295f08     user32:USER32.dll
 0005:00000f10       __imp_SetTimer             0000000140295f10     user32:USER32.dll
 0005:00000f18       \177USER32_NULL_THUNK_DATA 0000000140295f18     user32:USER32.dll
 0005:00000f70       __imp_recv                 0000000140295f70     wsock32:WSOCK32.dll
 0005:00000f78       __imp_gethostbyname        0000000140295f78     wsock32:WSOCK32.dll
 0005:00000f80       __imp_WSAStartup           0000000140295f80     wsock32:WSOCK32.dll
 0005:00000f88       __imp_WSACleanup           0000000140295f88     wsock32:WSOCK32.dll
 0005:00000f90       __imp_WSAGetLastError      0000000140295f90     wsock32:WSOCK32.dll
 0005:00000f98       __imp_send                 0000000140295f98     wsock32:WSOCK32.dll
 0005:00000fa0       __imp_select               0000000140295fa0     wsock32:WSOCK32.dll
 0005:00000fa8       __imp___WSAFDIsSet         0000000140295fa8     wsock32:WSOCK32.dll
 0005:00000fb0       __imp_accept               0000000140295fb0     wsock32:WSOCK32.dll
 0005:00000fb8       __imp_shutdown             0000000140295fb8     wsock32:WSOCK32.dll
 0005:00000fc0       __imp_socket               0000000140295fc0     wsock32:WSOCK32.dll
 0005:00000fc8       __imp_ntohs                0000000140295fc8     wsock32:WSOCK32.dll
 0005:00000fd0       __imp_getpeername          0000000140295fd0     wsock32:WSOCK32.dll
 0005:00000fd8       __imp_WSASetLastError      0000000140295fd8     wsock32:WSOCK32.dll
 0005:00000fe0       __imp_connect              0000000140295fe0     wsock32:WSOCK32.dll
 0005:00000fe8       __imp_inet_addr            0000000140295fe8     wsock32:WSOCK32.dll
 0005:00000ff0       __imp_htonl                0000000140295ff0     wsock32:WSOCK32.dll
 0005:00000ff8       __imp_htons                0000000140295ff8     wsock32:WSOCK32.dll
 0005:00001000       __imp_inet_ntoa            0000000140296000     wsock32:WSOCK32.dll
 0005:00001008       __imp_setsockopt           0000000140296008     wsock32:WSOCK32.dll
 0005:00001010       __imp_bind                 0000000140296010     wsock32:WSOCK32.dll
 0005:00001018       __imp_listen               0000000140296018     wsock32:WSOCK32.dll
 0005:00001020       __imp_closesocket          0000000140296020     wsock32:WSOCK32.dll
 0005:00001028       __imp_ioctlsocket          0000000140296028     wsock32:WSOCK32.dll
 0005:00001030       __imp_gethostname          0000000140296030     wsock32:WSOCK32.dll
 0005:00001038       \177WSOCK32_NULL_THUNK_DATA 0000000140296038     wsock32:WSOCK32.dll
 0006:00000000       _tls_start                 0000000140297000     LIBCMT:tlssup.obj
 0006:00000110       THR_KEY_mysys              0000000140297110     mysys:my_thr_init.obj
 0006:000002f6       _tls_end                   00000001402972f6     LIBCMT:tlssup.obj

 entry point at        0001:00060850

